

Microchip Technology PIC LITE Macro Assembler V2.00 build -1524193055 
                                                                                               Thu Jan 24 02:02:23 2019

Microchip Technology Omniscient Code Generator v2.00 (Free mode) build 20180527130849
     1  0000                     
      + 0000                     
     2                           ; Version 2.00
     3                           ; Generated 27/05/2018 GMT
     4                           
     5                           ; 
     6                           ; Copyright © 2018, Microchip Technology Inc. and its subsidiaries ("Microchip")
     7                           ; All rights reserved.
     8                           ; 
     9                           ; This software is developed by Microchip Technology Inc. and its subsidiaries ("Microch
                                 ip").
    10                           ; 
    11                           ; Redistribution and use in source and binary forms, with or without modification, are
    12                           ; permitted provided that the following conditions are met:
    13                           ; 
    14                           ;     1. Redistributions of source code must retain the above copyright notice, this lis
                                 t of
    15                           ;        conditions and the following disclaimer.
    16                           ; 
    17                           ;     2. Redistributions in binary form must reproduce the above copyright notice, this 
                                 list
    18                           ;        of conditions and the following disclaimer in the documentation and/or other
    19                           ;        materials provided with the distribution.
    20                           ; 
    21                           ;     3. Microchip's name may not be used to endorse or promote products derived from th
                                 is
    22                           ;        software without specific prior written permission.
    23                           ; 
    24                           ; THIS SOFTWARE IS PROVIDED BY MICROCHIP "AS IS" AND ANY EXPRESS OR IMPLIED WARRANTIES,

    25                           ; INCLUDING, BUT NOT LIMITED TO, THE IMPLIED WARRANTIES OF MERCHANTABILITY AND FITNESS F
                                 OR
    26                           ; PURPOSE ARE DISCLAIMED.  IN NO EVENT SHALL MICROCHIP BE LIABLE FOR ANY DIRECT, INDIREC
                                 T,
    27                           ; INCIDENTAL, SPECIAL, EXEMPLARY, OR CONSEQUENTIAL DAMAGES (INCLUDING BUT NOT LIMITED TO
                                 
    28                           ; PROCUREMENT OF SUBSTITUTE GOODS OR SERVICES; LOSS OF USE, DATA OR PROFITS; OR BUSINESS
                                 
    29                           ; INTERRUPTION) HOWSOEVER CAUSED AND ON ANY THEORY OF LIABILITY, WHETHER IN CONTRACT, ST
                                 RICT
    30                           ; LIABILITY, OR TORT (INCLUDING NEGLIGENCE OR OTHERWISE) ARISING IN ANY WAY OUT OF THE U
                                 SE OF
    31                           ; THIS SOFTWARE, EVEN IF ADVISED OF THE POSSIBILITY OF SUCH DAMAGE.
    32                           ; 
    33                           
    34                           
    35                           ; 
    36                           ; Code-generator required, PIC16F877A Definitions
    37                           ; 
    38  0004                     fsr0 equ 04h
    39  0004                     indf equ 00h
    40  0000                     indf0 equ 00h
    41  0000                     pc equ 02h
    42  0002                     pcl equ 02h
    43  0002                     pclath equ 0Ah
    44  000A                     status equ 03h
    45  0003                     
     2                           opt pagewidth 120
     3  0000                     byte0	macro	val
     4                           	(getbyte(val,0))
     5                           endm
     6  0000                     byte1	macro	val
     7                           	(getbyte(val,1))
     8                           endm
     9  0000                     byte2	macro	val
    10                           	(getbyte(val,2))
    11                           endm
    12  0000                     byte3	macro	val
    13                           	(getbyte(val,3))
    14                           endm
    15  0000                     byte4	macro	val
    16                           	(getbyte(val,4))
    17                           endm
    18  0000                     byte5	macro	val
    19                           	(getbyte(val,5))
    20                           endm
    21  0000                     byte6	macro	val
    22                           	(getbyte(val,6))
    23                           endm
    24  0000                     byte7	macro	val
    25                           	(getbyte(val,7))
    26                           endm
    27  0000                     getword	macro	val,pos
    28                           	(((val) >> (8 * pos)) and 0xffff)
    29                           endm
    30  0000                     word0	macro	val
    31                           	(getword(val,0))
    32                           endm
    33  0000                     word1	macro	val
    34                           	(getword(val,2))
    35                           endm
    36  0000                     word2	macro	val
    37                           	(getword(val,4))
    38                           endm
    39  0000                     word3	macro	val
    40                           	(getword(val,6))
    41                           endm
    42  0000                     gettword	macro	val,pos
    43                           	(((val) >> (8 * pos)) and 0xffffff)
    44                           endm
    45  0000                     tword0	macro	val
    46                           	(gettword(val,0))
    47                           endm
    48  0000                     tword1	macro	val
    49                           	(gettword(val,3))
    50                           endm
    51  0000                     tword2	macro	val
    52                           	(gettword(val,6))
    53                           endm
    54  0000                     getdword	macro	val,pos
    55                           	(((val) >> (8 * pos)) and 0xffffffff)
    56                           endm
    57  0000                     dword0	macro	val
    58                           	(getdword(val,0))
    59                           endm
    60  0000                     dword1	macro	val
    61                           	(getdword(val,4))
    62                           endm
    63  0000                     clrc	macro
    64                           	bcf	3,0
    65                           	endm
    66  0000                     clrz	macro
    67                           	bcf	3,2
    68                           	endm
    69  0000                     setc	macro
    70                           	bsf	3,0
    71                           	endm
    72  0000                     setz	macro
    73                           	bsf	3,2
    74                           	endm
    75  0000                     skipc	macro
    76                           	btfss	3,0
    77                           	endm
    78  0000                     skipz	macro
    79                           	btfss	3,2
    80                           	endm
    81  0000                     skipnc	macro
    82                           	btfsc	3,0
    83                           	endm
    84  0000                     skipnz	macro
    85                           	btfsc	3,2
    86                           	endm
    87  0000                     # 54 "C:\Program Files (x86)\Microchip\xc8\v2.00\pic\include\pic16f877a.h"
    88                           INDF equ 00h ;# 
    89  0000                     # 61 "C:\Program Files (x86)\Microchip\xc8\v2.00\pic\include\pic16f877a.h"
    90                           TMR0 equ 01h ;# 
    91  0001                     # 68 "C:\Program Files (x86)\Microchip\xc8\v2.00\pic\include\pic16f877a.h"
    92                           PCL equ 02h ;# 
    93  0002                     # 75 "C:\Program Files (x86)\Microchip\xc8\v2.00\pic\include\pic16f877a.h"
    94                           STATUS equ 03h ;# 
    95  0003                     # 161 "C:\Program Files (x86)\Microchip\xc8\v2.00\pic\include\pic16f877a.h"
    96                           FSR equ 04h ;# 
    97  0004                     # 168 "C:\Program Files (x86)\Microchip\xc8\v2.00\pic\include\pic16f877a.h"
    98                           PORTA equ 05h ;# 
    99  0005                     # 218 "C:\Program Files (x86)\Microchip\xc8\v2.00\pic\include\pic16f877a.h"
   100                           PORTB equ 06h ;# 
   101  0006                     # 280 "C:\Program Files (x86)\Microchip\xc8\v2.00\pic\include\pic16f877a.h"
   102                           PORTC equ 07h ;# 
   103  0007                     # 342 "C:\Program Files (x86)\Microchip\xc8\v2.00\pic\include\pic16f877a.h"
   104                           PORTD equ 08h ;# 
   105  0008                     # 404 "C:\Program Files (x86)\Microchip\xc8\v2.00\pic\include\pic16f877a.h"
   106                           PORTE equ 09h ;# 
   107  0009                     # 436 "C:\Program Files (x86)\Microchip\xc8\v2.00\pic\include\pic16f877a.h"
   108                           PCLATH equ 0Ah ;# 
   109  000A                     # 456 "C:\Program Files (x86)\Microchip\xc8\v2.00\pic\include\pic16f877a.h"
   110                           INTCON equ 0Bh ;# 
   111  000B                     # 534 "C:\Program Files (x86)\Microchip\xc8\v2.00\pic\include\pic16f877a.h"
   112                           PIR1 equ 0Ch ;# 
   113  000C                     # 596 "C:\Program Files (x86)\Microchip\xc8\v2.00\pic\include\pic16f877a.h"
   114                           PIR2 equ 0Dh ;# 
   115  000D                     # 636 "C:\Program Files (x86)\Microchip\xc8\v2.00\pic\include\pic16f877a.h"
   116                           TMR1 equ 0Eh ;# 
   117  000E                     # 643 "C:\Program Files (x86)\Microchip\xc8\v2.00\pic\include\pic16f877a.h"
   118                           TMR1L equ 0Eh ;# 
   119  000E                     # 650 "C:\Program Files (x86)\Microchip\xc8\v2.00\pic\include\pic16f877a.h"
   120                           TMR1H equ 0Fh ;# 
   121  000F                     # 657 "C:\Program Files (x86)\Microchip\xc8\v2.00\pic\include\pic16f877a.h"
   122                           T1CON equ 010h ;# 
   123  0010                     # 732 "C:\Program Files (x86)\Microchip\xc8\v2.00\pic\include\pic16f877a.h"
   124                           TMR2 equ 011h ;# 
   125  0011                     # 739 "C:\Program Files (x86)\Microchip\xc8\v2.00\pic\include\pic16f877a.h"
   126                           T2CON equ 012h ;# 
   127  0012                     # 810 "C:\Program Files (x86)\Microchip\xc8\v2.00\pic\include\pic16f877a.h"
   128                           SSPBUF equ 013h ;# 
   129  0013                     # 817 "C:\Program Files (x86)\Microchip\xc8\v2.00\pic\include\pic16f877a.h"
   130                           SSPCON equ 014h ;# 
   131  0014                     # 887 "C:\Program Files (x86)\Microchip\xc8\v2.00\pic\include\pic16f877a.h"
   132                           CCPR1 equ 015h ;# 
   133  0015                     # 894 "C:\Program Files (x86)\Microchip\xc8\v2.00\pic\include\pic16f877a.h"
   134                           CCPR1L equ 015h ;# 
   135  0015                     # 901 "C:\Program Files (x86)\Microchip\xc8\v2.00\pic\include\pic16f877a.h"
   136                           CCPR1H equ 016h ;# 
   137  0016                     # 908 "C:\Program Files (x86)\Microchip\xc8\v2.00\pic\include\pic16f877a.h"
   138                           CCP1CON equ 017h ;# 
   139  0017                     # 966 "C:\Program Files (x86)\Microchip\xc8\v2.00\pic\include\pic16f877a.h"
   140                           RCSTA equ 018h ;# 
   141  0018                     # 1061 "C:\Program Files (x86)\Microchip\xc8\v2.00\pic\include\pic16f877a.h"
   142                           TXREG equ 019h ;# 
   143  0019                     # 1068 "C:\Program Files (x86)\Microchip\xc8\v2.00\pic\include\pic16f877a.h"
   144                           RCREG equ 01Ah ;# 
   145  001A                     # 1075 "C:\Program Files (x86)\Microchip\xc8\v2.00\pic\include\pic16f877a.h"
   146                           CCPR2 equ 01Bh ;# 
   147  001B                     # 1082 "C:\Program Files (x86)\Microchip\xc8\v2.00\pic\include\pic16f877a.h"
   148                           CCPR2L equ 01Bh ;# 
   149  001B                     # 1089 "C:\Program Files (x86)\Microchip\xc8\v2.00\pic\include\pic16f877a.h"
   150                           CCPR2H equ 01Ch ;# 
   151  001C                     # 1096 "C:\Program Files (x86)\Microchip\xc8\v2.00\pic\include\pic16f877a.h"
   152                           CCP2CON equ 01Dh ;# 
   153  001D                     # 1154 "C:\Program Files (x86)\Microchip\xc8\v2.00\pic\include\pic16f877a.h"
   154                           ADRESH equ 01Eh ;# 
   155  001E                     # 1161 "C:\Program Files (x86)\Microchip\xc8\v2.00\pic\include\pic16f877a.h"
   156                           ADCON0 equ 01Fh ;# 
   157  001F                     # 1257 "C:\Program Files (x86)\Microchip\xc8\v2.00\pic\include\pic16f877a.h"
   158                           OPTION_REG equ 081h ;# 
   159  0081                     # 1327 "C:\Program Files (x86)\Microchip\xc8\v2.00\pic\include\pic16f877a.h"
   160                           TRISA equ 085h ;# 
   161  0085                     # 1377 "C:\Program Files (x86)\Microchip\xc8\v2.00\pic\include\pic16f877a.h"
   162                           TRISB equ 086h ;# 
   163  0086                     # 1439 "C:\Program Files (x86)\Microchip\xc8\v2.00\pic\include\pic16f877a.h"
   164                           TRISC equ 087h ;# 
   165  0087                     # 1501 "C:\Program Files (x86)\Microchip\xc8\v2.00\pic\include\pic16f877a.h"
   166                           TRISD equ 088h ;# 
   167  0088                     # 1563 "C:\Program Files (x86)\Microchip\xc8\v2.00\pic\include\pic16f877a.h"
   168                           TRISE equ 089h ;# 
   169  0089                     # 1620 "C:\Program Files (x86)\Microchip\xc8\v2.00\pic\include\pic16f877a.h"
   170                           PIE1 equ 08Ch ;# 
   171  008C                     # 1682 "C:\Program Files (x86)\Microchip\xc8\v2.00\pic\include\pic16f877a.h"
   172                           PIE2 equ 08Dh ;# 
   173  008D                     # 1722 "C:\Program Files (x86)\Microchip\xc8\v2.00\pic\include\pic16f877a.h"
   174                           PCON equ 08Eh ;# 
   175  008E                     # 1756 "C:\Program Files (x86)\Microchip\xc8\v2.00\pic\include\pic16f877a.h"
   176                           SSPCON2 equ 091h ;# 
   177  0091                     # 1818 "C:\Program Files (x86)\Microchip\xc8\v2.00\pic\include\pic16f877a.h"
   178                           PR2 equ 092h ;# 
   179  0092                     # 1825 "C:\Program Files (x86)\Microchip\xc8\v2.00\pic\include\pic16f877a.h"
   180                           SSPADD equ 093h ;# 
   181  0093                     # 1832 "C:\Program Files (x86)\Microchip\xc8\v2.00\pic\include\pic16f877a.h"
   182                           SSPSTAT equ 094h ;# 
   183  0094                     # 2001 "C:\Program Files (x86)\Microchip\xc8\v2.00\pic\include\pic16f877a.h"
   184                           TXSTA equ 098h ;# 
   185  0098                     # 2082 "C:\Program Files (x86)\Microchip\xc8\v2.00\pic\include\pic16f877a.h"
   186                           SPBRG equ 099h ;# 
   187  0099                     # 2089 "C:\Program Files (x86)\Microchip\xc8\v2.00\pic\include\pic16f877a.h"
   188                           CMCON equ 09Ch ;# 
   189  009C                     # 2159 "C:\Program Files (x86)\Microchip\xc8\v2.00\pic\include\pic16f877a.h"
   190                           CVRCON equ 09Dh ;# 
   191  009D                     # 2224 "C:\Program Files (x86)\Microchip\xc8\v2.00\pic\include\pic16f877a.h"
   192                           ADRESL equ 09Eh ;# 
   193  009E                     # 2231 "C:\Program Files (x86)\Microchip\xc8\v2.00\pic\include\pic16f877a.h"
   194                           ADCON1 equ 09Fh ;# 
   195  009F                     # 2290 "C:\Program Files (x86)\Microchip\xc8\v2.00\pic\include\pic16f877a.h"
   196                           EEDATA equ 010Ch ;# 
   197  010C                     # 2297 "C:\Program Files (x86)\Microchip\xc8\v2.00\pic\include\pic16f877a.h"
   198                           EEADR equ 010Dh ;# 
   199  010D                     # 2304 "C:\Program Files (x86)\Microchip\xc8\v2.00\pic\include\pic16f877a.h"
   200                           EEDATH equ 010Eh ;# 
   201  010E                     # 2311 "C:\Program Files (x86)\Microchip\xc8\v2.00\pic\include\pic16f877a.h"
   202                           EEADRH equ 010Fh ;# 
   203  010F                     # 2318 "C:\Program Files (x86)\Microchip\xc8\v2.00\pic\include\pic16f877a.h"
   204                           EECON1 equ 018Ch ;# 
   205  018C                     # 2363 "C:\Program Files (x86)\Microchip\xc8\v2.00\pic\include\pic16f877a.h"
   206                           EECON2 equ 018Dh ;# 
   207  018D                     # 54 "C:\Program Files (x86)\Microchip\xc8\v2.00\pic\include\pic16f877a.h"
   208                           INDF equ 00h ;# 
   209  0000                     # 61 "C:\Program Files (x86)\Microchip\xc8\v2.00\pic\include\pic16f877a.h"
   210                           TMR0 equ 01h ;# 
   211  0001                     # 68 "C:\Program Files (x86)\Microchip\xc8\v2.00\pic\include\pic16f877a.h"
   212                           PCL equ 02h ;# 
   213  0002                     # 75 "C:\Program Files (x86)\Microchip\xc8\v2.00\pic\include\pic16f877a.h"
   214                           STATUS equ 03h ;# 
   215  0003                     # 161 "C:\Program Files (x86)\Microchip\xc8\v2.00\pic\include\pic16f877a.h"
   216                           FSR equ 04h ;# 
   217  0004                     # 168 "C:\Program Files (x86)\Microchip\xc8\v2.00\pic\include\pic16f877a.h"
   218                           PORTA equ 05h ;# 
   219  0005                     # 218 "C:\Program Files (x86)\Microchip\xc8\v2.00\pic\include\pic16f877a.h"
   220                           PORTB equ 06h ;# 
   221  0006                     # 280 "C:\Program Files (x86)\Microchip\xc8\v2.00\pic\include\pic16f877a.h"
   222                           PORTC equ 07h ;# 
   223  0007                     # 342 "C:\Program Files (x86)\Microchip\xc8\v2.00\pic\include\pic16f877a.h"
   224                           PORTD equ 08h ;# 
   225  0008                     # 404 "C:\Program Files (x86)\Microchip\xc8\v2.00\pic\include\pic16f877a.h"
   226                           PORTE equ 09h ;# 
   227  0009                     # 436 "C:\Program Files (x86)\Microchip\xc8\v2.00\pic\include\pic16f877a.h"
   228                           PCLATH equ 0Ah ;# 
   229  000A                     # 456 "C:\Program Files (x86)\Microchip\xc8\v2.00\pic\include\pic16f877a.h"
   230                           INTCON equ 0Bh ;# 
   231  000B                     # 534 "C:\Program Files (x86)\Microchip\xc8\v2.00\pic\include\pic16f877a.h"
   232                           PIR1 equ 0Ch ;# 
   233  000C                     # 596 "C:\Program Files (x86)\Microchip\xc8\v2.00\pic\include\pic16f877a.h"
   234                           PIR2 equ 0Dh ;# 
   235  000D                     # 636 "C:\Program Files (x86)\Microchip\xc8\v2.00\pic\include\pic16f877a.h"
   236                           TMR1 equ 0Eh ;# 
   237  000E                     # 643 "C:\Program Files (x86)\Microchip\xc8\v2.00\pic\include\pic16f877a.h"
   238                           TMR1L equ 0Eh ;# 
   239  000E                     # 650 "C:\Program Files (x86)\Microchip\xc8\v2.00\pic\include\pic16f877a.h"
   240                           TMR1H equ 0Fh ;# 
   241  000F                     # 657 "C:\Program Files (x86)\Microchip\xc8\v2.00\pic\include\pic16f877a.h"
   242                           T1CON equ 010h ;# 
   243  0010                     # 732 "C:\Program Files (x86)\Microchip\xc8\v2.00\pic\include\pic16f877a.h"
   244                           TMR2 equ 011h ;# 
   245  0011                     # 739 "C:\Program Files (x86)\Microchip\xc8\v2.00\pic\include\pic16f877a.h"
   246                           T2CON equ 012h ;# 
   247  0012                     # 810 "C:\Program Files (x86)\Microchip\xc8\v2.00\pic\include\pic16f877a.h"
   248                           SSPBUF equ 013h ;# 
   249  0013                     # 817 "C:\Program Files (x86)\Microchip\xc8\v2.00\pic\include\pic16f877a.h"
   250                           SSPCON equ 014h ;# 
   251  0014                     # 887 "C:\Program Files (x86)\Microchip\xc8\v2.00\pic\include\pic16f877a.h"
   252                           CCPR1 equ 015h ;# 
   253  0015                     # 894 "C:\Program Files (x86)\Microchip\xc8\v2.00\pic\include\pic16f877a.h"
   254                           CCPR1L equ 015h ;# 
   255  0015                     # 901 "C:\Program Files (x86)\Microchip\xc8\v2.00\pic\include\pic16f877a.h"
   256                           CCPR1H equ 016h ;# 
   257  0016                     # 908 "C:\Program Files (x86)\Microchip\xc8\v2.00\pic\include\pic16f877a.h"
   258                           CCP1CON equ 017h ;# 
   259  0017                     # 966 "C:\Program Files (x86)\Microchip\xc8\v2.00\pic\include\pic16f877a.h"
   260                           RCSTA equ 018h ;# 
   261  0018                     # 1061 "C:\Program Files (x86)\Microchip\xc8\v2.00\pic\include\pic16f877a.h"
   262                           TXREG equ 019h ;# 
   263  0019                     # 1068 "C:\Program Files (x86)\Microchip\xc8\v2.00\pic\include\pic16f877a.h"
   264                           RCREG equ 01Ah ;# 
   265  001A                     # 1075 "C:\Program Files (x86)\Microchip\xc8\v2.00\pic\include\pic16f877a.h"
   266                           CCPR2 equ 01Bh ;# 
   267  001B                     # 1082 "C:\Program Files (x86)\Microchip\xc8\v2.00\pic\include\pic16f877a.h"
   268                           CCPR2L equ 01Bh ;# 
   269  001B                     # 1089 "C:\Program Files (x86)\Microchip\xc8\v2.00\pic\include\pic16f877a.h"
   270                           CCPR2H equ 01Ch ;# 
   271  001C                     # 1096 "C:\Program Files (x86)\Microchip\xc8\v2.00\pic\include\pic16f877a.h"
   272                           CCP2CON equ 01Dh ;# 
   273  001D                     # 1154 "C:\Program Files (x86)\Microchip\xc8\v2.00\pic\include\pic16f877a.h"
   274                           ADRESH equ 01Eh ;# 
   275  001E                     # 1161 "C:\Program Files (x86)\Microchip\xc8\v2.00\pic\include\pic16f877a.h"
   276                           ADCON0 equ 01Fh ;# 
   277  001F                     # 1257 "C:\Program Files (x86)\Microchip\xc8\v2.00\pic\include\pic16f877a.h"
   278                           OPTION_REG equ 081h ;# 
   279  0081                     # 1327 "C:\Program Files (x86)\Microchip\xc8\v2.00\pic\include\pic16f877a.h"
   280                           TRISA equ 085h ;# 
   281  0085                     # 1377 "C:\Program Files (x86)\Microchip\xc8\v2.00\pic\include\pic16f877a.h"
   282                           TRISB equ 086h ;# 
   283  0086                     # 1439 "C:\Program Files (x86)\Microchip\xc8\v2.00\pic\include\pic16f877a.h"
   284                           TRISC equ 087h ;# 
   285  0087                     # 1501 "C:\Program Files (x86)\Microchip\xc8\v2.00\pic\include\pic16f877a.h"
   286                           TRISD equ 088h ;# 
   287  0088                     # 1563 "C:\Program Files (x86)\Microchip\xc8\v2.00\pic\include\pic16f877a.h"
   288                           TRISE equ 089h ;# 
   289  0089                     # 1620 "C:\Program Files (x86)\Microchip\xc8\v2.00\pic\include\pic16f877a.h"
   290                           PIE1 equ 08Ch ;# 
   291  008C                     # 1682 "C:\Program Files (x86)\Microchip\xc8\v2.00\pic\include\pic16f877a.h"
   292                           PIE2 equ 08Dh ;# 
   293  008D                     # 1722 "C:\Program Files (x86)\Microchip\xc8\v2.00\pic\include\pic16f877a.h"
   294                           PCON equ 08Eh ;# 
   295  008E                     # 1756 "C:\Program Files (x86)\Microchip\xc8\v2.00\pic\include\pic16f877a.h"
   296                           SSPCON2 equ 091h ;# 
   297  0091                     # 1818 "C:\Program Files (x86)\Microchip\xc8\v2.00\pic\include\pic16f877a.h"
   298                           PR2 equ 092h ;# 
   299  0092                     # 1825 "C:\Program Files (x86)\Microchip\xc8\v2.00\pic\include\pic16f877a.h"
   300                           SSPADD equ 093h ;# 
   301  0093                     # 1832 "C:\Program Files (x86)\Microchip\xc8\v2.00\pic\include\pic16f877a.h"
   302                           SSPSTAT equ 094h ;# 
   303  0094                     # 2001 "C:\Program Files (x86)\Microchip\xc8\v2.00\pic\include\pic16f877a.h"
   304                           TXSTA equ 098h ;# 
   305  0098                     # 2082 "C:\Program Files (x86)\Microchip\xc8\v2.00\pic\include\pic16f877a.h"
   306                           SPBRG equ 099h ;# 
   307  0099                     # 2089 "C:\Program Files (x86)\Microchip\xc8\v2.00\pic\include\pic16f877a.h"
   308                           CMCON equ 09Ch ;# 
   309  009C                     # 2159 "C:\Program Files (x86)\Microchip\xc8\v2.00\pic\include\pic16f877a.h"
   310                           CVRCON equ 09Dh ;# 
   311  009D                     # 2224 "C:\Program Files (x86)\Microchip\xc8\v2.00\pic\include\pic16f877a.h"
   312                           ADRESL equ 09Eh ;# 
   313  009E                     # 2231 "C:\Program Files (x86)\Microchip\xc8\v2.00\pic\include\pic16f877a.h"
   314                           ADCON1 equ 09Fh ;# 
   315  009F                     # 2290 "C:\Program Files (x86)\Microchip\xc8\v2.00\pic\include\pic16f877a.h"
   316                           EEDATA equ 010Ch ;# 
   317  010C                     # 2297 "C:\Program Files (x86)\Microchip\xc8\v2.00\pic\include\pic16f877a.h"
   318                           EEADR equ 010Dh ;# 
   319  010D                     # 2304 "C:\Program Files (x86)\Microchip\xc8\v2.00\pic\include\pic16f877a.h"
   320                           EEDATH equ 010Eh ;# 
   321  010E                     # 2311 "C:\Program Files (x86)\Microchip\xc8\v2.00\pic\include\pic16f877a.h"
   322                           EEADRH equ 010Fh ;# 
   323  010F                     # 2318 "C:\Program Files (x86)\Microchip\xc8\v2.00\pic\include\pic16f877a.h"
   324                           EECON1 equ 018Ch ;# 
   325  018C                     # 2363 "C:\Program Files (x86)\Microchip\xc8\v2.00\pic\include\pic16f877a.h"
   326                           EECON2 equ 018Dh ;# 
   327  018D                     	FNCALL	_main,_Lcd_Clear
   328                           	FNCALL	_main,_Lcd_Init
   329                           	FNCALL	_main,_Lcd_Set_Cursor
   330                           	FNCALL	_main,_Lcd_Write_Char
   331                           	FNCALL	_main,_Lcd_Write_String
   332                           	FNCALL	_main,_UART_Get_Char
   333                           	FNCALL	_main,_UART_Init
   334                           	FNCALL	_main,_UART_Send_Char
   335                           	FNCALL	_main,___awdiv
   336                           	FNCALL	_main,___awmod
   337                           	FNCALL	_main,___fladd
   338                           	FNCALL	_main,___fldiv
   339                           	FNCALL	_main,___flmul
   340                           	FNCALL	_main,___fltol
   341                           	FNCALL	_main,___wmul
   342                           	FNCALL	_main,___xxtofl
   343                           	FNCALL	_main,_printf
   344                           	FNCALL	_main,_sprintf
   345                           	FNCALL	_sprintf,__doprnt
   346                           	FNCALL	_printf,__doprnt
   347                           	FNCALL	__doprnt,___lwdiv
   348                           	FNCALL	__doprnt,___lwmod
   349                           	FNCALL	__doprnt,_putch
   350                           	FNCALL	_putch,_UART_Send_Char
   351                           	FNCALL	___flmul,__Umul8_16
   352                           	FNCALL	_Lcd_Write_String,_Lcd_Write_Char
   353                           	FNCALL	_Lcd_Write_Char,_Lcd_Port
   354                           	FNCALL	_Lcd_Set_Cursor,_Lcd_Cmd
   355                           	FNCALL	_Lcd_Init,_Lcd_Cmd
   356                           	FNCALL	_Lcd_Init,_Lcd_Port
   357                           	FNCALL	_Lcd_Clear,_Lcd_Cmd
   358                           	FNCALL	_Lcd_Cmd,_Lcd_Port
   359                           	FNROOT	_main
   360                           	global	main@F1119
   361                           	global	main@F1117
   362                           	global	main@F1135
   363                           psect	idataBANK3,class=CODE,space=0,delta=2,noexec
   364                           global __pidataBANK3
   365                           __pidataBANK3:
   366  1FA0                     	file	"ROKZ1.c"
   367                           	line	166
   368                           
   369                           ;initializer for main@F1119
   370                           	retlw	0BFh
   371  1FA0  34BF               	retlw	086h
   372  1FA1  3486               	retlw	0DBh
   373  1FA2  34DB               	retlw	0CFh
   374  1FA3  34CF               	retlw	0E6h
   375  1FA4  34E6               	retlw	0EDh
   376  1FA5  34ED               	retlw	0FDh
   377  1FA6  34FD               	retlw	087h
   378  1FA7  3487               	retlw	0FFh
   379  1FA8  34FF               	retlw	01Fh
   380  1FA9  341F               	line	165
   381                           
   382                           ;initializer for main@F1117
   383                           	retlw	03Fh
   384  1FAA  343F               	retlw	06h
   385  1FAB  3406               	retlw	05Bh
   386  1FAC  345B               	retlw	04Fh
   387  1FAD  344F               	retlw	066h
   388  1FAE  3466               	retlw	06Dh
   389  1FAF  346D               	retlw	07Dh
   390  1FB0  347D               	retlw	07h
   391  1FB1  3407               	retlw	07Fh
   392  1FB2  347F               	retlw	06Fh
   393  1FB3  346F               	line	295
   394                           
   395                           ;initializer for main@F1135
   396                           	retlw	040h
   397  1FB4  3440               	global	_dpowers
   398                           psect	stringtext,class=STRCODE,delta=2,reloc=256,noexec
   399                           global __pstringtext
   400                           __pstringtext:
   401  1800                     stringtab:
   402  1800                     	global    __stringtab
   403                           __stringtab:
   404  1800                     ;	String table - string pointers are 2 bytes each
   405                           	btfsc	(btemp+1),7
   406  1800  1BFF               	ljmp	stringcode
   407  1801  280A               	bcf	status,7
   408  1802  1383               	btfsc	(btemp+1),0
   409  1803  187F               	bsf	status,7
   410  1804  1783               	movf	indf,w
   411  1805  0800               	incf fsr
   412  1806  0A84               skipnz
   413  1807  1903               incf btemp+1
   414  1808  0AFF               	return
   415  1809  0008               stringcode:
   416  180A                     	movf btemp+1,w
   417  180A  087F               andlw 7Fh
   418  180B  397F               movwf	pclath
   419  180C  008A               	movf	fsr,w
   420  180D  0804               incf fsr
   421  180E  0A84               skipnz
   422  180F  1903               incf btemp+1
   423  1810  0AFF               	movwf pc
   424  1811  0082               	global __stringbase
   425                           __stringbase:
   426  1812                     	global    __end_of__stringtab
   427                           __end_of__stringtab:
   428  1812                     	file	"C:\Program Files (x86)\Microchip\xc8\v2.00\pic\sources\c90\common\doprnt.c"
   429                           	line	358
   430                           _dpowers:
   431  1812                     	retlw	01h
   432  1812  3401               	retlw	0
   433  1813  3400               
   434                           	retlw	0Ah
   435  1814  340A               	retlw	0
   436  1815  3400               
   437                           	retlw	064h
   438  1816  3464               	retlw	0
   439  1817  3400               
   440                           	retlw	0E8h
   441  1818  34E8               	retlw	03h
   442  1819  3403               
   443                           	retlw	010h
   444  181A  3410               	retlw	027h
   445  181B  3427               
   446                           	global __end_of_dpowers
   447                           __end_of_dpowers:
   448  181C                     	global	_dpowers
   449                           	global	_PORTB
   450                           _PORTB	set	0x6
   451  0006                     	global	_RCREG
   452                           _RCREG	set	0x1A
   453  001A                     	global	_TXREG
   454                           _TXREG	set	0x19
   455  0019                     	global	_RC0
   456                           _RC0	set	0x38
   457  0038                     	global	_RC3
   458                           _RC3	set	0x3B
   459  003B                     	global	_RC2
   460                           _RC2	set	0x3A
   461  003A                     	global	_RC1
   462                           _RC1	set	0x39
   463  0039                     	global	_RD3
   464                           _RD3	set	0x43
   465  0043                     	global	_RD2
   466                           _RD2	set	0x42
   467  0042                     	global	_RD7
   468                           _RD7	set	0x47
   469  0047                     	global	_RD6
   470                           _RD6	set	0x46
   471  0046                     	global	_RD5
   472                           _RD5	set	0x45
   473  0045                     	global	_RD4
   474                           _RD4	set	0x44
   475  0044                     	global	_RCIF
   476                           _RCIF	set	0x65
   477  0065                     	global	_OERR
   478                           _OERR	set	0xC1
   479  00C1                     	global	_TXIF
   480                           _TXIF	set	0x64
   481  0064                     	global	_RX9
   482                           _RX9	set	0xC6
   483  00C6                     	global	_CREN
   484                           _CREN	set	0xC4
   485  00C4                     	global	_SPEN
   486                           _SPEN	set	0xC7
   487  00C7                     	global	_TRISD
   488                           _TRISD	set	0x88
   489  0088                     	global	_TRISB
   490                           _TRISB	set	0x86
   491  0086                     	global	_SPBRG
   492                           _SPBRG	set	0x99
   493  0099                     	global	_TRISC3
   494                           _TRISC3	set	0x43B
   495  043B                     	global	_TRISC2
   496                           _TRISC2	set	0x43A
   497  043A                     	global	_TRISC1
   498                           _TRISC1	set	0x439
   499  0439                     	global	_TRISC0
   500                           _TRISC0	set	0x438
   501  0438                     	global	_TX9
   502                           _TX9	set	0x4C6
   503  04C6                     	global	_TXEN
   504                           _TXEN	set	0x4C5
   505  04C5                     	global	_SYNC
   506                           _SYNC	set	0x4C4
   507  04C4                     	global	_BRGH
   508                           _BRGH	set	0x4C2
   509  04C2                     	global	_TRISC7
   510                           _TRISC7	set	0x43F
   511  043F                     	global	_TRISC6
   512                           _TRISC6	set	0x43E
   513  043E                     	
   514                           STR_2:	
   515  181C                     	retlw	13
   516  181C  340D               	retlw	32	;' '
   517  181D  3420               	retlw	32	;' '
   518  181E  3420               	retlw	32	;' '
   519  181F  3420               	retlw	32	;' '
   520  1820  3420               	retlw	32	;' '
   521  1821  3420               	retlw	32	;' '
   522  1822  3420               	retlw	32	;' '
   523  1823  3420               	retlw	32	;' '
   524  1824  3420               	retlw	32	;' '
   525  1825  3420               	retlw	32	;' '
   526  1826  3420               	retlw	32	;' '
   527  1827  3420               	retlw	32	;' '
   528  1828  3420               	retlw	32	;' '
   529  1829  3420               	retlw	32	;' '
   530  182A  3420               	retlw	32	;' '
   531  182B  3420               	retlw	32	;' '
   532  182C  3420               	retlw	90	;'Z'
   533  182D  345A               	retlw	69	;'E'
   534  182E  3445               	retlw	72	;'H'
   535  182F  3448               	retlw	82	;'R'
   536  1830  3452               	retlw	65	;'A'
   537  1831  3441               	retlw	32	;' '
   538  1832  3420               	retlw	83	;'S'
   539  1833  3453               	retlw	65	;'A'
   540  1834  3441               	retlw	66	;'B'
   541  1835  3442               	retlw	73	;'I'
   542  1836  3449               	retlw	67	;'C'
   543  1837  3443               	retlw	32	;' '
   544  1838  3420               	retlw	56	;'8'
   545  1839  3438               	retlw	57	;'9'
   546  183A  3439               	retlw	48	;'0'
   547  183B  3430               	retlw	32	;' '
   548  183C  3420               	retlw	32	;' '
   549  183D  3420               	retlw	32	;' '
   550  183E  3420               	retlw	32	;' '
   551  183F  3420               	retlw	32	;' '
   552  1840  3420               	retlw	32	;' '
   553  1841  3420               	retlw	32	;' '
   554  1842  3420               	retlw	32	;' '
   555  1843  3420               	retlw	32	;' '
   556  1844  3420               	retlw	32	;' '
   557  1845  3420               	retlw	32	;' '
   558  1846  3420               	retlw	32	;' '
   559  1847  3420               	retlw	32	;' '
   560  1848  3420               	retlw	32	;' '
   561  1849  3420               	retlw	32	;' '
   562  184A  3420               	retlw	32	;' '
   563  184B  3420               	retlw	32	;' '
   564  184C  3420               	retlw	0
   565  184D  3400               psect	stringtext
   566                           	
   567                           STR_1:	
   568  184E                     	retlw	32	;' '
   569  184E  3420               	retlw	32	;' '
   570  184F  3420               	retlw	32	;' '
   571  1850  3420               	retlw	32	;' '
   572  1851  3420               	retlw	32	;' '
   573  1852  3420               	retlw	32	;' '
   574  1853  3420               	retlw	32	;' '
   575  1854  3420               	retlw	32	;' '
   576  1855  3420               	retlw	32	;' '
   577  1856  3420               	retlw	32	;' '
   578  1857  3420               	retlw	32	;' '
   579  1858  3420               	retlw	32	;' '
   580  1859  3420               	retlw	68	;'D'
   581  185A  3444               	retlw	73	;'I'
   582  185B  3449               	retlw	71	;'G'
   583  185C  3447               	retlw	73	;'I'
   584  185D  3449               	retlw	84	;'T'
   585  185E  3454               	retlw	65	;'A'
   586  185F  3441               	retlw	76	;'L'
   587  1860  344C               	retlw	78	;'N'
   588  1861  344E               	retlw	73	;'I'
   589  1862  3449               	retlw	32	;' '
   590  1863  3420               	retlw	83	;'S'
   591  1864  3453               	retlw	73	;'I'
   592  1865  3449               	retlw	83	;'S'
   593  1866  3453               	retlw	84	;'T'
   594  1867  3454               	retlw	69	;'E'
   595  1868  3445               	retlw	77	;'M'
   596  1869  344D               	retlw	73	;'I'
   597  186A  3449               	retlw	32	;' '
   598  186B  3420               	retlw	45	;'-'
   599  186C  342D               	retlw	32	;' '
   600  186D  3420               	retlw	73	;'I'
   601  186E  3449               	retlw	83	;'S'
   602  186F  3453               	retlw	80	;'P'
   603  1870  3450               	retlw	73	;'I'
   604  1871  3449               	retlw	84	;'T'
   605  1872  3454               	retlw	32	;' '
   606  1873  3420               	retlw	32	;' '
   607  1874  3420               	retlw	32	;' '
   608  1875  3420               	retlw	32	;' '
   609  1876  3420               	retlw	32	;' '
   610  1877  3420               	retlw	32	;' '
   611  1878  3420               	retlw	32	;' '
   612  1879  3420               	retlw	32	;' '
   613  187A  3420               	retlw	32	;' '
   614  187B  3420               	retlw	32	;' '
   615  187C  3420               	retlw	32	;' '
   616  187D  3420               	retlw	0
   617  187E  3400               psect	stringtext
   618                           	
   619                           STR_7:	
   620  187F                     	retlw	13
   621  187F  340D               	retlw	85	;'U'
   622  1880  3455               	retlw	110	;'n'
   623  1881  346E               	retlw	101	;'e'
   624  1882  3465               	retlw	115	;'s'
   625  1883  3473               	retlw	105	;'i'
   626  1884  3469               	retlw	116	;'t'
   627  1885  3474               	retlw	101	;'e'
   628  1886  3465               	retlw	32	;' '
   629  1887  3420               	retlw	111	;'o'
   630  1888  346F               	retlw	112	;'p'
   631  1889  3470               	retlw	99	;'c'
   632  188A  3463               	retlw	105	;'i'
   633  188B  3469               	retlw	106	;'j'
   634  188C  346A               	retlw	117	;'u'
   635  188D  3475               	retlw	32	;' '
   636  188E  3420               	retlw	107	;'k'
   637  188F  346B               	retlw	111	;'o'
   638  1890  346F               	retlw	106	;'j'
   639  1891  346A               	retlw	117	;'u'
   640  1892  3475               	retlw	32	;' '
   641  1893  3420               	retlw	122	;'z'
   642  1894  347A               	retlw	101	;'e'
   643  1895  3465               	retlw	108	;'l'
   644  1896  346C               	retlw	105	;'i'
   645  1897  3469               	retlw	116	;'t'
   646  1898  3474               	retlw	101	;'e'
   647  1899  3465               	retlw	32	;' '
   648  189A  3420               	retlw	114	;'r'
   649  189B  3472               	retlw	101	;'e'
   650  189C  3465               	retlw	97	;'a'
   651  189D  3461               	retlw	108	;'l'
   652  189E  346C               	retlw	105	;'i'
   653  189F  3469               	retlw	122	;'z'
   654  18A0  347A               	retlw	105	;'i'
   655  18A1  3469               	retlw	114	;'r'
   656  18A2  3472               	retlw	97	;'a'
   657  18A3  3461               	retlw	116	;'t'
   658  18A4  3474               	retlw	105	;'i'
   659  18A5  3469               	retlw	58	;':'
   660  18A6  343A               	retlw	32	;' '
   661  18A7  3420               	retlw	0
   662  18A8  3400               psect	stringtext
   663                           	
   664                           STR_16:	
   665  18A9                     	retlw	13
   666  18A9  340D               	retlw	13
   667  18AA  340D               	retlw	79	;'O'
   668  18AB  344F               	retlw	100	;'d'
   669  18AC  3464               	retlw	97	;'a'
   670  18AD  3461               	retlw	98	;'b'
   671  18AE  3462               	retlw	114	;'r'
   672  18AF  3472               	retlw	97	;'a'
   673  18B0  3461               	retlw	108	;'l'
   674  18B1  346C               	retlw	105	;'i'
   675  18B2  3469               	retlw	32	;' '
   676  18B3  3420               	retlw	115	;'s'
   677  18B4  3473               	retlw	116	;'t'
   678  18B5  3474               	retlw	101	;'e'
   679  18B6  3465               	retlw	32	;' '
   680  18B7  3420               	retlw	111	;'o'
   681  18B8  346F               	retlw	100	;'d'
   682  18B9  3464               	retlw	117	;'u'
   683  18BA  3475               	retlw	122	;'z'
   684  18BB  347A               	retlw	105	;'i'
   685  18BC  3469               	retlw	109	;'m'
   686  18BD  346D               	retlw	97	;'a'
   687  18BE  3461               	retlw	110	;'n'
   688  18BF  346E               	retlw	106	;'j'
   689  18C0  346A               	retlw	101	;'e'
   690  18C1  3465               	retlw	33	;'!'
   691  18C2  3421               	retlw	0
   692  18C3  3400               psect	stringtext
   693                           	
   694                           STR_30:	
   695  18C4                     	retlw	13
   696  18C4  340D               	retlw	13
   697  18C5  340D               	retlw	79	;'O'
   698  18C6  344F               	retlw	100	;'d'
   699  18C7  3464               	retlw	97	;'a'
   700  18C8  3461               	retlw	98	;'b'
   701  18C9  3462               	retlw	114	;'r'
   702  18CA  3472               	retlw	97	;'a'
   703  18CB  3461               	retlw	108	;'l'
   704  18CC  346C               	retlw	105	;'i'
   705  18CD  3469               	retlw	32	;' '
   706  18CE  3420               	retlw	115	;'s'
   707  18CF  3473               	retlw	116	;'t'
   708  18D0  3474               	retlw	101	;'e'
   709  18D1  3465               	retlw	32	;' '
   710  18D2  3420               	retlw	100	;'d'
   711  18D3  3464               	retlw	105	;'i'
   712  18D4  3469               	retlw	106	;'j'
   713  18D5  346A               	retlw	101	;'e'
   714  18D6  3465               	retlw	108	;'l'
   715  18D7  346C               	retlw	106	;'j'
   716  18D8  346A               	retlw	101	;'e'
   717  18D9  3465               	retlw	110	;'n'
   718  18DA  346E               	retlw	106	;'j'
   719  18DB  346A               	retlw	101	;'e'
   720  18DC  3465               	retlw	33	;'!'
   721  18DD  3421               	retlw	0
   722  18DE  3400               psect	stringtext
   723                           	
   724                           STR_9:	
   725  18DF                     	retlw	13
   726  18DF  340D               	retlw	79	;'O'
   727  18E0  344F               	retlw	100	;'d'
   728  18E1  3464               	retlw	97	;'a'
   729  18E2  3461               	retlw	98	;'b'
   730  18E3  3462               	retlw	114	;'r'
   731  18E4  3472               	retlw	97	;'a'
   732  18E5  3461               	retlw	108	;'l'
   733  18E6  346C               	retlw	105	;'i'
   734  18E7  3469               	retlw	32	;' '
   735  18E8  3420               	retlw	115	;'s'
   736  18E9  3473               	retlw	116	;'t'
   737  18EA  3474               	retlw	101	;'e'
   738  18EB  3465               	retlw	32	;' '
   739  18EC  3420               	retlw	115	;'s'
   740  18ED  3473               	retlw	97	;'a'
   741  18EE  3461               	retlw	98	;'b'
   742  18EF  3462               	retlw	105	;'i'
   743  18F0  3469               	retlw	114	;'r'
   744  18F1  3472               	retlw	97	;'a'
   745  18F2  3461               	retlw	110	;'n'
   746  18F3  346E               	retlw	106	;'j'
   747  18F4  346A               	retlw	101	;'e'
   748  18F5  3465               	retlw	33	;'!'
   749  18F6  3421               	retlw	0
   750  18F7  3400               psect	stringtext
   751                           	
   752                           STR_23:	
   753  18F8                     	retlw	13
   754  18F8  340D               	retlw	13
   755  18F9  340D               	retlw	79	;'O'
   756  18FA  344F               	retlw	100	;'d'
   757  18FB  3464               	retlw	97	;'a'
   758  18FC  3461               	retlw	98	;'b'
   759  18FD  3462               	retlw	114	;'r'
   760  18FE  3472               	retlw	97	;'a'
   761  18FF  3461               	retlw	108	;'l'
   762  1900  346C               	retlw	105	;'i'
   763  1901  3469               	retlw	32	;' '
   764  1902  3420               	retlw	115	;'s'
   765  1903  3473               	retlw	116	;'t'
   766  1904  3474               	retlw	101	;'e'
   767  1905  3465               	retlw	32	;' '
   768  1906  3420               	retlw	109	;'m'
   769  1907  346D               	retlw	110	;'n'
   770  1908  346E               	retlw	111	;'o'
   771  1909  346F               	retlw	122	;'z'
   772  190A  347A               	retlw	101	;'e'
   773  190B  3465               	retlw	110	;'n'
   774  190C  346E               	retlw	106	;'j'
   775  190D  346A               	retlw	101	;'e'
   776  190E  3465               	retlw	33	;'!'
   777  190F  3421               	retlw	0
   778  1910  3400               psect	stringtext
   779                           	
   780                           STR_12:	
   781  1911                     	retlw	13
   782  1911  340D               	retlw	85	;'U'
   783  1912  3455               	retlw	110	;'n'
   784  1913  346E               	retlw	101	;'e'
   785  1914  3465               	retlw	115	;'s'
   786  1915  3473               	retlw	105	;'i'
   787  1916  3469               	retlw	116	;'t'
   788  1917  3474               	retlw	101	;'e'
   789  1918  3465               	retlw	32	;' '
   790  1919  3420               	retlw	100	;'d'
   791  191A  3464               	retlw	114	;'r'
   792  191B  3472               	retlw	117	;'u'
   793  191C  3475               	retlw	103	;'g'
   794  191D  3467               	retlw	105	;'i'
   795  191E  3469               	retlw	32	;' '
   796  191F  3420               	retlw	98	;'b'
   797  1920  3462               	retlw	114	;'r'
   798  1921  3472               	retlw	111	;'o'
   799  1922  346F               	retlw	106	;'j'
   800  1923  346A               	retlw	58	;':'
   801  1924  343A               	retlw	32	;' '
   802  1925  3420               	retlw	0
   803  1926  3400               psect	stringtext
   804                           	
   805                           STR_11:	
   806  1927                     	retlw	13
   807  1927  340D               	retlw	13
   808  1928  340D               	retlw	85	;'U'
   809  1929  3455               	retlw	110	;'n'
   810  192A  346E               	retlw	101	;'e'
   811  192B  3465               	retlw	115	;'s'
   812  192C  3473               	retlw	105	;'i'
   813  192D  3469               	retlw	116	;'t'
   814  192E  3474               	retlw	101	;'e'
   815  192F  3465               	retlw	32	;' '
   816  1930  3420               	retlw	112	;'p'
   817  1931  3470               	retlw	114	;'r'
   818  1932  3472               	retlw	118	;'v'
   819  1933  3476               	retlw	105	;'i'
   820  1934  3469               	retlw	32	;' '
   821  1935  3420               	retlw	98	;'b'
   822  1936  3462               	retlw	114	;'r'
   823  1937  3472               	retlw	111	;'o'
   824  1938  346F               	retlw	106	;'j'
   825  1939  346A               	retlw	58	;':'
   826  193A  343A               	retlw	32	;' '
   827  193B  3420               	retlw	0
   828  193C  3400               psect	stringtext
   829                           	
   830                           STR_14:	
   831  193D                     	retlw	13
   832  193D  340D               	retlw	83	;'S'
   833  193E  3453               	retlw	97	;'a'
   834  193F  3461               	retlw	98	;'b'
   835  1940  3462               	retlw	105	;'i'
   836  1941  3469               	retlw	114	;'r'
   837  1942  3472               	retlw	97	;'a'
   838  1943  3461               	retlw	110	;'n'
   839  1944  346E               	retlw	106	;'j'
   840  1945  346A               	retlw	101	;'e'
   841  1946  3465               	retlw	32	;' '
   842  1947  3420               	retlw	45	;'-'
   843  1948  342D               	retlw	62	;'>'
   844  1949  343E               	retlw	32	;' '
   845  194A  3420               	retlw	0
   846  194B  3400               psect	stringtext
   847                           	
   848                           STR_28:	
   849  194C                     	retlw	13
   850  194C  340D               	retlw	80	;'P'
   851  194D  3450               	retlw	114	;'r'
   852  194E  3472               	retlw	111	;'o'
   853  194F  346F               	retlw	105	;'i'
   854  1950  3469               	retlw	122	;'z'
   855  1951  347A               	retlw	118	;'v'
   856  1952  3476               	retlw	111	;'o'
   857  1953  346F               	retlw	100	;'d'
   858  1954  3464               	retlw	32	;' '
   859  1955  3420               	retlw	45	;'-'
   860  1956  342D               	retlw	62	;'>'
   861  1957  343E               	retlw	32	;' '
   862  1958  3420               	retlw	0
   863  1959  3400               psect	stringtext
   864                           	
   865                           STR_35:	
   866  195A                     	retlw	13
   867  195A  340D               	retlw	75	;'K'
   868  195B  344B               	retlw	111	;'o'
   869  195C  346F               	retlw	108	;'l'
   870  195D  346C               	retlw	105	;'i'
   871  195E  3469               	retlw	99	;'c'
   872  195F  3463               	retlw	110	;'n'
   873  1960  346E               	retlw	105	;'i'
   874  1961  3469               	retlw	107	;'k'
   875  1962  346B               	retlw	32	;' '
   876  1963  3420               	retlw	45	;'-'
   877  1964  342D               	retlw	62	;'>'
   878  1965  343E               	retlw	32	;' '
   879  1966  3420               	retlw	0
   880  1967  3400               psect	stringtext
   881                           	
   882                           STR_4:	
   883  1968                     	retlw	13
   884  1968  340D               	retlw	50	;'2'
   885  1969  3432               	retlw	46	;'.'
   886  196A  342E               	retlw	79	;'O'
   887  196B  344F               	retlw	100	;'d'
   888  196C  3464               	retlw	117	;'u'
   889  196D  3475               	retlw	122	;'z'
   890  196E  347A               	retlw	105	;'i'
   891  196F  3469               	retlw	109	;'m'
   892  1970  346D               	retlw	97	;'a'
   893  1971  3461               	retlw	110	;'n'
   894  1972  346E               	retlw	106	;'j'
   895  1973  346A               	retlw	101	;'e'
   896  1974  3465               	retlw	0
   897  1975  3400               psect	stringtext
   898                           	
   899                           STR_6:	
   900  1976                     	retlw	13
   901  1976  340D               	retlw	52	;'4'
   902  1977  3434               	retlw	46	;'.'
   903  1978  342E               	retlw	68	;'D'
   904  1979  3444               	retlw	105	;'i'
   905  197A  3469               	retlw	106	;'j'
   906  197B  346A               	retlw	101	;'e'
   907  197C  3465               	retlw	108	;'l'
   908  197D  346C               	retlw	106	;'j'
   909  197E  346A               	retlw	101	;'e'
   910  197F  3465               	retlw	110	;'n'
   911  1980  346E               	retlw	106	;'j'
   912  1981  346A               	retlw	101	;'e'
   913  1982  3465               	retlw	0
   914  1983  3400               psect	stringtext
   915                           	
   916                           STR_31:	
   917  1984                     	retlw	68	;'D'
   918  1984  3444               	retlw	105	;'i'
   919  1985  3469               	retlw	106	;'j'
   920  1986  346A               	retlw	101	;'e'
   921  1987  3465               	retlw	108	;'l'
   922  1988  346C               	retlw	106	;'j'
   923  1989  346A               	retlw	101	;'e'
   924  198A  3465               	retlw	110	;'n'
   925  198B  346E               	retlw	106	;'j'
   926  198C  346A               	retlw	101	;'e'
   927  198D  3465               	retlw	58	;':'
   928  198E  343A               	retlw	32	;' '
   929  198F  3420               	retlw	0
   930  1990  3400               psect	stringtext
   931                           	
   932                           STR_21:	
   933  1991                     	retlw	13
   934  1991  340D               	retlw	82	;'R'
   935  1992  3452               	retlw	97	;'a'
   936  1993  3461               	retlw	122	;'z'
   937  1994  347A               	retlw	108	;'l'
   938  1995  346C               	retlw	105	;'i'
   939  1996  3469               	retlw	107	;'k'
   940  1997  346B               	retlw	97	;'a'
   941  1998  3461               	retlw	32	;' '
   942  1999  3420               	retlw	45	;'-'
   943  199A  342D               	retlw	62	;'>'
   944  199B  343E               	retlw	32	;' '
   945  199C  3420               	retlw	0
   946  199D  3400               psect	stringtext
   947                           	
   948                           STR_3:	
   949  199E                     	retlw	13
   950  199E  340D               	retlw	49	;'1'
   951  199F  3431               	retlw	46	;'.'
   952  19A0  342E               	retlw	83	;'S'
   953  19A1  3453               	retlw	97	;'a'
   954  19A2  3461               	retlw	98	;'b'
   955  19A3  3462               	retlw	105	;'i'
   956  19A4  3469               	retlw	114	;'r'
   957  19A5  3472               	retlw	97	;'a'
   958  19A6  3461               	retlw	110	;'n'
   959  19A7  346E               	retlw	106	;'j'
   960  19A8  346A               	retlw	101	;'e'
   961  19A9  3465               	retlw	0
   962  19AA  3400               psect	stringtext
   963                           	
   964                           STR_10:	
   965  19AB                     	retlw	83	;'S'
   966  19AB  3453               	retlw	97	;'a'
   967  19AC  3461               	retlw	98	;'b'
   968  19AD  3462               	retlw	105	;'i'
   969  19AE  3469               	retlw	114	;'r'
   970  19AF  3472               	retlw	97	;'a'
   971  19B0  3461               	retlw	110	;'n'
   972  19B1  346E               	retlw	106	;'j'
   973  19B2  346A               	retlw	101	;'e'
   974  19B3  3465               	retlw	58	;':'
   975  19B4  343A               	retlw	32	;' '
   976  19B5  3420               	retlw	0
   977  19B6  3400               psect	stringtext
   978                           	
   979                           STR_17:	
   980  19B7                     	retlw	79	;'O'
   981  19B7  344F               	retlw	100	;'d'
   982  19B8  3464               	retlw	117	;'u'
   983  19B9  3475               	retlw	122	;'z'
   984  19BA  347A               	retlw	105	;'i'
   985  19BB  3469               	retlw	109	;'m'
   986  19BC  346D               	retlw	97	;'a'
   987  19BD  3461               	retlw	110	;'n'
   988  19BE  346E               	retlw	106	;'j'
   989  19BF  346A               	retlw	101	;'e'
   990  19C0  3465               	retlw	58	;':'
   991  19C1  343A               	retlw	0
   992  19C2  3400               psect	stringtext
   993                           	
   994                           STR_5:	
   995  19C3                     	retlw	13
   996  19C3  340D               	retlw	51	;'3'
   997  19C4  3433               	retlw	46	;'.'
   998  19C5  342E               	retlw	77	;'M'
   999  19C6  344D               	retlw	110	;'n'
  1000  19C7  346E               	retlw	111	;'o'
  1001  19C8  346F               	retlw	122	;'z'
  1002  19C9  347A               	retlw	101	;'e'
  1003  19CA  3465               	retlw	110	;'n'
  1004  19CB  346E               	retlw	106	;'j'
  1005  19CC  346A               	retlw	101	;'e'
  1006  19CD  3465               	retlw	0
  1007  19CE  3400               psect	stringtext
  1008                           	
  1009                           STR_24:	
  1010  19CF                     	retlw	77	;'M'
  1011  19CF  344D               	retlw	110	;'n'
  1012  19D0  346E               	retlw	111	;'o'
  1013  19D1  346F               	retlw	122	;'z'
  1014  19D2  347A               	retlw	101	;'e'
  1015  19D3  3465               	retlw	110	;'n'
  1016  19D4  346E               	retlw	106	;'j'
  1017  19D5  346A               	retlw	101	;'e'
  1018  19D6  3465               	retlw	58	;':'
  1019  19D7  343A               	retlw	32	;' '
  1020  19D8  3420               	retlw	0
  1021  19D9  3400               psect	stringtext
  1022                           	
  1023                           STR_34:	
  1024  19DA                     	retlw	37	;'%'
  1025  19DA  3425               	retlw	100	;'d'
  1026  19DB  3464               	retlw	46	;'.'
  1027  19DC  342E               	retlw	37	;'%'
  1028  19DD  3425               	retlw	100	;'d'
  1029  19DE  3464               	retlw	0
  1030  19DF  3400               psect	stringtext
  1031                           	
  1032                           STR_8:	
  1033  19E0                     	retlw	13
  1034  19E0  340D               	retlw	13
  1035  19E1  340D               	retlw	0
  1036  19E2  3400               psect	stringtext
  1037                           STR_13	equ	STR_34+3
  1038  19DD                     STR_20	equ	STR_34+3
  1039  19DD                     STR_27	equ	STR_34+3
  1040  19DD                     STR_18	equ	STR_11+0
  1041  1927                     STR_25	equ	STR_11+0
  1042  1927                     STR_32	equ	STR_11+0
  1043  1927                     STR_19	equ	STR_12+0
  1044  1911                     STR_26	equ	STR_12+0
  1045  1911                     STR_33	equ	STR_12+0
  1046  1911                     STR_15	equ	STR_8+0
  1047  19E0                     STR_22	equ	STR_8+0
  1048  19E0                     STR_29	equ	STR_8+0
  1049  19E0                     STR_36	equ	STR_8+0
  1050  19E0                     ; #config settings
  1051                           global __CFG_FOSC$HS
  1052                           __CFG_FOSC$HS equ 0x0
  1053  0000                     global __CFG_WDTE$OFF
  1054                           __CFG_WDTE$OFF equ 0x0
  1055  0000                     global __CFG_PWRTE$OFF
  1056                           __CFG_PWRTE$OFF equ 0x0
  1057  0000                     global __CFG_BOREN$ON
  1058                           __CFG_BOREN$ON equ 0x0
  1059  0000                     global __CFG_LVP$OFF
  1060                           __CFG_LVP$OFF equ 0x0
  1061  0000                     global __CFG_CPD$OFF
  1062                           __CFG_CPD$OFF equ 0x0
  1063  0000                     global __CFG_WRT$OFF
  1064                           __CFG_WRT$OFF equ 0x0
  1065  0000                     global __CFG_CP$OFF
  1066                           __CFG_CP$OFF equ 0x0
  1067  0000                     	file	"C:\Users\sabic\AppData\Local\Temp\s7f4."
  1068                           	line	#
  1069                           psect cinit,class=CODE,delta=2
  1070                           global start_initialization
  1071                           start_initialization:
  1072  07EE                     
  1073                           global __initialization
  1074                           __initialization:
  1075  07EE                     psect	dataBANK3,class=BANK3,space=1,noexec
  1076                           global __pdataBANK3
  1077                           __pdataBANK3:
  1078  01C2                     	file	"ROKZ1.c"
  1079                           	line	166
  1080                           main@F1119:
  1081  01C2                            ds      10
  1082  01C2                     
  1083                           psect	dataBANK3
  1084                           	file	"ROKZ1.c"
  1085                           	line	165
  1086                           main@F1117:
  1087  01CC                            ds      10
  1088  01CC                     
  1089                           psect	dataBANK3
  1090                           	file	"ROKZ1.c"
  1091                           	line	295
  1092                           main@F1135:
  1093  01D6                            ds      1
  1094  01D6                     
  1095                           	file	"C:\Users\sabic\AppData\Local\Temp\s7f4."
  1096                           	line	#
  1097                           global btemp
  1098                           psect inittext,class=CODE,delta=2
  1099                           global init_fetch0,btemp
  1100                           ;	Called with low address in FSR and high address in W
  1101                           init_fetch0:
  1102  1F8D                     	movf btemp,w
  1103  1F8D  087E               	movwf pclath
  1104  1F8E  008A               	movf btemp+1,w
  1105  1F8F  087F               	movwf pc
  1106  1F90  0082               global init_ram0
  1107                           ;Called with:
  1108                           ;	high address of idata address in btemp 
  1109                           ;	low address of idata address in btemp+1 
  1110                           ;	low address of data in FSR
  1111                           ;	high address + 1 of data in btemp-1
  1112                           init_ram0:
  1113  1F91                     	fcall init_fetch0
  1114  1F91  160A  158A  278D  160A  158A  	movwf indf,f
  1115  1F96  0080               	incf fsr,f
  1116  1F97  0A84               	movf fsr,w
  1117  1F98  0804               	xorwf btemp-1,w
  1118  1F99  067D               	btfsc status,2
  1119  1F9A  1903               	retlw 0
  1120  1F9B  3400               	incf btemp+1,f
  1121  1F9C  0AFF               	btfsc status,2
  1122  1F9D  1903               	incf btemp,f
  1123  1F9E  0AFE               	goto init_ram0
  1124  1F9F  2F91               ; Initialize objects allocated to BANK3
  1125                           psect cinit,class=CODE,delta=2,merge=1
  1126                           global init_ram0, __pidataBANK3
  1127                           	bsf	status, 7	;select IRP bank2
  1128  07EE  1783               	movlw low(__pdataBANK3+21)
  1129  07EF  30D7               	movwf btemp-1,f
  1130  07F0  00FD               	movlw high(__pidataBANK3)
  1131  07F1  301F               	movwf btemp,f
  1132  07F2  00FE               	movlw low(__pidataBANK3)
  1133  07F3  30A0               	movwf btemp+1,f
  1134  07F4  00FF               	movlw low(__pdataBANK3)
  1135  07F5  30C2               	movwf fsr,f
  1136  07F6  0084               	fcall init_ram0
  1137  07F7  160A  158A  2791  120A  118A  psect cinit,class=CODE,delta=2,merge=1
  1138                           global end_of_initialization,__end_of__initialization
  1139                           
  1140                           ;End of C runtime variable initialization code
  1141                           
  1142                           end_of_initialization:
  1143  07FC                     __end_of__initialization:
  1144  07FC                     clrf status
  1145  07FC  0183               ljmp _main	;jump to C main() function
  1146  07FD  160A  118A  2D54   psect	cstackBANK3,class=BANK3,space=1,noexec
  1147                           global __pcstackBANK3
  1148                           __pcstackBANK3:
  1149  0190                     	global	main@DISPLEJ
  1150                           main@DISPLEJ:	; 10 bytes @ 0x0
  1151  0190                     	ds	10
  1152  0190                     	global	main@a1
  1153                           main@a1:	; 2 bytes @ 0xA
  1154  019A                     	ds	2
  1155  019A                     	global	main@a3
  1156                           main@a3:	; 2 bytes @ 0xC
  1157  019C                     	ds	2
  1158  019C                     	global	main@r1
  1159                           main@r1:	; 2 bytes @ 0xE
  1160  019E                     	ds	2
  1161  019E                     	global	main@r3
  1162                           main@r3:	; 2 bytes @ 0x10
  1163  01A0                     	ds	2
  1164  01A0                     	global	main@p1
  1165                           main@p1:	; 2 bytes @ 0x12
  1166  01A2                     	ds	2
  1167  01A2                     	global	main@p3
  1168                           main@p3:	; 2 bytes @ 0x14
  1169  01A4                     	ds	2
  1170  01A4                     	global	main@m
  1171                           main@m:	; 2 bytes @ 0x16
  1172  01A6                     	ds	2
  1173  01A6                     	global	main@opcija
  1174                           main@opcija:	; 2 bytes @ 0x18
  1175  01A8                     	ds	2
  1176  01A8                     	global	main@a2
  1177                           main@a2:	; 2 bytes @ 0x1A
  1178  01AA                     	ds	2
  1179  01AA                     	global	main@a4
  1180                           main@a4:	; 2 bytes @ 0x1C
  1181  01AC                     	ds	2
  1182  01AC                     	global	main@r2
  1183                           main@r2:	; 2 bytes @ 0x1E
  1184  01AE                     	ds	2
  1185  01AE                     	global	main@r4
  1186                           main@r4:	; 2 bytes @ 0x20
  1187  01B0                     	ds	2
  1188  01B0                     	global	main@p2
  1189                           main@p2:	; 2 bytes @ 0x22
  1190  01B2                     	ds	2
  1191  01B2                     	global	main@p4
  1192                           main@p4:	; 2 bytes @ 0x24
  1193  01B4                     	ds	2
  1194  01B4                     	global	main@n
  1195                           main@n:	; 2 bytes @ 0x26
  1196  01B6                     	ds	2
  1197  01B6                     	global	main@k2
  1198                           main@k2:	; 2 bytes @ 0x28
  1199  01B8                     	ds	2
  1200  01B8                     	global	main@k4
  1201                           main@k4:	; 2 bytes @ 0x2A
  1202  01BA                     	ds	2
  1203  01BA                     	global	main@s
  1204                           main@s:	; 2 bytes @ 0x2C
  1205  01BC                     	ds	2
  1206  01BC                     	global	main@r
  1207                           main@r:	; 2 bytes @ 0x2E
  1208  01BE                     	ds	2
  1209  01BE                     	global	main@p
  1210                           main@p:	; 2 bytes @ 0x30
  1211  01C0                     	ds	2
  1212  01C0                     psect	cstackBANK1,class=BANK1,space=1,noexec
  1213                           global __pcstackBANK1
  1214                           __pcstackBANK1:
  1215  00A0                     	global	main@buffer2
  1216                           main@buffer2:	; 20 bytes @ 0x0
  1217  00A0                     	ds	20
  1218  00A0                     	global	main@buffer3
  1219                           main@buffer3:	; 20 bytes @ 0x14
  1220  00B4                     	ds	20
  1221  00B4                     	global	main@buffer4
  1222                           main@buffer4:	; 20 bytes @ 0x28
  1223  00C8                     	ds	20
  1224  00C8                     	global	main@broj1
  1225                           main@broj1:	; 2 bytes @ 0x3C
  1226  00DC                     	ds	2
  1227  00DC                     	global	main@broj2
  1228                           main@broj2:	; 2 bytes @ 0x3E
  1229  00DE                     	ds	2
  1230  00DE                     	global	main@broj1_150
  1231                           main@broj1_150:	; 2 bytes @ 0x40
  1232  00E0                     	ds	2
  1233  00E0                     	global	main@broj2_151
  1234                           main@broj2_151:	; 2 bytes @ 0x42
  1235  00E2                     	ds	2
  1236  00E2                     	global	main@broj1_165
  1237                           main@broj1_165:	; 2 bytes @ 0x44
  1238  00E4                     	ds	2
  1239  00E4                     	global	main@broj2_166
  1240                           main@broj2_166:	; 2 bytes @ 0x46
  1241  00E6                     	ds	2
  1242  00E6                     	global	main@d1
  1243                           main@d1:	; 2 bytes @ 0x48
  1244  00E8                     	ds	2
  1245  00E8                     	global	main@d2
  1246                           main@d2:	; 2 bytes @ 0x4A
  1247  00EA                     	ds	2
  1248  00EA                     	global	main@k
  1249                           main@k:	; 4 bytes @ 0x4C
  1250  00EC                     	ds	4
  1251  00EC                     psect	cstackCOMMON,class=COMMON,space=1,noexec
  1252                           global __pcstackCOMMON
  1253                           __pcstackCOMMON:
  1254  0070                     ?_UART_Init:	; 1 bytes @ 0x0
  1255  0070                     ??_UART_Init:	; 1 bytes @ 0x0
  1256  0070                     ?_UART_Send_Char:	; 1 bytes @ 0x0
  1257  0070                     ??_UART_Send_Char:	; 1 bytes @ 0x0
  1258  0070                     ?_UART_Get_Char:	; 1 bytes @ 0x0
  1259  0070                     ??_UART_Get_Char:	; 1 bytes @ 0x0
  1260  0070                     ?_Lcd_Port:	; 1 bytes @ 0x0
  1261  0070                     ??_Lcd_Port:	; 1 bytes @ 0x0
  1262  0070                     ?_Lcd_Cmd:	; 1 bytes @ 0x0
  1263  0070                     ?_Lcd_Clear:	; 1 bytes @ 0x0
  1264  0070                     ?_Lcd_Init:	; 1 bytes @ 0x0
  1265  0070                     ?_Lcd_Write_Char:	; 1 bytes @ 0x0
  1266  0070                     ?_main:	; 1 bytes @ 0x0
  1267  0070                     	global	?__Umul8_16
  1268                           ?__Umul8_16:	; 2 bytes @ 0x0
  1269  0070                     	global	?___wmul
  1270                           ?___wmul:	; 2 bytes @ 0x0
  1271  0070                     	global	?___awdiv
  1272                           ?___awdiv:	; 2 bytes @ 0x0
  1273  0070                     	global	?___awmod
  1274                           ?___awmod:	; 2 bytes @ 0x0
  1275  0070                     	global	?___lwdiv
  1276                           ?___lwdiv:	; 2 bytes @ 0x0
  1277  0070                     	global	?___fldiv
  1278                           ?___fldiv:	; 4 bytes @ 0x0
  1279  0070                     	global	?___xxtofl
  1280                           ?___xxtofl:	; 4 bytes @ 0x0
  1281  0070                     	global	UART_Send_Char@a
  1282                           UART_Send_Char@a:	; 1 bytes @ 0x0
  1283  0070                     	global	Lcd_Port@a
  1284                           Lcd_Port@a:	; 1 bytes @ 0x0
  1285  0070                     	global	__Umul8_16@multiplicand
  1286                           __Umul8_16@multiplicand:	; 1 bytes @ 0x0
  1287  0070                     	global	___wmul@multiplier
  1288                           ___wmul@multiplier:	; 2 bytes @ 0x0
  1289  0070                     	global	___awdiv@divisor
  1290                           ___awdiv@divisor:	; 2 bytes @ 0x0
  1291  0070                     	global	___awmod@divisor
  1292                           ___awmod@divisor:	; 2 bytes @ 0x0
  1293  0070                     	global	___lwdiv@divisor
  1294                           ___lwdiv@divisor:	; 2 bytes @ 0x0
  1295  0070                     	global	___fldiv@a
  1296                           ___fldiv@a:	; 4 bytes @ 0x0
  1297  0070                     	global	___xxtofl@val
  1298                           ___xxtofl@val:	; 4 bytes @ 0x0
  1299  0070                     	ds	1
  1300  0070                     ?_putch:	; 1 bytes @ 0x1
  1301  0071                     ??_Lcd_Cmd:	; 1 bytes @ 0x1
  1302  0071                     ??_Lcd_Write_Char:	; 1 bytes @ 0x1
  1303  0071                     	global	putch@a
  1304                           putch@a:	; 1 bytes @ 0x1
  1305  0071                     	ds	1
  1306  0071                     ??__Umul8_16:	; 1 bytes @ 0x2
  1307  0072                     ??_putch:	; 1 bytes @ 0x2
  1308  0072                     	global	Lcd_Write_Char@temp
  1309                           Lcd_Write_Char@temp:	; 1 bytes @ 0x2
  1310  0072                     	global	___wmul@multiplicand
  1311                           ___wmul@multiplicand:	; 2 bytes @ 0x2
  1312  0072                     	global	___awdiv@dividend
  1313                           ___awdiv@dividend:	; 2 bytes @ 0x2
  1314  0072                     	global	___awmod@dividend
  1315                           ___awmod@dividend:	; 2 bytes @ 0x2
  1316  0072                     	global	___lwdiv@dividend
  1317                           ___lwdiv@dividend:	; 2 bytes @ 0x2
  1318  0072                     	ds	1
  1319  0072                     	global	Lcd_Cmd@a
  1320                           Lcd_Cmd@a:	; 1 bytes @ 0x3
  1321  0073                     	global	Lcd_Write_Char@y
  1322                           Lcd_Write_Char@y:	; 1 bytes @ 0x3
  1323  0073                     	ds	1
  1324  0073                     ??_Lcd_Clear:	; 1 bytes @ 0x4
  1325  0074                     ?_Lcd_Set_Cursor:	; 1 bytes @ 0x4
  1326  0074                     ??_Lcd_Init:	; 1 bytes @ 0x4
  1327  0074                     ??___wmul:	; 1 bytes @ 0x4
  1328  0074                     ??___awdiv:	; 1 bytes @ 0x4
  1329  0074                     ??___awmod:	; 1 bytes @ 0x4
  1330  0074                     ??___lwdiv:	; 1 bytes @ 0x4
  1331  0074                     ??___xxtofl:	; 1 bytes @ 0x4
  1332  0074                     	global	Lcd_Set_Cursor@b
  1333                           Lcd_Set_Cursor@b:	; 1 bytes @ 0x4
  1334  0074                     	global	Lcd_Write_Char@a
  1335                           Lcd_Write_Char@a:	; 1 bytes @ 0x4
  1336  0074                     	global	___wmul@product
  1337                           ___wmul@product:	; 2 bytes @ 0x4
  1338  0074                     	global	__Umul8_16@product
  1339                           __Umul8_16@product:	; 2 bytes @ 0x4
  1340  0074                     	global	___fldiv@b
  1341                           ___fldiv@b:	; 4 bytes @ 0x4
  1342  0074                     	ds	1
  1343  0074                     ??_Lcd_Set_Cursor:	; 1 bytes @ 0x5
  1344  0075                     ?_Lcd_Write_String:	; 1 bytes @ 0x5
  1345  0075                     	global	___awdiv@counter
  1346                           ___awdiv@counter:	; 1 bytes @ 0x5
  1347  0075                     	global	___awmod@counter
  1348                           ___awmod@counter:	; 1 bytes @ 0x5
  1349  0075                     	global	Lcd_Write_String@a
  1350                           Lcd_Write_String@a:	; 2 bytes @ 0x5
  1351  0075                     	global	___lwdiv@quotient
  1352                           ___lwdiv@quotient:	; 2 bytes @ 0x5
  1353  0075                     	ds	1
  1354  0075                     	global	___awdiv@sign
  1355                           ___awdiv@sign:	; 1 bytes @ 0x6
  1356  0076                     	global	___awmod@sign
  1357                           ___awmod@sign:	; 1 bytes @ 0x6
  1358  0076                     	global	__Umul8_16@word_mpld
  1359                           __Umul8_16@word_mpld:	; 2 bytes @ 0x6
  1360  0076                     	ds	1
  1361  0076                     ??_Lcd_Write_String:	; 1 bytes @ 0x7
  1362  0077                     	global	Lcd_Set_Cursor@a
  1363                           Lcd_Set_Cursor@a:	; 1 bytes @ 0x7
  1364  0077                     	global	___lwdiv@counter
  1365                           ___lwdiv@counter:	; 1 bytes @ 0x7
  1366  0077                     	global	___awdiv@quotient
  1367                           ___awdiv@quotient:	; 2 bytes @ 0x7
  1368  0077                     	ds	1
  1369  0077                     ??___fldiv:	; 1 bytes @ 0x8
  1370  0078                     	global	?___lwmod
  1371                           ?___lwmod:	; 2 bytes @ 0x8
  1372  0078                     	global	Lcd_Set_Cursor@z
  1373                           Lcd_Set_Cursor@z:	; 1 bytes @ 0x8
  1374  0078                     	global	___xxtofl@sign
  1375                           ___xxtofl@sign:	; 1 bytes @ 0x8
  1376  0078                     	global	__Umul8_16@multiplier
  1377                           __Umul8_16@multiplier:	; 1 bytes @ 0x8
  1378  0078                     	global	___lwmod@divisor
  1379                           ___lwmod@divisor:	; 2 bytes @ 0x8
  1380  0078                     	ds	1
  1381  0078                     ??___flmul:	; 1 bytes @ 0x9
  1382  0079                     	global	Lcd_Set_Cursor@y
  1383                           Lcd_Set_Cursor@y:	; 1 bytes @ 0x9
  1384  0079                     	global	___xxtofl@exp
  1385                           ___xxtofl@exp:	; 1 bytes @ 0x9
  1386  0079                     	ds	1
  1387  0079                     	global	Lcd_Set_Cursor@temp
  1388                           Lcd_Set_Cursor@temp:	; 1 bytes @ 0xA
  1389  007A                     	global	Lcd_Write_String@i
  1390                           Lcd_Write_String@i:	; 2 bytes @ 0xA
  1391  007A                     	global	___lwmod@dividend
  1392                           ___lwmod@dividend:	; 2 bytes @ 0xA
  1393  007A                     	global	___xxtofl@arg
  1394                           ___xxtofl@arg:	; 4 bytes @ 0xA
  1395  007A                     	ds	2
  1396  007A                     ??___lwmod:	; 1 bytes @ 0xC
  1397  007C                     	ds	1
  1398  007C                     	global	___lwmod@counter
  1399                           ___lwmod@counter:	; 1 bytes @ 0xD
  1400  007D                     	ds	1
  1401  007D                     psect	cstackBANK0,class=BANK0,space=1,noexec
  1402                           global __pcstackBANK0
  1403                           __pcstackBANK0:
  1404  0020                     	global	?__doprnt
  1405                           ?__doprnt:	; 2 bytes @ 0x0
  1406  0020                     	global	?___fladd
  1407                           ?___fladd:	; 4 bytes @ 0x0
  1408  0020                     	global	?___flmul
  1409                           ?___flmul:	; 4 bytes @ 0x0
  1410  0020                     	global	__doprnt@f
  1411                           __doprnt@f:	; 2 bytes @ 0x0
  1412  0020                     	global	___fladd@b
  1413                           ___fladd@b:	; 4 bytes @ 0x0
  1414  0020                     	global	___fldiv@rem
  1415                           ___fldiv@rem:	; 4 bytes @ 0x0
  1416  0020                     	global	___flmul@b
  1417                           ___flmul@b:	; 4 bytes @ 0x0
  1418  0020                     	ds	2
  1419  0020                     	global	__doprnt@ap
  1420                           __doprnt@ap:	; 1 bytes @ 0x2
  1421  0022                     	ds	1
  1422  0022                     ??__doprnt:	; 1 bytes @ 0x3
  1423  0023                     	ds	1
  1424  0023                     	global	___fldiv@sign
  1425                           ___fldiv@sign:	; 1 bytes @ 0x4
  1426  0024                     	global	___fladd@a
  1427                           ___fladd@a:	; 4 bytes @ 0x4
  1428  0024                     	global	___flmul@a
  1429                           ___flmul@a:	; 4 bytes @ 0x4
  1430  0024                     	ds	1
  1431  0024                     	global	___fldiv@new_exp
  1432                           ___fldiv@new_exp:	; 2 bytes @ 0x5
  1433  0025                     	ds	2
  1434  0025                     	global	__doprnt@flag
  1435                           __doprnt@flag:	; 1 bytes @ 0x7
  1436  0027                     	global	___fldiv@grs
  1437                           ___fldiv@grs:	; 4 bytes @ 0x7
  1438  0027                     	ds	1
  1439  0027                     ??___fladd:	; 1 bytes @ 0x8
  1440  0028                     	global	__doprnt@prec
  1441                           __doprnt@prec:	; 1 bytes @ 0x8
  1442  0028                     	global	___flmul@sign
  1443                           ___flmul@sign:	; 1 bytes @ 0x8
  1444  0028                     	ds	1
  1445  0028                     	global	__doprnt@val
  1446                           __doprnt@val:	; 2 bytes @ 0x9
  1447  0029                     	global	___flmul@grs
  1448                           ___flmul@grs:	; 4 bytes @ 0x9
  1449  0029                     	ds	2
  1450  0029                     	global	__doprnt@c
  1451                           __doprnt@c:	; 1 bytes @ 0xB
  1452  002B                     	global	___fldiv@bexp
  1453                           ___fldiv@bexp:	; 1 bytes @ 0xB
  1454  002B                     	ds	1
  1455  002B                     	global	__doprnt@pb
  1456                           __doprnt@pb:	; 1 bytes @ 0xC
  1457  002C                     	global	___fldiv@aexp
  1458                           ___fldiv@aexp:	; 1 bytes @ 0xC
  1459  002C                     	ds	1
  1460  002C                     	global	?_printf
  1461                           ?_printf:	; 2 bytes @ 0xD
  1462  002D                     	global	?_sprintf
  1463                           ?_sprintf:	; 2 bytes @ 0xD
  1464  002D                     	global	___flmul@aexp
  1465                           ___flmul@aexp:	; 1 bytes @ 0xD
  1466  002D                     	global	printf@f
  1467                           printf@f:	; 2 bytes @ 0xD
  1468  002D                     	global	sprintf@f
  1469                           sprintf@f:	; 2 bytes @ 0xD
  1470  002D                     	ds	1
  1471  002D                     	global	___flmul@bexp
  1472                           ___flmul@bexp:	; 1 bytes @ 0xE
  1473  002E                     	ds	1
  1474  002E                     ??_printf:	; 1 bytes @ 0xF
  1475  002F                     	global	___flmul@prod
  1476                           ___flmul@prod:	; 4 bytes @ 0xF
  1477  002F                     	ds	1
  1478  002F                     	global	printf@ap
  1479                           printf@ap:	; 1 bytes @ 0x10
  1480  0030                     	ds	1
  1481  0030                     	global	printf@pb
  1482                           printf@pb:	; 2 bytes @ 0x11
  1483  0031                     	ds	2
  1484  0031                     ??_sprintf:	; 1 bytes @ 0x13
  1485  0033                     	global	___flmul@temp
  1486                           ___flmul@temp:	; 2 bytes @ 0x13
  1487  0033                     	ds	1
  1488  0033                     	global	___fladd@signs
  1489                           ___fladd@signs:	; 1 bytes @ 0x14
  1490  0034                     	global	sprintf@ap
  1491                           sprintf@ap:	; 1 bytes @ 0x14
  1492  0034                     	ds	1
  1493  0034                     	global	?___fltol
  1494                           ?___fltol:	; 4 bytes @ 0x15
  1495  0035                     	global	___fladd@aexp
  1496                           ___fladd@aexp:	; 1 bytes @ 0x15
  1497  0035                     	global	sprintf@wh
  1498                           sprintf@wh:	; 1 bytes @ 0x15
  1499  0035                     	global	___fltol@f1
  1500                           ___fltol@f1:	; 4 bytes @ 0x15
  1501  0035                     	ds	1
  1502  0035                     	global	___fladd@bexp
  1503                           ___fladd@bexp:	; 1 bytes @ 0x16
  1504  0036                     	global	sprintf@pb
  1505                           sprintf@pb:	; 2 bytes @ 0x16
  1506  0036                     	ds	1
  1507  0036                     	global	___fladd@grs
  1508                           ___fladd@grs:	; 1 bytes @ 0x17
  1509  0037                     	ds	2
  1510  0037                     ??___fltol:	; 1 bytes @ 0x19
  1511  0039                     	ds	5
  1512  0039                     	global	___fltol@sign1
  1513                           ___fltol@sign1:	; 1 bytes @ 0x1E
  1514  003E                     	ds	1
  1515  003E                     	global	___fltol@exp1
  1516                           ___fltol@exp1:	; 1 bytes @ 0x1F
  1517  003F                     	ds	1
  1518  003F                     ??_main:	; 1 bytes @ 0x20
  1519  0040                     	ds	4
  1520  0040                     	global	main@DISPLEJ1
  1521                           main@DISPLEJ1:	; 10 bytes @ 0x24
  1522  0044                     	ds	10
  1523  0044                     	global	main@buffer1
  1524                           main@buffer1:	; 20 bytes @ 0x2E
  1525  004E                     	ds	20
  1526  004E                     	global	main@k1
  1527                           main@k1:	; 4 bytes @ 0x42
  1528  0062                     	ds	4
  1529  0062                     	global	main@k3
  1530                           main@k3:	; 4 bytes @ 0x46
  1531  0066                     	ds	4
  1532  0066                     	global	main@minus
  1533                           main@minus:	; 1 bytes @ 0x4A
  1534  006A                     	ds	1
  1535  006A                     ;!
  1536                           ;!Data Sizes:
  1537                           ;!    Strings     455
  1538                           ;!    Constant    10
  1539                           ;!    Data        21
  1540                           ;!    BSS         0
  1541                           ;!    Persistent  0
  1542                           ;!    Stack       0
  1543                           ;!
  1544                           ;!Auto Spaces:
  1545                           ;!    Space          Size  Autos    Used
  1546                           ;!    COMMON           14     14      14
  1547                           ;!    BANK0            80     75      75
  1548                           ;!    BANK1            80     80      80
  1549                           ;!    BANK3            96     50      71
  1550                           ;!    BANK2            96      0       0
  1551                           
  1552                           ;!
  1553                           ;!Pointer List with Targets:
  1554                           ;!
  1555                           ;!    sprintf@f	PTR const unsigned char  size(2) Largest target is 6
  1556                           ;!		 -> STR_34(CODE[6]), STR_27(CODE[3]), STR_20(CODE[3]), STR_13(CODE[3]), 
  1557                           ;!
  1558                           ;!    sprintf@ap	PTR void [1] size(1) Largest target is 2
  1559                           ;!		 -> ?_sprintf(BANK0[2]), ?_printf(BANK0[2]), 
  1560                           ;!
  1561                           ;!    sprintf@wh	PTR unsigned char  size(1) Largest target is 20
  1562                           ;!		 -> main@buffer4(BANK1[20]), main@buffer3(BANK1[20]), main@buffer2(BANK1[20]), main@
                                 buffer1(BANK0[20]), 
  1563                           ;!
  1564                           ;!    pb.func	PTR FTN(unsigned char ,)void  size(1) Largest target is 1
  1565                           ;!		 -> Absolute function(), putch(), 
  1566                           ;!
  1567                           ;!    pb.ptr	PTR unsigned char  size(1) Largest target is 20
  1568                           ;!		 -> NULL(NULL[0]), main@buffer4(BANK1[20]), main@buffer3(BANK1[20]), main@buffer2(BA
                                 NK1[20]), 
  1569                           ;!		 -> main@buffer1(BANK0[20]), 
  1570                           ;!
  1571                           ;!    printf@f	PTR const unsigned char  size(2) Largest target is 50
  1572                           ;!		 -> STR_36(CODE[3]), STR_35(CODE[14]), main@buffer4(BANK1[20]), STR_33(CODE[22]), 
  1573                           ;!		 -> STR_32(CODE[22]), STR_30(CODE[27]), STR_29(CODE[3]), STR_28(CODE[14]), 
  1574                           ;!		 -> main@buffer3(BANK1[20]), STR_26(CODE[22]), STR_25(CODE[22]), STR_23(CODE[25]), 

  1575                           ;!		 -> STR_22(CODE[3]), STR_21(CODE[13]), main@buffer2(BANK1[20]), STR_19(CODE[22]), 
  1576                           ;!		 -> STR_18(CODE[22]), STR_16(CODE[27]), STR_15(CODE[3]), STR_14(CODE[15]), 
  1577                           ;!		 -> main@buffer1(BANK0[20]), STR_12(CODE[22]), STR_11(CODE[22]), STR_9(CODE[25]), 
  1578                           ;!		 -> STR_8(CODE[3]), STR_7(CODE[42]), STR_6(CODE[14]), STR_5(CODE[12]), 
  1579                           ;!		 -> STR_4(CODE[14]), STR_3(CODE[13]), STR_2(CODE[50]), STR_1(CODE[49]), 
  1580                           ;!
  1581                           ;!    printf@ap	PTR void [1] size(1) Largest target is 2
  1582                           ;!		 -> ?_sprintf(BANK0[2]), ?_printf(BANK0[2]), 
  1583                           ;!
  1584                           ;!    pb.func	PTR FTN(unsigned char ,)void  size(1) Largest target is 1
  1585                           ;!		 -> Absolute function(), putch(), 
  1586                           ;!
  1587                           ;!    pb.ptr	PTR unsigned char  size(1) Largest target is 20
  1588                           ;!		 -> NULL(NULL[0]), main@buffer4(BANK1[20]), main@buffer3(BANK1[20]), main@buffer2(BA
                                 NK1[20]), 
  1589                           ;!		 -> main@buffer1(BANK0[20]), 
  1590                           ;!
  1591                           ;!    _doprnt@ap	PTR PTR void  size(1) Largest target is 1
  1592                           ;!		 -> sprintf@ap(BANK0[1]), printf@ap(BANK0[1]), 
  1593                           ;!
  1594                           ;!    _doprnt@f	PTR const unsigned char  size(2) Largest target is 50
  1595                           ;!		 -> STR_36(CODE[3]), STR_35(CODE[14]), STR_34(CODE[6]), main@buffer4(BANK1[20]), 
  1596                           ;!		 -> STR_33(CODE[22]), STR_32(CODE[22]), STR_30(CODE[27]), STR_29(CODE[3]), 
  1597                           ;!		 -> STR_28(CODE[14]), STR_27(CODE[3]), main@buffer3(BANK1[20]), STR_26(CODE[22]), 
  1598                           ;!		 -> STR_25(CODE[22]), STR_23(CODE[25]), STR_22(CODE[3]), STR_21(CODE[13]), 
  1599                           ;!		 -> STR_20(CODE[3]), main@buffer2(BANK1[20]), STR_19(CODE[22]), STR_18(CODE[22]), 
  1600                           ;!		 -> STR_16(CODE[27]), STR_15(CODE[3]), STR_14(CODE[15]), STR_13(CODE[3]), 
  1601                           ;!		 -> main@buffer1(BANK0[20]), STR_12(CODE[22]), STR_11(CODE[22]), STR_9(CODE[25]), 
  1602                           ;!		 -> STR_8(CODE[3]), STR_7(CODE[42]), STR_6(CODE[14]), STR_5(CODE[12]), 
  1603                           ;!		 -> STR_4(CODE[14]), STR_3(CODE[13]), STR_2(CODE[50]), STR_1(CODE[49]), 
  1604                           ;!
  1605                           ;!    S350__prbuf$func	PTR FTN(unsigned char ,)void  size(1) Largest target is 1
  1606                           ;!		 -> Absolute function(), putch(), 
  1607                           ;!
  1608                           ;!    _doprnt@pb.func	PTR FTN(unsigned char ,)void  size(1) Largest target is 1
  1609                           ;!		 -> Absolute function(), putch(), 
  1610                           ;!
  1611                           ;!    S350__prbuf$ptr	PTR unsigned char  size(1) Largest target is 20
  1612                           ;!		 -> NULL(NULL[0]), main@buffer4(BANK1[20]), main@buffer3(BANK1[20]), main@buffer2(BA
                                 NK1[20]), 
  1613                           ;!		 -> main@buffer1(BANK0[20]), 
  1614                           ;!
  1615                           ;!    _doprnt@pb.ptr	PTR unsigned char  size(1) Largest target is 20
  1616                           ;!		 -> NULL(NULL[0]), main@buffer4(BANK1[20]), main@buffer3(BANK1[20]), main@buffer2(BA
                                 NK1[20]), 
  1617                           ;!		 -> main@buffer1(BANK0[20]), 
  1618                           ;!
  1619                           ;!    _doprnt@pb	PTR struct __prbuf size(1) Largest target is 3
  1620                           ;!		 -> sprintf@pb(BANK0[2]), printf@pb(BANK0[2]), 
  1621                           ;!
  1622                           ;!    Lcd_Write_String@a	PTR unsigned char  size(2) Largest target is 20
  1623                           ;!		 -> main@buffer4(BANK1[20]), STR_31(CODE[13]), main@buffer3(BANK1[20]), STR_24(CODE[
                                 11]), 
  1624                           ;!		 -> main@buffer2(BANK1[20]), STR_17(CODE[12]), main@buffer1(BANK0[20]), STR_10(CODE[
                                 12]), 
  1625                           ;!
  1626                           
  1627                           
  1628                           ;!
  1629                           ;!Critical Paths under _main in COMMON
  1630                           ;!
  1631                           ;!    _main->___flmul
  1632                           ;!    _main->___xxtofl
  1633                           ;!    __doprnt->___lwmod
  1634                           ;!    _putch->_UART_Send_Char
  1635                           ;!    ___lwmod->___lwdiv
  1636                           ;!    ___fltol->___flmul
  1637                           ;!    ___flmul->__Umul8_16
  1638                           ;!    ___fladd->___xxtofl
  1639                           ;!    _Lcd_Write_String->_Lcd_Write_Char
  1640                           ;!    _Lcd_Write_Char->_Lcd_Port
  1641                           ;!    _Lcd_Set_Cursor->_Lcd_Cmd
  1642                           ;!    _Lcd_Init->_Lcd_Cmd
  1643                           ;!    _Lcd_Clear->_Lcd_Cmd
  1644                           ;!    _Lcd_Cmd->_Lcd_Port
  1645                           ;!
  1646                           ;!Critical Paths under _main in BANK0
  1647                           ;!
  1648                           ;!    _main->___fltol
  1649                           ;!    _sprintf->__doprnt
  1650                           ;!    _printf->__doprnt
  1651                           ;!    ___fltol->___flmul
  1652                           ;!
  1653                           ;!Critical Paths under _main in BANK1
  1654                           ;!
  1655                           ;!    None.
  1656                           ;!
  1657                           ;!Critical Paths under _main in BANK3
  1658                           ;!
  1659                           ;!    None.
  1660                           ;!
  1661                           ;!Critical Paths under _main in BANK2
  1662                           ;!
  1663                           ;!    None.
  1664                           
  1665 ;;
  1666 ;;Main: autosize = 0, tempsize = 4, incstack = 0, save=0
  1667 ;;
  1668                           
  1669                           ;!
  1670                           ;!Call Graph Tables:
  1671                           ;!
  1672                           ;! ---------------------------------------------------------------------------------
  1673                           ;! (Depth) Function   	        Calls       Base Space   Used Autos Params    Refs
  1674                           ;! ---------------------------------------------------------------------------------
  1675                           ;! (0) _main                                               173   173      0   21999
  1676                           ;!                                             32 BANK0     43    43      0
  1677                           ;!                                              0 BANK1     80    80      0
  1678                           ;!                                              0 BANK3     50    50      0
  1679                           ;!                          _Lcd_Clear
  1680                           ;!                           _Lcd_Init
  1681                           ;!                     _Lcd_Set_Cursor
  1682                           ;!                     _Lcd_Write_Char
  1683                           ;!                   _Lcd_Write_String
  1684                           ;!                      _UART_Get_Char
  1685                           ;!                          _UART_Init
  1686                           ;!                     _UART_Send_Char
  1687                           ;!                            ___awdiv
  1688                           ;!                            ___awmod
  1689                           ;!                            ___fladd
  1690                           ;!                            ___fldiv
  1691                           ;!                            ___flmul
  1692                           ;!                            ___fltol
  1693                           ;!                             ___wmul
  1694                           ;!                           ___xxtofl
  1695                           ;!                             _printf
  1696                           ;!                            _sprintf
  1697                           ;! ---------------------------------------------------------------------------------
  1698                           ;! (1) _sprintf                                             11     5      6    2681
  1699                           ;!                                             13 BANK0     11     5      6
  1700                           ;!                            __doprnt
  1701                           ;! ---------------------------------------------------------------------------------
  1702                           ;! (1) _printf                                               6     4      2    4621
  1703                           ;!                                             13 BANK0      6     4      2
  1704                           ;!                            __doprnt
  1705                           ;! ---------------------------------------------------------------------------------
  1706                           ;! (2) __doprnt                                             21    18      3    2075
  1707                           ;!                                              0 BANK0     13    10      3
  1708                           ;!                   Absolute function *
  1709                           ;!                            ___lwdiv
  1710                           ;!                            ___lwmod
  1711                           ;!                              _putch *
  1712                           ;! ---------------------------------------------------------------------------------
  1713                           ;! (3) _putch                                                1     0      1     256
  1714                           ;!                                              1 COMMON     1     0      1
  1715                           ;!                     _UART_Send_Char
  1716                           ;! ---------------------------------------------------------------------------------
  1717                           ;! (4) _UART_Send_Char                                       1     1      0      22
  1718                           ;!                                              0 COMMON     1     1      0
  1719                           ;! ---------------------------------------------------------------------------------
  1720                           ;! (3) ___lwmod                                              6     2      4     311
  1721                           ;!                                              8 COMMON     6     2      4
  1722                           ;!                            ___lwdiv (ARG)
  1723                           ;! ---------------------------------------------------------------------------------
  1724                           ;! (3) ___lwdiv                                              8     4      4     314
  1725                           ;!                                              0 COMMON     8     4      4
  1726                           ;! ---------------------------------------------------------------------------------
  1727                           ;! (3) Absolute function(Fake)                               1     0      1       0
  1728                           ;! ---------------------------------------------------------------------------------
  1729                           ;! (1) ___xxtofl                                            14    10      4     474
  1730                           ;!                                              0 COMMON    14    10      4
  1731                           ;! ---------------------------------------------------------------------------------
  1732                           ;! (1) ___wmul                                               6     2      4     244
  1733                           ;!                                              0 COMMON     6     2      4
  1734                           ;! ---------------------------------------------------------------------------------
  1735                           ;! (1) ___fltol                                             11     7      4     381
  1736                           ;!                                             21 BANK0     11     7      4
  1737                           ;!                            ___flmul (ARG)
  1738                           ;! ---------------------------------------------------------------------------------
  1739                           ;! (1) ___flmul                                             26    18      8    2417
  1740                           ;!                                              9 COMMON     5     5      0
  1741                           ;!                                              0 BANK0     21    13      8
  1742                           ;!                          __Umul8_16
  1743                           ;! ---------------------------------------------------------------------------------
  1744                           ;! (2) __Umul8_16                                            9     7      2     799
  1745                           ;!                                              0 COMMON     9     7      2
  1746                           ;! ---------------------------------------------------------------------------------
  1747                           ;! (1) ___fldiv                                             26    18      8    1273
  1748                           ;!                                              0 COMMON    13     5      8
  1749                           ;!                                              0 BANK0     13    13      0
  1750                           ;! ---------------------------------------------------------------------------------
  1751                           ;! (1) ___fladd                                             24    16      8    2414
  1752                           ;!                                              0 BANK0     24    16      8
  1753                           ;!                           ___xxtofl (ARG)
  1754                           ;! ---------------------------------------------------------------------------------
  1755                           ;! (1) ___awmod                                              7     3      4     752
  1756                           ;!                                              0 COMMON     7     3      4
  1757                           ;! ---------------------------------------------------------------------------------
  1758                           ;! (1) ___awdiv                                              9     5      4     756
  1759                           ;!                                              0 COMMON     9     5      4
  1760                           ;! ---------------------------------------------------------------------------------
  1761                           ;! (1) _UART_Init                                            0     0      0       0
  1762                           ;! ---------------------------------------------------------------------------------
  1763                           ;! (1) _UART_Get_Char                                        0     0      0       0
  1764                           ;! ---------------------------------------------------------------------------------
  1765                           ;! (1) _Lcd_Write_String                                     7     5      2     876
  1766                           ;!                                              5 COMMON     7     5      2
  1767                           ;!                     _Lcd_Write_Char
  1768                           ;! ---------------------------------------------------------------------------------
  1769                           ;! (2) _Lcd_Write_Char                                       4     4      0     178
  1770                           ;!                                              1 COMMON     4     4      0
  1771                           ;!                           _Lcd_Port
  1772                           ;! ---------------------------------------------------------------------------------
  1773                           ;! (1) _Lcd_Set_Cursor                                       7     6      1    2204
  1774                           ;!                                              4 COMMON     7     6      1
  1775                           ;!                            _Lcd_Cmd
  1776                           ;! ---------------------------------------------------------------------------------
  1777                           ;! (1) _Lcd_Init                                             2     2      0     198
  1778                           ;!                                              4 COMMON     2     2      0
  1779                           ;!                            _Lcd_Cmd
  1780                           ;!                           _Lcd_Port
  1781                           ;! ---------------------------------------------------------------------------------
  1782                           ;! (1) _Lcd_Clear                                            0     0      0     110
  1783                           ;!                            _Lcd_Cmd
  1784                           ;! ---------------------------------------------------------------------------------
  1785                           ;! (2) _Lcd_Cmd                                              3     3      0     110
  1786                           ;!                                              1 COMMON     3     3      0
  1787                           ;!                           _Lcd_Port
  1788                           ;! ---------------------------------------------------------------------------------
  1789                           ;! (3) _Lcd_Port                                             1     1      0      88
  1790                           ;!                                              0 COMMON     1     1      0
  1791                           ;! ---------------------------------------------------------------------------------
  1792                           ;! Estimated maximum stack depth 4
  1793                           ;! ---------------------------------------------------------------------------------
  1794                           ;!
  1795                           ;! Call Graph Graphs:
  1796                           ;!
  1797                           ;! _main (ROOT)
  1798                           ;!   _Lcd_Clear
  1799                           ;!     _Lcd_Cmd
  1800                           ;!       _Lcd_Port
  1801                           ;!   _Lcd_Init
  1802                           ;!     _Lcd_Cmd
  1803                           ;!       _Lcd_Port
  1804                           ;!     _Lcd_Port
  1805                           ;!   _Lcd_Set_Cursor
  1806                           ;!     _Lcd_Cmd
  1807                           ;!       _Lcd_Port
  1808                           ;!   _Lcd_Write_Char
  1809                           ;!     _Lcd_Port
  1810                           ;!   _Lcd_Write_String
  1811                           ;!     _Lcd_Write_Char
  1812                           ;!       _Lcd_Port
  1813                           ;!   _UART_Get_Char
  1814                           ;!   _UART_Init
  1815                           ;!   _UART_Send_Char
  1816                           ;!   ___awdiv
  1817                           ;!   ___awmod
  1818                           ;!   ___fladd
  1819                           ;!     ___xxtofl (ARG)
  1820                           ;!   ___fldiv
  1821                           ;!   ___flmul
  1822                           ;!     __Umul8_16
  1823                           ;!   ___fltol
  1824                           ;!     ___flmul (ARG)
  1825                           ;!       __Umul8_16
  1826                           ;!   ___wmul
  1827                           ;!   ___xxtofl
  1828                           ;!   _printf
  1829                           ;!     __doprnt
  1830                           ;!       Absolute function(Fake) *
  1831                           ;!       ___lwdiv *
  1832                           ;!       ___lwmod *
  1833                           ;!         ___lwdiv (ARG)
  1834                           ;!       _putch *
  1835                           ;!         _UART_Send_Char
  1836                           ;!   _sprintf
  1837                           ;!     __doprnt
  1838                           ;!       Absolute function(Fake) *
  1839                           ;!       ___lwdiv *
  1840                           ;!       ___lwmod *
  1841                           ;!         ___lwdiv (ARG)
  1842                           ;!       _putch *
  1843                           ;!         _UART_Send_Char
  1844                           ;!
  1845                           
  1846                           ;! Address spaces:
  1847                           
  1848                           ;!Name               Size   Autos  Total    Cost      Usage
  1849                           ;!BANK3               60     32      47       9       74.0%
  1850                           ;!BITBANK3            60      0       0       8        0.0%
  1851                           ;!SFR3                 0      0       0       4        0.0%
  1852                           ;!BITSFR3              0      0       0       4        0.0%
  1853                           ;!BANK2               60      0       0      11        0.0%
  1854                           ;!BITBANK2            60      0       0      10        0.0%
  1855                           ;!SFR2                 0      0       0       5        0.0%
  1856                           ;!BITSFR2              0      0       0       5        0.0%
  1857                           ;!BANK1               50     50      50       7      100.0%
  1858                           ;!BITBANK1            50      0       0       6        0.0%
  1859                           ;!SFR1                 0      0       0       2        0.0%
  1860                           ;!BITSFR1              0      0       0       2        0.0%
  1861                           ;!BANK0               50     4B      4B       5       93.8%
  1862                           ;!BITBANK0            50      0       0       4        0.0%
  1863                           ;!SFR0                 0      0       0       1        0.0%
  1864                           ;!BITSFR0              0      0       0       1        0.0%
  1865                           ;!COMMON               E      E       E       1      100.0%
  1866                           ;!BITCOMMON            E      0       0       0        0.0%
  1867                           ;!CODE                 0      0       0       0        0.0%
  1868                           ;!DATA                 0      0      F0      12        0.0%
  1869                           ;!ABS                  0      0      F0       3        0.0%
  1870                           ;!NULL                 0      0       0       0        0.0%
  1871                           ;!STACK                0      0       0       2        0.0%
  1872                           ;!EEDATA             100      0       0       0        0.0%
  1873                           
  1874                           	global	_main
  1875                           
  1876 ;; *************** function _main *****************
  1877 ;; Defined at:
  1878 ;;		line 165 in file "ROKZ1.c"
  1879 ;; Parameters:    Size  Location     Type
  1880 ;;		None
  1881 ;; Auto vars:     Size  Location     Type
  1882 ;;  broj2           2   70[BANK1 ] int 
  1883 ;;  broj1           2   68[BANK1 ] int 
  1884 ;;  broj2           2   66[BANK1 ] int 
  1885 ;;  broj1           2   64[BANK1 ] int 
  1886 ;;  minus           1   74[BANK0 ] unsigned char [1]
  1887 ;;  broj2           2   62[BANK1 ] int 
  1888 ;;  broj1           2   60[BANK1 ] int 
  1889 ;;  buffer4        20   40[BANK1 ] unsigned char [20]
  1890 ;;  buffer3        20   20[BANK1 ] unsigned char [20]
  1891 ;;  buffer2        20    0[BANK1 ] unsigned char [20]
  1892 ;;  buffer1        20   46[BANK0 ] unsigned char [20]
  1893 ;;  k               4   76[BANK1 ] float 
  1894 ;;  k3              4   70[BANK0 ] float 
  1895 ;;  k1              4   66[BANK0 ] float 
  1896 ;;  p               2   48[BANK3 ] int 
  1897 ;;  r               2   46[BANK3 ] int 
  1898 ;;  s               2   44[BANK3 ] int 
  1899 ;;  k4              2   42[BANK3 ] int 
  1900 ;;  k2              2   40[BANK3 ] int 
  1901 ;;  n               2   38[BANK3 ] int 
  1902 ;;  p4              2   36[BANK3 ] int 
  1903 ;;  p2              2   34[BANK3 ] int 
  1904 ;;  r4              2   32[BANK3 ] int 
  1905 ;;  r2              2   30[BANK3 ] int 
  1906 ;;  a4              2   28[BANK3 ] int 
  1907 ;;  a2              2   26[BANK3 ] int 
  1908 ;;  m               2   22[BANK3 ] int 
  1909 ;;  p3              2   20[BANK3 ] int 
  1910 ;;  p1              2   18[BANK3 ] int 
  1911 ;;  r3              2   16[BANK3 ] int 
  1912 ;;  r1              2   14[BANK3 ] int 
  1913 ;;  a3              2   12[BANK3 ] int 
  1914 ;;  a1              2   10[BANK3 ] int 
  1915 ;;  d2              2   74[BANK1 ] int 
  1916 ;;  d1              2   72[BANK1 ] int 
  1917 ;;  DISPLEJ        10    0[BANK3 ] unsigned char [10]
  1918 ;;  DISPLEJ1       10   36[BANK0 ] unsigned char [10]
  1919 ;;  opcija          2   24[BANK3 ] int 
  1920 ;; Return value:  Size  Location     Type
  1921 ;;                  1    wreg      void 
  1922 ;; Registers used:
  1923 ;;		wreg, fsr0l, fsr0h, status,2, status,0, btemp+1, pclath, cstack
  1924 ;; Tracked objects:
  1925 ;;		On entry : B00/0
  1926 ;;		On exit  : 0/0
  1927 ;;		Unchanged: 0/0
  1928 ;; Data sizes:     COMMON   BANK0   BANK1   BANK3   BANK2
  1929 ;;      Params:         0       0       0       0       0
  1930 ;;      Locals:         0      39      80      50       0
  1931 ;;      Temps:          0       4       0       0       0
  1932 ;;      Totals:         0      43      80      50       0
  1933 ;;Total ram usage:      173 bytes
  1934 ;; Hardware stack levels required when called:    4
  1935 ;; This function calls:
  1936 ;;		_Lcd_Clear
  1937 ;;		_Lcd_Init
  1938 ;;		_Lcd_Set_Cursor
  1939 ;;		_Lcd_Write_Char
  1940 ;;		_Lcd_Write_String
  1941 ;;		_UART_Get_Char
  1942 ;;		_UART_Init
  1943 ;;		_UART_Send_Char
  1944 ;;		___awdiv
  1945 ;;		___awmod
  1946 ;;		___fladd
  1947 ;;		___fldiv
  1948 ;;		___flmul
  1949 ;;		___fltol
  1950 ;;		___wmul
  1951 ;;		___xxtofl
  1952 ;;		_printf
  1953 ;;		_sprintf
  1954 ;; This function is called by:
  1955 ;;		Startup code after reset
  1956 ;; This function uses a non-reentrant model
  1957 ;;
  1958                           psect	maintext,global,class=CODE,delta=2,split=1,group=0
  1959                           	file	"ROKZ1.c"
  1960                           	line	165
  1961                           global __pmaintext
  1962                           __pmaintext:	;psect for function _main
  1963  1554                     psect	maintext
  1964                           	file	"ROKZ1.c"
  1965                           	line	165
  1966                           	global	__size_of_main
  1967                           	__size_of_main	equ	__end_of_main-_main
  1968  F297                     	
  1969                           _main:	
  1970  1554                     ;incstack = 0
  1971                           	opt	stack 4
  1972                           ; Regs used in _main: [wreg-fsr0h+status,2+status,0+btemp+1+pclath+cstack]
  1973                           	line	166
  1974                           	
  1975                           l3210:	
  1976  1554                     ;ROKZ1.c: 166:     char DISPLEJ[10]= {0x3F,0x06,0x5B,0x4F,0x66,0x6D, 0x7D, 0x07,0x7F,0x6
                                 F};
  1977                           	movlw	(main@DISPLEJ)&0ffh
  1978  1554  3090               	movwf	fsr0
  1979  1555  0084               	movlw	low(main@F1117)
  1980  1556  30CC               	bcf	status, 5	;RP0=0, select bank0
  1981  1557  1283               	bcf	status, 6	;RP1=0, select bank0
  1982  1558  1303               	movwf	(??_main+0)+0
  1983  1559  00C0               	movf	fsr0,w
  1984  155A  0804               	movwf	((??_main+0)+0+1)
  1985  155B  00C1               	movlw	10
  1986  155C  300A               	movwf	((??_main+0)+0+2)
  1987  155D  00C2               u4130:
  1988  155E                     	movf	(??_main+0)+0,w
  1989  155E  0840               	movwf	fsr0
  1990  155F  0084               	bsf	status, 7	;select IRP bank3
  1991  1560  1783               	
  1992                           	movf	indf,w
  1993  1561  0800               	movwf	((??_main+0)+0+3)
  1994  1562  00C3               	incf	(??_main+0)+0,f
  1995  1563  0AC0               	movf	((??_main+0)+0+1),w
  1996  1564  0841               	movwf	fsr0
  1997  1565  0084               	
  1998                           	movf	((??_main+0)+0+3),w
  1999  1566  0843               	movwf	indf
  2000  1567  0080               	incf	((??_main+0)+0+1),f
  2001  1568  0AC1               	decfsz	((??_main+0)+0+2),f
  2002  1569  0BC2               	goto	u4130
  2003  156A  2D5E               	
  2004                           	line	167
  2005                           ;ROKZ1.c: 167:     char DISPLEJ1[10]={0XBF,0X86,0XDB,0XCF,0XE6,0XED,0XFD,0X87,0XFF,0X1F}
                                 ;
  2006                           	movlw	(main@DISPLEJ1)&0ffh
  2007  156B  3044               	movwf	fsr0
  2008  156C  0084               	movlw	low(main@F1119)
  2009  156D  30C2               	movwf	(??_main+0)+0
  2010  156E  00C0               	movf	fsr0,w
  2011  156F  0804               	movwf	((??_main+0)+0+1)
  2012  1570  00C1               	movlw	10
  2013  1571  300A               	movwf	((??_main+0)+0+2)
  2014  1572  00C2               u4140:
  2015  1573                     	movf	(??_main+0)+0,w
  2016  1573  0840               	movwf	fsr0
  2017  1574  0084               	bsf	status, 7	;select IRP bank3
  2018  1575  1783               	
  2019                           	movf	indf,w
  2020  1576  0800               	movwf	((??_main+0)+0+3)
  2021  1577  00C3               	incf	(??_main+0)+0,f
  2022  1578  0AC0               	movf	((??_main+0)+0+1),w
  2023  1579  0841               	movwf	fsr0
  2024  157A  0084               	bcf	status, 7	;select IRP bank0
  2025  157B  1383               	
  2026                           	movf	((??_main+0)+0+3),w
  2027  157C  0843               	movwf	indf
  2028  157D  0080               	incf	((??_main+0)+0+1),f
  2029  157E  0AC1               	decfsz	((??_main+0)+0+2),f
  2030  157F  0BC2               	goto	u4140
  2031  1580  2D73               	
  2032                           	line	168
  2033                           	
  2034                           l3212:	
  2035  1581                     ;ROKZ1.c: 168:     UART_Init();
  2036                           	fcall	_UART_Init
  2037  1581  160A  158A  27B5  160A  118A  	line	169
  2038                           	
  2039                           l3214:	
  2040  1586                     ;ROKZ1.c: 169:     TRISC0=0;
  2041                           	bsf	status, 5	;RP0=1, select bank1
  2042  1586  1683               	bcf	status, 6	;RP1=0, select bank1
  2043  1587  1303               	bcf	(1080/8)^080h,(1080)&7	;volatile
  2044  1588  1007               	line	170
  2045                           	
  2046                           l3216:	
  2047  1589                     ;ROKZ1.c: 170:     TRISC1=0;
  2048                           	bcf	(1081/8)^080h,(1081)&7	;volatile
  2049  1589  1087               	line	171
  2050                           	
  2051                           l3218:	
  2052  158A                     ;ROKZ1.c: 171:     TRISC2=0;
  2053                           	bcf	(1082/8)^080h,(1082)&7	;volatile
  2054  158A  1107               	line	172
  2055                           	
  2056                           l3220:	
  2057  158B                     ;ROKZ1.c: 172:     TRISC3=0;
  2058                           	bcf	(1083/8)^080h,(1083)&7	;volatile
  2059  158B  1187               	line	173
  2060                           	
  2061                           l3222:	
  2062  158C                     ;ROKZ1.c: 173:     PORTB=0;
  2063                           	bcf	status, 5	;RP0=0, select bank0
  2064  158C  1283               	bcf	status, 6	;RP1=0, select bank0
  2065  158D  1303               	clrf	(6)	;volatile
  2066  158E  0186               	line	174
  2067                           	
  2068                           l3224:	
  2069  158F                     ;ROKZ1.c: 174:     TRISB=0;
  2070                           	bsf	status, 5	;RP0=1, select bank1
  2071  158F  1683               	bcf	status, 6	;RP1=0, select bank1
  2072  1590  1303               	clrf	(134)^080h	;volatile
  2073  1591  0186               	line	175
  2074                           	
  2075                           l3226:	
  2076  1592                     ;ROKZ1.c: 175:     TRISD=0;
  2077                           	clrf	(136)^080h	;volatile
  2078  1592  0188               	line	176
  2079                           	
  2080                           l3228:	
  2081  1593                     ;ROKZ1.c: 176:     Lcd_Init();
  2082                           	fcall	_Lcd_Init
  2083  1593  160A  118A  2177  160A  118A  	line	177
  2084                           	
  2085                           l3230:	
  2086  1598                     ;ROKZ1.c: 177:     Lcd_Clear();
  2087                           	fcall	_Lcd_Clear
  2088  1598  160A  158A  276E  160A  118A  	goto	l3232
  2089  159D  2D9E               	line	179
  2090                           ;ROKZ1.c: 178:     int opcija;;ROKZ1.c: 179:     do {
  2091                           	
  2092                           l133:	
  2093  159E                     	line	180
  2094                           	
  2095                           l3232:	
  2096  159E                     ;ROKZ1.c: 180:         printf("            DIGITALNI SISTEMI - ISPIT           ");
  2097                           	movlw	low(((STR_1)|8000h))
  2098  159E  304E               	bcf	status, 5	;RP0=0, select bank0
  2099  159F  1283               	bcf	status, 6	;RP1=0, select bank0
  2100  15A0  1303               	movwf	(printf@f)
  2101  15A1  00AD               	movlw	high(((STR_1)|8000h))
  2102  15A2  3098               	movwf	((printf@f))+1
  2103  15A3  00AE               	fcall	_printf
  2104  15A4  160A  158A  27E5  160A  118A  	line	181
  2105                           	
  2106                           l3234:	
  2107  15A9                     ;ROKZ1.c: 181:         printf("\r                ZEHRA SABIC 890                 ");
  2108                           	movlw	low(((STR_2)|8000h))
  2109  15A9  301C               	bcf	status, 5	;RP0=0, select bank0
  2110  15AA  1283               	bcf	status, 6	;RP1=0, select bank0
  2111  15AB  1303               	movwf	(printf@f)
  2112  15AC  00AD               	movlw	high(((STR_2)|8000h))
  2113  15AD  3098               	movwf	((printf@f))+1
  2114  15AE  00AE               	fcall	_printf
  2115  15AF  160A  158A  27E5  160A  118A  	line	182
  2116                           	
  2117                           l3236:	
  2118  15B4                     ;ROKZ1.c: 182:         printf("\r1.Sabiranje");
  2119                           	movlw	low(((STR_3)|8000h))
  2120  15B4  309E               	bcf	status, 5	;RP0=0, select bank0
  2121  15B5  1283               	bcf	status, 6	;RP1=0, select bank0
  2122  15B6  1303               	movwf	(printf@f)
  2123  15B7  00AD               	movlw	high(((STR_3)|8000h))
  2124  15B8  3099               	movwf	((printf@f))+1
  2125  15B9  00AE               	fcall	_printf
  2126  15BA  160A  158A  27E5  160A  118A  	line	183
  2127                           	
  2128                           l3238:	
  2129  15BF                     ;ROKZ1.c: 183:         printf("\r2.Oduzimanje");
  2130                           	movlw	low(((STR_4)|8000h))
  2131  15BF  3068               	bcf	status, 5	;RP0=0, select bank0
  2132  15C0  1283               	bcf	status, 6	;RP1=0, select bank0
  2133  15C1  1303               	movwf	(printf@f)
  2134  15C2  00AD               	movlw	high(((STR_4)|8000h))
  2135  15C3  3099               	movwf	((printf@f))+1
  2136  15C4  00AE               	fcall	_printf
  2137  15C5  160A  158A  27E5  160A  118A  	line	184
  2138                           	
  2139                           l3240:	
  2140  15CA                     ;ROKZ1.c: 184:         printf("\r3.Mnozenje");
  2141                           	movlw	low(((STR_5)|8000h))
  2142  15CA  30C3               	bcf	status, 5	;RP0=0, select bank0
  2143  15CB  1283               	bcf	status, 6	;RP1=0, select bank0
  2144  15CC  1303               	movwf	(printf@f)
  2145  15CD  00AD               	movlw	high(((STR_5)|8000h))
  2146  15CE  3099               	movwf	((printf@f))+1
  2147  15CF  00AE               	fcall	_printf
  2148  15D0  160A  158A  27E5  160A  118A  	line	185
  2149                           	
  2150                           l3242:	
  2151  15D5                     ;ROKZ1.c: 185:         printf("\r4.Dijeljenje");
  2152                           	movlw	low(((STR_6)|8000h))
  2153  15D5  3076               	bcf	status, 5	;RP0=0, select bank0
  2154  15D6  1283               	bcf	status, 6	;RP1=0, select bank0
  2155  15D7  1303               	movwf	(printf@f)
  2156  15D8  00AD               	movlw	high(((STR_6)|8000h))
  2157  15D9  3099               	movwf	((printf@f))+1
  2158  15DA  00AE               	fcall	_printf
  2159  15DB  160A  158A  27E5  160A  118A  	line	186
  2160                           	
  2161                           l3244:	
  2162  15E0                     ;ROKZ1.c: 186:         printf("\rUnesite opciju koju zelite realizirati: ");
  2163                           	movlw	low(((STR_7)|8000h))
  2164  15E0  307F               	bcf	status, 5	;RP0=0, select bank0
  2165  15E1  1283               	bcf	status, 6	;RP1=0, select bank0
  2166  15E2  1303               	movwf	(printf@f)
  2167  15E3  00AD               	movlw	high(((STR_7)|8000h))
  2168  15E4  3098               	movwf	((printf@f))+1
  2169  15E5  00AE               	fcall	_printf
  2170  15E6  160A  158A  27E5  160A  118A  	line	187
  2171                           	
  2172                           l3246:	
  2173  15EB                     ;ROKZ1.c: 187:         opcija=UART_Get_Char();
  2174                           	fcall	_UART_Get_Char
  2175  15EB  160A  158A  277B  160A  118A  	bcf	status, 5	;RP0=0, select bank0
  2176  15F0  1283               	bcf	status, 6	;RP1=0, select bank0
  2177  15F1  1303               	movwf	(??_main+0)+0
  2178  15F2  00C0               	clrf	(??_main+0)+0+1
  2179  15F3  01C1               	movf	0+(??_main+0)+0,w
  2180  15F4  0840               	bsf	status, 5	;RP0=1, select bank3
  2181  15F5  1683               	bsf	status, 6	;RP1=1, select bank3
  2182  15F6  1703               	movwf	(main@opcija)^0180h
  2183  15F7  00A8               	bcf	status, 5	;RP0=0, select bank0
  2184  15F8  1283               	bcf	status, 6	;RP1=0, select bank0
  2185  15F9  1303               	movf	1+(??_main+0)+0,w
  2186  15FA  0841               	bsf	status, 5	;RP0=1, select bank3
  2187  15FB  1683               	bsf	status, 6	;RP1=1, select bank3
  2188  15FC  1703               	movwf	(main@opcija+1)^0180h
  2189  15FD  00A9               	line	188
  2190                           	
  2191                           l3248:	
  2192  15FE                     ;ROKZ1.c: 188:         UART_Send_Char(opcija);
  2193                           	movf	(main@opcija)^0180h,w
  2194  15FE  0828               	fcall	_UART_Send_Char
  2195  15FF  120A  158A  2000  160A  118A  	line	189
  2196                           	
  2197                           l3250:	
  2198  1604                     ;ROKZ1.c: 189:         printf("\r\r");
  2199                           	movlw	low(((STR_8)|8000h))
  2200  1604  30E0               	bcf	status, 5	;RP0=0, select bank0
  2201  1605  1283               	bcf	status, 6	;RP1=0, select bank0
  2202  1606  1303               	movwf	(printf@f)
  2203  1607  00AD               	movlw	high(((STR_8)|8000h))
  2204  1608  3099               	movwf	((printf@f))+1
  2205  1609  00AE               	fcall	_printf
  2206  160A  160A  158A  27E5  160A  118A  	line	190
  2207                           ;ROKZ1.c: 190:         switch(opcija) {
  2208                           	goto	l3710
  2209  160F  120A  118A  2FC7   	line	191
  2210                           ;ROKZ1.c: 191:             case '1':
  2211                           	
  2212                           l135:	
  2213  1612                     	line	192
  2214                           	
  2215                           l3252:	
  2216  1612                     ;ROKZ1.c: 192:                 printf("\rOdabrali ste sabiranje!");
  2217                           	movlw	low(((STR_9)|8000h))
  2218  1612  30DF               	bcf	status, 5	;RP0=0, select bank0
  2219  1613  1283               	bcf	status, 6	;RP1=0, select bank0
  2220  1614  1303               	movwf	(printf@f)
  2221  1615  00AD               	movlw	high(((STR_9)|8000h))
  2222  1616  3098               	movwf	((printf@f))+1
  2223  1617  00AE               	fcall	_printf
  2224  1618  160A  158A  27E5  160A  118A  	line	193
  2225                           	
  2226                           l3254:	
  2227  161D                     ;ROKZ1.c: 193:                 Lcd_Set_Cursor(1,1);
  2228                           	clrf	(Lcd_Set_Cursor@b)
  2229  161D  01F4               	incf	(Lcd_Set_Cursor@b),f
  2230  161E  0AF4               	movlw	low(01h)
  2231  161F  3001               	fcall	_Lcd_Set_Cursor
  2232  1620  120A  118A  2013  160A  118A  	line	194
  2233                           	
  2234                           l3256:	
  2235  1625                     ;ROKZ1.c: 194:                 Lcd_Write_String("Sabiranje: ");
  2236                           	movlw	low(((STR_10)|8000h))
  2237  1625  30AB               	movwf	(Lcd_Write_String@a)
  2238  1626  00F5               	movlw	high(((STR_10)|8000h))
  2239  1627  3099               	movwf	((Lcd_Write_String@a))+1
  2240  1628  00F6               	fcall	_Lcd_Write_String
  2241  1629  160A  118A  20E8  160A  118A  	line	196
  2242                           	
  2243                           l3258:	
  2244  162E                     ;ROKZ1.c: 196:                 printf("\r\rUnesite prvi broj: ");
  2245                           	movlw	low(((STR_11)|8000h))
  2246  162E  3027               	bcf	status, 5	;RP0=0, select bank0
  2247  162F  1283               	bcf	status, 6	;RP1=0, select bank0
  2248  1630  1303               	movwf	(printf@f)
  2249  1631  00AD               	movlw	high(((STR_11)|8000h))
  2250  1632  3099               	movwf	((printf@f))+1
  2251  1633  00AE               	fcall	_printf
  2252  1634  160A  158A  27E5  160A  118A  	line	197
  2253                           	
  2254                           l3260:	
  2255  1639                     ;ROKZ1.c: 197:                 int a2=UART_Get_Char();
  2256                           	fcall	_UART_Get_Char
  2257  1639  160A  158A  277B  160A  118A  	bcf	status, 5	;RP0=0, select bank0
  2258  163E  1283               	bcf	status, 6	;RP1=0, select bank0
  2259  163F  1303               	movwf	(??_main+0)+0
  2260  1640  00C0               	clrf	(??_main+0)+0+1
  2261  1641  01C1               	movf	0+(??_main+0)+0,w
  2262  1642  0840               	bsf	status, 5	;RP0=1, select bank3
  2263  1643  1683               	bsf	status, 6	;RP1=1, select bank3
  2264  1644  1703               	movwf	(main@a2)^0180h
  2265  1645  00AA               	bcf	status, 5	;RP0=0, select bank0
  2266  1646  1283               	bcf	status, 6	;RP1=0, select bank0
  2267  1647  1303               	movf	1+(??_main+0)+0,w
  2268  1648  0841               	bsf	status, 5	;RP0=1, select bank3
  2269  1649  1683               	bsf	status, 6	;RP1=1, select bank3
  2270  164A  1703               	movwf	(main@a2+1)^0180h
  2271  164B  00AB               	line	198
  2272                           	
  2273                           l3262:	
  2274  164C                     ;ROKZ1.c: 198:                 UART_Send_Char(a2);
  2275                           	movf	(main@a2)^0180h,w
  2276  164C  082A               	fcall	_UART_Send_Char
  2277  164D  120A  158A  2000  160A  118A  	line	199
  2278                           	
  2279                           l3264:	
  2280  1652                     ;ROKZ1.c: 199:                 int a1=a2-48;
  2281                           	bsf	status, 5	;RP0=1, select bank3
  2282  1652  1683               	bsf	status, 6	;RP1=1, select bank3
  2283  1653  1703               	movf	(main@a2)^0180h,w
  2284  1654  082A               	addlw	low(-48)
  2285  1655  3ED0               	movwf	(main@a1)^0180h
  2286  1656  009A               	movf	(main@a2+1)^0180h,w
  2287  1657  082B               	skipnc
  2288  1658  1803               	addlw	1
  2289  1659  3E01               	addlw	high(-48)
  2290  165A  3EFF               	movwf	1+(main@a1)^0180h
  2291  165B  009B               	line	200
  2292                           	
  2293                           l3266:	
  2294  165C                     ;ROKZ1.c: 200:                 RC1=1;
  2295                           	bcf	status, 5	;RP0=0, select bank0
  2296  165C  1283               	bcf	status, 6	;RP1=0, select bank0
  2297  165D  1303               	bsf	(57/8),(57)&7	;volatile
  2298  165E  1487               	line	201
  2299                           	
  2300                           l3268:	
  2301  165F                     ;ROKZ1.c: 201:                 RC2=1;
  2302                           	bsf	(58/8),(58)&7	;volatile
  2303  165F  1507               	line	202
  2304                           	
  2305                           l3270:	
  2306  1660                     ;ROKZ1.c: 202:                 RC3=1;
  2307                           	bsf	(59/8),(59)&7	;volatile
  2308  1660  1587               	line	203
  2309                           	
  2310                           l3272:	
  2311  1661                     ;ROKZ1.c: 203:                 PORTB=DISPLEJ[a1];
  2312                           	bsf	status, 5	;RP0=1, select bank3
  2313  1661  1683               	bsf	status, 6	;RP1=1, select bank3
  2314  1662  1703               	movf	(main@a1)^0180h,w
  2315  1663  081A               	addlw	low(main@DISPLEJ|((0x1)<<8))&0ffh
  2316  1664  3E90               	movwf	fsr0
  2317  1665  0084               	bsf	status, 7	;select IRP bank3
  2318  1666  1783               	movf	indf,w
  2319  1667  0800               	bcf	status, 5	;RP0=0, select bank0
  2320  1668  1283               	bcf	status, 6	;RP1=0, select bank0
  2321  1669  1303               	movwf	(6)	;volatile
  2322  166A  0086               	line	204
  2323                           	
  2324                           l3274:	
  2325  166B                     ;ROKZ1.c: 204:                 RC0=0;
  2326                           	bcf	(56/8),(56)&7	;volatile
  2327  166B  1007               	line	206
  2328                           	
  2329                           l3276:	
  2330  166C                     ;ROKZ1.c: 206:                 printf("\rUnesite drugi broj: ");
  2331                           	movlw	low(((STR_12)|8000h))
  2332  166C  3011               	movwf	(printf@f)
  2333  166D  00AD               	movlw	high(((STR_12)|8000h))
  2334  166E  3099               	movwf	((printf@f))+1
  2335  166F  00AE               	fcall	_printf
  2336  1670  160A  158A  27E5  160A  118A  	line	207
  2337                           	
  2338                           l3278:	
  2339  1675                     ;ROKZ1.c: 207:                 int a4=UART_Get_Char();
  2340                           	fcall	_UART_Get_Char
  2341  1675  160A  158A  277B  160A  118A  	bcf	status, 5	;RP0=0, select bank0
  2342  167A  1283               	bcf	status, 6	;RP1=0, select bank0
  2343  167B  1303               	movwf	(??_main+0)+0
  2344  167C  00C0               	clrf	(??_main+0)+0+1
  2345  167D  01C1               	movf	0+(??_main+0)+0,w
  2346  167E  0840               	bsf	status, 5	;RP0=1, select bank3
  2347  167F  1683               	bsf	status, 6	;RP1=1, select bank3
  2348  1680  1703               	movwf	(main@a4)^0180h
  2349  1681  00AC               	bcf	status, 5	;RP0=0, select bank0
  2350  1682  1283               	bcf	status, 6	;RP1=0, select bank0
  2351  1683  1303               	movf	1+(??_main+0)+0,w
  2352  1684  0841               	bsf	status, 5	;RP0=1, select bank3
  2353  1685  1683               	bsf	status, 6	;RP1=1, select bank3
  2354  1686  1703               	movwf	(main@a4+1)^0180h
  2355  1687  00AD               	line	208
  2356                           	
  2357                           l3280:	
  2358  1688                     ;ROKZ1.c: 208:                 UART_Send_Char(a4);
  2359                           	movf	(main@a4)^0180h,w
  2360  1688  082C               	fcall	_UART_Send_Char
  2361  1689  120A  158A  2000  160A  118A  	line	209
  2362                           	
  2363                           l3282:	
  2364  168E                     ;ROKZ1.c: 209:                 int a3=a4-48;
  2365                           	bsf	status, 5	;RP0=1, select bank3
  2366  168E  1683               	bsf	status, 6	;RP1=1, select bank3
  2367  168F  1703               	movf	(main@a4)^0180h,w
  2368  1690  082C               	addlw	low(-48)
  2369  1691  3ED0               	movwf	(main@a3)^0180h
  2370  1692  009C               	movf	(main@a4+1)^0180h,w
  2371  1693  082D               	skipnc
  2372  1694  1803               	addlw	1
  2373  1695  3E01               	addlw	high(-48)
  2374  1696  3EFF               	movwf	1+(main@a3)^0180h
  2375  1697  009D               	line	210
  2376                           	
  2377                           l3284:	
  2378  1698                     ;ROKZ1.c: 210:                 RC0=1;
  2379                           	bcf	status, 5	;RP0=0, select bank0
  2380  1698  1283               	bcf	status, 6	;RP1=0, select bank0
  2381  1699  1303               	bsf	(56/8),(56)&7	;volatile
  2382  169A  1407               	line	211
  2383                           	
  2384                           l3286:	
  2385  169B                     ;ROKZ1.c: 211:                 RC2=1;
  2386                           	bsf	(58/8),(58)&7	;volatile
  2387  169B  1507               	line	212
  2388                           	
  2389                           l3288:	
  2390  169C                     ;ROKZ1.c: 212:                 RC3=1;
  2391                           	bsf	(59/8),(59)&7	;volatile
  2392  169C  1587               	line	213
  2393                           	
  2394                           l3290:	
  2395  169D                     ;ROKZ1.c: 213:                 PORTB=DISPLEJ[a3];
  2396                           	bsf	status, 5	;RP0=1, select bank3
  2397  169D  1683               	bsf	status, 6	;RP1=1, select bank3
  2398  169E  1703               	movf	(main@a3)^0180h,w
  2399  169F  081C               	addlw	low(main@DISPLEJ|((0x1)<<8))&0ffh
  2400  16A0  3E90               	movwf	fsr0
  2401  16A1  0084               	bsf	status, 7	;select IRP bank3
  2402  16A2  1783               	movf	indf,w
  2403  16A3  0800               	bcf	status, 5	;RP0=0, select bank0
  2404  16A4  1283               	bcf	status, 6	;RP1=0, select bank0
  2405  16A5  1303               	movwf	(6)	;volatile
  2406  16A6  0086               	line	214
  2407                           	
  2408                           l3292:	
  2409  16A7                     ;ROKZ1.c: 214:                 RC1=0;
  2410                           	bcf	(57/8),(57)&7	;volatile
  2411  16A7  1087               	line	215
  2412                           	
  2413                           l3294:	
  2414  16A8                     ;ROKZ1.c: 215:                 _delay((unsigned long)((250)*(20000000/4000.0)));
  2415                           	opt asmopt_push
  2416                           opt asmopt_off
  2417                           movlw  7
  2418  16A8  3007               	bcf	status, 5	;RP0=0, select bank0
  2419  16A9  1283               	bcf	status, 6	;RP1=0, select bank0
  2420  16AA  1303               movwf	((??_main+0)+0+2),f
  2421  16AB  00C2               movlw	88
  2422  16AC  3058               movwf	((??_main+0)+0+1),f
  2423  16AD  00C1               	movlw	89
  2424  16AE  3059               movwf	((??_main+0)+0),f
  2425  16AF  00C0               	u4197:
  2426  16B0                     decfsz	((??_main+0)+0),f
  2427  16B0  0BC0               	goto	u4197
  2428  16B1  2EB0               	decfsz	((??_main+0)+0+1),f
  2429  16B2  0BC1               	goto	u4197
  2430  16B3  2EB0               	decfsz	((??_main+0)+0+2),f
  2431  16B4  0BC2               	goto	u4197
  2432  16B5  2EB0               opt asmopt_pop
  2433                           
  2434                           	line	217
  2435                           	
  2436                           l3296:	
  2437  16B6                     ;ROKZ1.c: 217:                 int s=(a1+a3);
  2438                           	bsf	status, 5	;RP0=1, select bank3
  2439  16B6  1683               	bsf	status, 6	;RP1=1, select bank3
  2440  16B7  1703               	movf	(main@a3)^0180h,w
  2441  16B8  081C               	addwf	(main@a1)^0180h,w
  2442  16B9  071A               	movwf	(main@s)^0180h
  2443  16BA  00BC               	movf	(main@a3+1)^0180h,w
  2444  16BB  081D               	skipnc
  2445  16BC  1803               	incf	(main@a3+1)^0180h,w
  2446  16BD  0A1D               	addwf	(main@a1+1)^0180h,w
  2447  16BE  071B               	movwf	1+(main@s)^0180h
  2448  16BF  00BD               	line	218
  2449                           	
  2450                           l3298:	
  2451  16C0                     ;ROKZ1.c: 218:                 if(s<10) {
  2452                           	movf	(main@s+1)^0180h,w
  2453  16C0  083D               	xorlw	80h
  2454  16C1  3A80               	movwf	btemp+1
  2455  16C2  00FF               	movlw	(0)^80h
  2456  16C3  3080               	subwf	btemp+1,w
  2457  16C4  027F               	skipz
  2458  16C5  1D03               	goto	u4155
  2459  16C6  2EC9               	movlw	0Ah
  2460  16C7  300A               	subwf	(main@s)^0180h,w
  2461  16C8  023C               u4155:
  2462  16C9                     
  2463                           	skipnc
  2464  16C9  1803               	goto	u4151
  2465  16CA  2ECC               	goto	u4150
  2466  16CB  2ECD               u4151:
  2467  16CC                     	goto	l3308
  2468  16CC  2EEC               u4150:
  2469  16CD                     	line	219
  2470                           	
  2471                           l3300:	
  2472  16CD                     ;ROKZ1.c: 219:                     RC0=1;
  2473                           	bcf	status, 5	;RP0=0, select bank0
  2474  16CD  1283               	bcf	status, 6	;RP1=0, select bank0
  2475  16CE  1303               	bsf	(56/8),(56)&7	;volatile
  2476  16CF  1407               	line	220
  2477                           ;ROKZ1.c: 220:                     RC1=1;
  2478                           	bsf	(57/8),(57)&7	;volatile
  2479  16D0  1487               	line	221
  2480                           ;ROKZ1.c: 221:                     RC3=1;
  2481                           	bsf	(59/8),(59)&7	;volatile
  2482  16D1  1587               	line	222
  2483                           	
  2484                           l3302:	
  2485  16D2                     ;ROKZ1.c: 222:                     PORTB=DISPLEJ[s];
  2486                           	bsf	status, 5	;RP0=1, select bank3
  2487  16D2  1683               	bsf	status, 6	;RP1=1, select bank3
  2488  16D3  1703               	movf	(main@s)^0180h,w
  2489  16D4  083C               	addlw	low(main@DISPLEJ|((0x1)<<8))&0ffh
  2490  16D5  3E90               	movwf	fsr0
  2491  16D6  0084               	bsf	status, 7	;select IRP bank3
  2492  16D7  1783               	movf	indf,w
  2493  16D8  0800               	bcf	status, 5	;RP0=0, select bank0
  2494  16D9  1283               	bcf	status, 6	;RP1=0, select bank0
  2495  16DA  1303               	movwf	(6)	;volatile
  2496  16DB  0086               	line	223
  2497                           	
  2498                           l3304:	
  2499  16DC                     ;ROKZ1.c: 223:                     RC2=0;
  2500                           	bcf	(58/8),(58)&7	;volatile
  2501  16DC  1107               	line	224
  2502                           	
  2503                           l3306:	
  2504  16DD                     ;ROKZ1.c: 224:                     _delay((unsigned long)((250)*(20000000/4000.0)));
  2505                           	opt asmopt_push
  2506                           opt asmopt_off
  2507                           movlw  7
  2508  16DD  3007               	bcf	status, 5	;RP0=0, select bank0
  2509  16DE  1283               	bcf	status, 6	;RP1=0, select bank0
  2510  16DF  1303               movwf	((??_main+0)+0+2),f
  2511  16E0  00C2               movlw	88
  2512  16E1  3058               movwf	((??_main+0)+0+1),f
  2513  16E2  00C1               	movlw	89
  2514  16E3  3059               movwf	((??_main+0)+0),f
  2515  16E4  00C0               	u4207:
  2516  16E5                     decfsz	((??_main+0)+0),f
  2517  16E5  0BC0               	goto	u4207
  2518  16E6  2EE5               	decfsz	((??_main+0)+0+1),f
  2519  16E7  0BC1               	goto	u4207
  2520  16E8  2EE5               	decfsz	((??_main+0)+0+2),f
  2521  16E9  0BC2               	goto	u4207
  2522  16EA  2EE5               opt asmopt_pop
  2523                           
  2524                           	line	225
  2525                           ;ROKZ1.c: 225:                 }
  2526                           	goto	l3334
  2527  16EB  2F53               	line	226
  2528                           ;ROKZ1.c: 226:                 else {
  2529                           	
  2530                           l136:	
  2531  16EC                     	line	229
  2532                           	
  2533                           l3308:	
  2534  16EC                     ;ROKZ1.c: 227:                     int broj1,broj2;;ROKZ1.c: 229:                     br
                                 oj1=s/10;
  2535                           	movlw	0Ah
  2536  16EC  300A               	movwf	(___awdiv@divisor)
  2537  16ED  00F0               	movlw	0
  2538  16EE  3000               	movwf	((___awdiv@divisor))+1
  2539  16EF  00F1               	bsf	status, 5	;RP0=1, select bank3
  2540  16F0  1683               	bsf	status, 6	;RP1=1, select bank3
  2541  16F1  1703               	movf	(main@s+1)^0180h,w
  2542  16F2  083D               	movwf	(___awdiv@dividend+1)
  2543  16F3  00F3               	movf	(main@s)^0180h,w
  2544  16F4  083C               	movwf	(___awdiv@dividend)
  2545  16F5  00F2               	fcall	___awdiv
  2546  16F6  160A  118A  2238  160A  118A  	movf	(1+(?___awdiv)),w
  2547  16FB  0871               	bsf	status, 5	;RP0=1, select bank1
  2548  16FC  1683               	bcf	status, 6	;RP1=0, select bank1
  2549  16FD  1303               	movwf	(main@broj1+1)^080h
  2550  16FE  00DD               	movf	(0+(?___awdiv)),w
  2551  16FF  0870               	movwf	(main@broj1)^080h
  2552  1700  00DC               	line	230
  2553                           	
  2554                           l3310:	
  2555  1701                     ;ROKZ1.c: 230:                     RC0=1;
  2556                           	bcf	status, 5	;RP0=0, select bank0
  2557  1701  1283               	bcf	status, 6	;RP1=0, select bank0
  2558  1702  1303               	bsf	(56/8),(56)&7	;volatile
  2559  1703  1407               	line	231
  2560                           	
  2561                           l3312:	
  2562  1704                     ;ROKZ1.c: 231:                     RC1=1;
  2563                           	bsf	(57/8),(57)&7	;volatile
  2564  1704  1487               	line	232
  2565                           	
  2566                           l3314:	
  2567  1705                     ;ROKZ1.c: 232:                     RC3=1;
  2568                           	bsf	(59/8),(59)&7	;volatile
  2569  1705  1587               	line	233
  2570                           	
  2571                           l3316:	
  2572  1706                     ;ROKZ1.c: 233:                     PORTB=DISPLEJ[broj1];
  2573                           	bsf	status, 5	;RP0=1, select bank1
  2574  1706  1683               	bcf	status, 6	;RP1=0, select bank1
  2575  1707  1303               	movf	(main@broj1)^080h,w
  2576  1708  085C               	addlw	low(main@DISPLEJ|((0x1)<<8))&0ffh
  2577  1709  3E90               	movwf	fsr0
  2578  170A  0084               	bsf	status, 7	;select IRP bank3
  2579  170B  1783               	movf	indf,w
  2580  170C  0800               	bcf	status, 5	;RP0=0, select bank0
  2581  170D  1283               	bcf	status, 6	;RP1=0, select bank0
  2582  170E  1303               	movwf	(6)	;volatile
  2583  170F  0086               	line	234
  2584                           	
  2585                           l3318:	
  2586  1710                     ;ROKZ1.c: 234:                     RC2=0;
  2587                           	bcf	(58/8),(58)&7	;volatile
  2588  1710  1107               	line	235
  2589                           	
  2590                           l3320:	
  2591  1711                     ;ROKZ1.c: 235:                     _delay((unsigned long)((250)*(20000000/4000.0)));
  2592                           	opt asmopt_push
  2593                           opt asmopt_off
  2594                           movlw  7
  2595  1711  3007               	bcf	status, 5	;RP0=0, select bank0
  2596  1712  1283               	bcf	status, 6	;RP1=0, select bank0
  2597  1713  1303               movwf	((??_main+0)+0+2),f
  2598  1714  00C2               movlw	88
  2599  1715  3058               movwf	((??_main+0)+0+1),f
  2600  1716  00C1               	movlw	89
  2601  1717  3059               movwf	((??_main+0)+0),f
  2602  1718  00C0               	u4217:
  2603  1719                     decfsz	((??_main+0)+0),f
  2604  1719  0BC0               	goto	u4217
  2605  171A  2F19               	decfsz	((??_main+0)+0+1),f
  2606  171B  0BC1               	goto	u4217
  2607  171C  2F19               	decfsz	((??_main+0)+0+2),f
  2608  171D  0BC2               	goto	u4217
  2609  171E  2F19               opt asmopt_pop
  2610                           
  2611                           	line	237
  2612                           	
  2613                           l3322:	
  2614  171F                     ;ROKZ1.c: 237:                     broj2=s%10;
  2615                           	movlw	0Ah
  2616  171F  300A               	movwf	(___awmod@divisor)
  2617  1720  00F0               	movlw	0
  2618  1721  3000               	movwf	((___awmod@divisor))+1
  2619  1722  00F1               	bsf	status, 5	;RP0=1, select bank3
  2620  1723  1683               	bsf	status, 6	;RP1=1, select bank3
  2621  1724  1703               	movf	(main@s+1)^0180h,w
  2622  1725  083D               	movwf	(___awmod@dividend+1)
  2623  1726  00F3               	movf	(main@s)^0180h,w
  2624  1727  083C               	movwf	(___awmod@dividend)
  2625  1728  00F2               	fcall	___awmod
  2626  1729  160A  118A  21D5  160A  118A  	movf	(1+(?___awmod)),w
  2627  172E  0871               	bsf	status, 5	;RP0=1, select bank1
  2628  172F  1683               	bcf	status, 6	;RP1=0, select bank1
  2629  1730  1303               	movwf	(main@broj2+1)^080h
  2630  1731  00DF               	movf	(0+(?___awmod)),w
  2631  1732  0870               	movwf	(main@broj2)^080h
  2632  1733  00DE               	line	238
  2633                           	
  2634                           l3324:	
  2635  1734                     ;ROKZ1.c: 238:                     RC0=1;
  2636                           	bcf	status, 5	;RP0=0, select bank0
  2637  1734  1283               	bcf	status, 6	;RP1=0, select bank0
  2638  1735  1303               	bsf	(56/8),(56)&7	;volatile
  2639  1736  1407               	line	239
  2640                           	
  2641                           l3326:	
  2642  1737                     ;ROKZ1.c: 239:                     RC1=1;
  2643                           	bsf	(57/8),(57)&7	;volatile
  2644  1737  1487               	line	240
  2645                           	
  2646                           l3328:	
  2647  1738                     ;ROKZ1.c: 240:                     RC2=1;
  2648                           	bsf	(58/8),(58)&7	;volatile
  2649  1738  1507               	line	241
  2650                           	
  2651                           l3330:	
  2652  1739                     ;ROKZ1.c: 241:                     PORTB=DISPLEJ[broj2];
  2653                           	bsf	status, 5	;RP0=1, select bank1
  2654  1739  1683               	bcf	status, 6	;RP1=0, select bank1
  2655  173A  1303               	movf	(main@broj2)^080h,w
  2656  173B  085E               	addlw	low(main@DISPLEJ|((0x1)<<8))&0ffh
  2657  173C  3E90               	movwf	fsr0
  2658  173D  0084               	bsf	status, 7	;select IRP bank3
  2659  173E  1783               	movf	indf,w
  2660  173F  0800               	bcf	status, 5	;RP0=0, select bank0
  2661  1740  1283               	bcf	status, 6	;RP1=0, select bank0
  2662  1741  1303               	movwf	(6)	;volatile
  2663  1742  0086               	line	242
  2664                           	
  2665                           l3332:	
  2666  1743                     ;ROKZ1.c: 242:                     RC3=0;
  2667                           	bcf	(59/8),(59)&7	;volatile
  2668  1743  1187               	line	243
  2669                           ;ROKZ1.c: 243:                     _delay((unsigned long)((250)*(20000000/4000.0)));
  2670                           	opt asmopt_push
  2671                           opt asmopt_off
  2672                           movlw  7
  2673  1744  3007               	bcf	status, 5	;RP0=0, select bank0
  2674  1745  1283               	bcf	status, 6	;RP1=0, select bank0
  2675  1746  1303               movwf	((??_main+0)+0+2),f
  2676  1747  00C2               movlw	88
  2677  1748  3058               movwf	((??_main+0)+0+1),f
  2678  1749  00C1               	movlw	89
  2679  174A  3059               movwf	((??_main+0)+0),f
  2680  174B  00C0               	u4227:
  2681  174C                     decfsz	((??_main+0)+0),f
  2682  174C  0BC0               	goto	u4227
  2683  174D  2F4C               	decfsz	((??_main+0)+0+1),f
  2684  174E  0BC1               	goto	u4227
  2685  174F  2F4C               	decfsz	((??_main+0)+0+2),f
  2686  1750  0BC2               	goto	u4227
  2687  1751  2F4C               opt asmopt_pop
  2688                           
  2689                           	goto	l3334
  2690  1752  2F53               	line	245
  2691                           ;ROKZ1.c: 245:                 }
  2692                           	
  2693                           l137:	
  2694  1753                     	line	247
  2695                           	
  2696                           l3334:	
  2697  1753                     ;ROKZ1.c: 246:                 char buffer1[20];;ROKZ1.c: 247:                 sprintf(b
                                 uffer1,"%d",s);
  2698                           	movlw	low(((STR_13)|8000h))
  2699  1753  30DD               	bcf	status, 5	;RP0=0, select bank0
  2700  1754  1283               	bcf	status, 6	;RP1=0, select bank0
  2701  1755  1303               	movwf	(sprintf@f)
  2702  1756  00AD               	movlw	high(((STR_13)|8000h))
  2703  1757  3099               	movwf	((sprintf@f))+1
  2704  1758  00AE               	bsf	status, 5	;RP0=1, select bank3
  2705  1759  1683               	bsf	status, 6	;RP1=1, select bank3
  2706  175A  1703               	movf	(main@s+1)^0180h,w
  2707  175B  083D               	bcf	status, 5	;RP0=0, select bank0
  2708  175C  1283               	bcf	status, 6	;RP1=0, select bank0
  2709  175D  1303               	movwf	1+(?_sprintf)+02h
  2710  175E  00B0               	bsf	status, 5	;RP0=1, select bank3
  2711  175F  1683               	bsf	status, 6	;RP1=1, select bank3
  2712  1760  1703               	movf	(main@s)^0180h,w
  2713  1761  083C               	bcf	status, 5	;RP0=0, select bank0
  2714  1762  1283               	bcf	status, 6	;RP1=0, select bank0
  2715  1763  1303               	movwf	0+(?_sprintf)+02h
  2716  1764  00AF               	movlw	(low(main@buffer1|((0x0)<<8)))&0ffh
  2717  1765  304E               	fcall	_sprintf
  2718  1766  160A  118A  2001  160A  118A  	line	248
  2719                           	
  2720                           l3336:	
  2721  176B                     ;ROKZ1.c: 248:                 printf("\rSabiranje -> ");
  2722                           	movlw	low(((STR_14)|8000h))
  2723  176B  303D               	bcf	status, 5	;RP0=0, select bank0
  2724  176C  1283               	bcf	status, 6	;RP1=0, select bank0
  2725  176D  1303               	movwf	(printf@f)
  2726  176E  00AD               	movlw	high(((STR_14)|8000h))
  2727  176F  3099               	movwf	((printf@f))+1
  2728  1770  00AE               	fcall	_printf
  2729  1771  160A  158A  27E5  160A  118A  	line	249
  2730                           	
  2731                           l3338:	
  2732  1776                     ;ROKZ1.c: 249:                 printf(buffer1);
  2733                           	movlw	(low(main@buffer1|((0x0)<<8))&0ffh)
  2734  1776  304E               	bcf	status, 5	;RP0=0, select bank0
  2735  1777  1283               	bcf	status, 6	;RP1=0, select bank0
  2736  1778  1303               	movwf	(printf@f)
  2737  1779  00AD               	movlw	(0x0)
  2738  177A  3000               	movwf	(printf@f+1)
  2739  177B  00AE               	fcall	_printf
  2740  177C  160A  158A  27E5  160A  118A  	line	250
  2741                           	
  2742                           l3340:	
  2743  1781                     ;ROKZ1.c: 250:                 printf("\r\r");
  2744                           	movlw	low(((STR_15)|8000h))
  2745  1781  30E0               	bcf	status, 5	;RP0=0, select bank0
  2746  1782  1283               	bcf	status, 6	;RP1=0, select bank0
  2747  1783  1303               	movwf	(printf@f)
  2748  1784  00AD               	movlw	high(((STR_15)|8000h))
  2749  1785  3099               	movwf	((printf@f))+1
  2750  1786  00AE               	fcall	_printf
  2751  1787  160A  158A  27E5  160A  118A  	line	252
  2752                           	
  2753                           l3342:	
  2754  178C                     ;ROKZ1.c: 252:                 Lcd_Set_Cursor(2,1);
  2755                           	clrf	(Lcd_Set_Cursor@b)
  2756  178C  01F4               	incf	(Lcd_Set_Cursor@b),f
  2757  178D  0AF4               	movlw	low(02h)
  2758  178E  3002               	fcall	_Lcd_Set_Cursor
  2759  178F  120A  118A  2013  160A  118A  	line	253
  2760                           	
  2761                           l3344:	
  2762  1794                     ;ROKZ1.c: 253:                 Lcd_Write_Char(a2);
  2763                           	bsf	status, 5	;RP0=1, select bank3
  2764  1794  1683               	bsf	status, 6	;RP1=1, select bank3
  2765  1795  1703               	movf	(main@a2)^0180h,w
  2766  1796  082A               	fcall	_Lcd_Write_Char
  2767  1797  160A  118A  206E  160A  118A  	line	254
  2768                           	
  2769                           l3346:	
  2770  179C                     ;ROKZ1.c: 254:                 Lcd_Set_Cursor(2,3);
  2771                           	movlw	low(03h)
  2772  179C  3003               	bcf	status, 5	;RP0=0, select bank0
  2773  179D  1283               	bcf	status, 6	;RP1=0, select bank0
  2774  179E  1303               	movwf	(??_main+0)+0
  2775  179F  00C0               	movf	(??_main+0)+0,w
  2776  17A0  0840               	movwf	(Lcd_Set_Cursor@b)
  2777  17A1  00F4               	movlw	low(02h)
  2778  17A2  3002               	fcall	_Lcd_Set_Cursor
  2779  17A3  120A  118A  2013  160A  118A  	line	255
  2780                           	
  2781                           l3348:	
  2782  17A8                     ;ROKZ1.c: 255:                 Lcd_Write_Char('+');
  2783                           	movlw	low(02Bh)
  2784  17A8  302B               	fcall	_Lcd_Write_Char
  2785  17A9  160A  118A  206E  160A  118A  	line	256
  2786                           	
  2787                           l3350:	
  2788  17AE                     ;ROKZ1.c: 256:                 Lcd_Set_Cursor(2,5);
  2789                           	movlw	low(05h)
  2790  17AE  3005               	bcf	status, 5	;RP0=0, select bank0
  2791  17AF  1283               	bcf	status, 6	;RP1=0, select bank0
  2792  17B0  1303               	movwf	(??_main+0)+0
  2793  17B1  00C0               	movf	(??_main+0)+0,w
  2794  17B2  0840               	movwf	(Lcd_Set_Cursor@b)
  2795  17B3  00F4               	movlw	low(02h)
  2796  17B4  3002               	fcall	_Lcd_Set_Cursor
  2797  17B5  120A  118A  2013  160A  118A  	line	257
  2798                           	
  2799                           l3352:	
  2800  17BA                     ;ROKZ1.c: 257:                 Lcd_Write_Char(a4);
  2801                           	bsf	status, 5	;RP0=1, select bank3
  2802  17BA  1683               	bsf	status, 6	;RP1=1, select bank3
  2803  17BB  1703               	movf	(main@a4)^0180h,w
  2804  17BC  082C               	fcall	_Lcd_Write_Char
  2805  17BD  160A  118A  206E  160A  118A  	line	258
  2806                           	
  2807                           l3354:	
  2808  17C2                     ;ROKZ1.c: 258:                 Lcd_Set_Cursor(2,7);
  2809                           	movlw	low(07h)
  2810  17C2  3007               	bcf	status, 5	;RP0=0, select bank0
  2811  17C3  1283               	bcf	status, 6	;RP1=0, select bank0
  2812  17C4  1303               	movwf	(??_main+0)+0
  2813  17C5  00C0               	movf	(??_main+0)+0,w
  2814  17C6  0840               	movwf	(Lcd_Set_Cursor@b)
  2815  17C7  00F4               	movlw	low(02h)
  2816  17C8  3002               	fcall	_Lcd_Set_Cursor
  2817  17C9  120A  118A  2013  160A  118A  	line	259
  2818                           	
  2819                           l3356:	
  2820  17CE                     ;ROKZ1.c: 259:                 Lcd_Write_Char('=');
  2821                           	movlw	low(03Dh)
  2822  17CE  303D               	fcall	_Lcd_Write_Char
  2823  17CF  160A  118A  206E  160A  118A  	line	260
  2824                           	
  2825                           l3358:	
  2826  17D4                     ;ROKZ1.c: 260:                 Lcd_Set_Cursor(2,9);
  2827                           	movlw	low(09h)
  2828  17D4  3009               	bcf	status, 5	;RP0=0, select bank0
  2829  17D5  1283               	bcf	status, 6	;RP1=0, select bank0
  2830  17D6  1303               	movwf	(??_main+0)+0
  2831  17D7  00C0               	movf	(??_main+0)+0,w
  2832  17D8  0840               	movwf	(Lcd_Set_Cursor@b)
  2833  17D9  00F4               	movlw	low(02h)
  2834  17DA  3002               	fcall	_Lcd_Set_Cursor
  2835  17DB  120A  118A  2013  160A  118A  	line	261
  2836                           	
  2837                           l3360:	
  2838  17E0                     ;ROKZ1.c: 261:                 Lcd_Write_String(buffer1);
  2839                           	movlw	(low(main@buffer1|((0x0)<<8))&0ffh)
  2840  17E0  304E               	movwf	(Lcd_Write_String@a)
  2841  17E1  00F5               	movlw	(0x0)
  2842  17E2  3000               	movwf	(Lcd_Write_String@a+1)
  2843  17E3  00F6               	fcall	_Lcd_Write_String
  2844  17E4  160A  118A  20E8  160A  118A  	line	262
  2845                           	
  2846                           l3362:	
  2847  17E9                     ;ROKZ1.c: 262:                 _delay((unsigned long)((500)*(20000000/4000.0)));
  2848                           	opt asmopt_push
  2849                           opt asmopt_off
  2850                           movlw  13
  2851  17E9  300D               	bcf	status, 5	;RP0=0, select bank0
  2852  17EA  1283               	bcf	status, 6	;RP1=0, select bank0
  2853  17EB  1303               movwf	((??_main+0)+0+2),f
  2854  17EC  00C2               movlw	175
  2855  17ED  30AF               movwf	((??_main+0)+0+1),f
  2856  17EE  00C1               	movlw	181
  2857  17EF  30B5               movwf	((??_main+0)+0),f
  2858  17F0  00C0               	u4237:
  2859  17F1                     decfsz	((??_main+0)+0),f
  2860  17F1  0BC0               	goto	u4237
  2861  17F2  2FF1               	decfsz	((??_main+0)+0+1),f
  2862  17F3  0BC1               	goto	u4237
  2863  17F4  2FF1               	decfsz	((??_main+0)+0+2),f
  2864  17F5  0BC2               	goto	u4237
  2865  17F6  2FF1               	nop2
  2866  17F7  2FF8               opt asmopt_pop
  2867                           
  2868                           	line	263
  2869                           	
  2870                           l3364:	
  2871  17F8                     ;ROKZ1.c: 263:                 Lcd_Clear();
  2872                           	fcall	_Lcd_Clear
  2873  17F8  160A  158A  276E  160A  118A  	line	266
  2874                           ;ROKZ1.c: 266:                 break;
  2875                           	goto	l3712
  2876  17FD  120A  118A  2FDC   	line	268
  2877                           ;ROKZ1.c: 268:             case '2':
  2878                           	
  2879                           l139:	
  2880  0129                     	line	269
  2881                           	
  2882                           l3366:	
  2883  0129                     ;ROKZ1.c: 269:                 printf("\r\rOdabrali ste oduzimanje!");
  2884                           	movlw	low(((STR_16)|8000h))
  2885  0129  30A9               	bcf	status, 5	;RP0=0, select bank0
  2886  012A  1283               	bcf	status, 6	;RP1=0, select bank0
  2887  012B  1303               	movwf	(printf@f)
  2888  012C  00AD               	movlw	high(((STR_16)|8000h))
  2889  012D  3098               	movwf	((printf@f))+1
  2890  012E  00AE               	fcall	_printf
  2891  012F  160A  158A  27E5  120A  118A  	line	270
  2892                           	
  2893                           l3368:	
  2894  0134                     ;ROKZ1.c: 270:                 Lcd_Set_Cursor(1,1);
  2895                           	clrf	(Lcd_Set_Cursor@b)
  2896  0134  01F4               	incf	(Lcd_Set_Cursor@b),f
  2897  0135  0AF4               	movlw	low(01h)
  2898  0136  3001               	fcall	_Lcd_Set_Cursor
  2899  0137  120A  118A  2013  120A  118A  	line	271
  2900                           	
  2901                           l3370:	
  2902  013C                     ;ROKZ1.c: 271:                 Lcd_Write_String("Oduzimanje:");
  2903                           	movlw	low(((STR_17)|8000h))
  2904  013C  30B7               	movwf	(Lcd_Write_String@a)
  2905  013D  00F5               	movlw	high(((STR_17)|8000h))
  2906  013E  3099               	movwf	((Lcd_Write_String@a))+1
  2907  013F  00F6               	fcall	_Lcd_Write_String
  2908  0140  160A  118A  20E8  120A  118A  	line	273
  2909                           	
  2910                           l3372:	
  2911  0145                     ;ROKZ1.c: 273:                 printf("\r\rUnesite prvi broj: ");
  2912                           	movlw	low(((STR_18)|8000h))
  2913  0145  3027               	bcf	status, 5	;RP0=0, select bank0
  2914  0146  1283               	bcf	status, 6	;RP1=0, select bank0
  2915  0147  1303               	movwf	(printf@f)
  2916  0148  00AD               	movlw	high(((STR_18)|8000h))
  2917  0149  3099               	movwf	((printf@f))+1
  2918  014A  00AE               	fcall	_printf
  2919  014B  160A  158A  27E5  120A  118A  	line	274
  2920                           	
  2921                           l3374:	
  2922  0150                     ;ROKZ1.c: 274:                 int r2=UART_Get_Char();
  2923                           	fcall	_UART_Get_Char
  2924  0150  160A  158A  277B  120A  118A  	bcf	status, 5	;RP0=0, select bank0
  2925  0155  1283               	bcf	status, 6	;RP1=0, select bank0
  2926  0156  1303               	movwf	(??_main+0)+0
  2927  0157  00C0               	clrf	(??_main+0)+0+1
  2928  0158  01C1               	movf	0+(??_main+0)+0,w
  2929  0159  0840               	bsf	status, 5	;RP0=1, select bank3
  2930  015A  1683               	bsf	status, 6	;RP1=1, select bank3
  2931  015B  1703               	movwf	(main@r2)^0180h
  2932  015C  00AE               	bcf	status, 5	;RP0=0, select bank0
  2933  015D  1283               	bcf	status, 6	;RP1=0, select bank0
  2934  015E  1303               	movf	1+(??_main+0)+0,w
  2935  015F  0841               	bsf	status, 5	;RP0=1, select bank3
  2936  0160  1683               	bsf	status, 6	;RP1=1, select bank3
  2937  0161  1703               	movwf	(main@r2+1)^0180h
  2938  0162  00AF               	line	275
  2939                           	
  2940                           l3376:	
  2941  0163                     ;ROKZ1.c: 275:                 UART_Send_Char(r2);
  2942                           	movf	(main@r2)^0180h,w
  2943  0163  082E               	fcall	_UART_Send_Char
  2944  0164  120A  158A  2000  120A  118A  	line	276
  2945                           	
  2946                           l3378:	
  2947  0169                     ;ROKZ1.c: 276:                 int r1=r2-48;
  2948                           	bsf	status, 5	;RP0=1, select bank3
  2949  0169  1683               	bsf	status, 6	;RP1=1, select bank3
  2950  016A  1703               	movf	(main@r2)^0180h,w
  2951  016B  082E               	addlw	low(-48)
  2952  016C  3ED0               	movwf	(main@r1)^0180h
  2953  016D  009E               	movf	(main@r2+1)^0180h,w
  2954  016E  082F               	skipnc
  2955  016F  1803               	addlw	1
  2956  0170  3E01               	addlw	high(-48)
  2957  0171  3EFF               	movwf	1+(main@r1)^0180h
  2958  0172  009F               	line	277
  2959                           	
  2960                           l3380:	
  2961  0173                     ;ROKZ1.c: 277:                 RC1=1;
  2962                           	bcf	status, 5	;RP0=0, select bank0
  2963  0173  1283               	bcf	status, 6	;RP1=0, select bank0
  2964  0174  1303               	bsf	(57/8),(57)&7	;volatile
  2965  0175  1487               	line	278
  2966                           	
  2967                           l3382:	
  2968  0176                     ;ROKZ1.c: 278:                 RC2=1;
  2969                           	bsf	(58/8),(58)&7	;volatile
  2970  0176  1507               	line	279
  2971                           	
  2972                           l3384:	
  2973  0177                     ;ROKZ1.c: 279:                 RC3=1;
  2974                           	bsf	(59/8),(59)&7	;volatile
  2975  0177  1587               	line	280
  2976                           	
  2977                           l3386:	
  2978  0178                     ;ROKZ1.c: 280:                 PORTB=DISPLEJ[r1];
  2979                           	bsf	status, 5	;RP0=1, select bank3
  2980  0178  1683               	bsf	status, 6	;RP1=1, select bank3
  2981  0179  1703               	movf	(main@r1)^0180h,w
  2982  017A  081E               	addlw	low(main@DISPLEJ|((0x1)<<8))&0ffh
  2983  017B  3E90               	movwf	fsr0
  2984  017C  0084               	bsf	status, 7	;select IRP bank3
  2985  017D  1783               	movf	indf,w
  2986  017E  0800               	bcf	status, 5	;RP0=0, select bank0
  2987  017F  1283               	bcf	status, 6	;RP1=0, select bank0
  2988  0180  1303               	movwf	(6)	;volatile
  2989  0181  0086               	line	281
  2990                           	
  2991                           l3388:	
  2992  0182                     ;ROKZ1.c: 281:                 RC0=0;
  2993                           	bcf	(56/8),(56)&7	;volatile
  2994  0182  1007               	line	283
  2995                           	
  2996                           l3390:	
  2997  0183                     ;ROKZ1.c: 283:                 printf("\rUnesite drugi broj: ");
  2998                           	movlw	low(((STR_19)|8000h))
  2999  0183  3011               	movwf	(printf@f)
  3000  0184  00AD               	movlw	high(((STR_19)|8000h))
  3001  0185  3099               	movwf	((printf@f))+1
  3002  0186  00AE               	fcall	_printf
  3003  0187  160A  158A  27E5  120A  118A  	line	284
  3004                           	
  3005                           l3392:	
  3006  018C                     ;ROKZ1.c: 284:                 int r4=UART_Get_Char();
  3007                           	fcall	_UART_Get_Char
  3008  018C  160A  158A  277B  120A  118A  	bcf	status, 5	;RP0=0, select bank0
  3009  0191  1283               	bcf	status, 6	;RP1=0, select bank0
  3010  0192  1303               	movwf	(??_main+0)+0
  3011  0193  00C0               	clrf	(??_main+0)+0+1
  3012  0194  01C1               	movf	0+(??_main+0)+0,w
  3013  0195  0840               	bsf	status, 5	;RP0=1, select bank3
  3014  0196  1683               	bsf	status, 6	;RP1=1, select bank3
  3015  0197  1703               	movwf	(main@r4)^0180h
  3016  0198  00B0               	bcf	status, 5	;RP0=0, select bank0
  3017  0199  1283               	bcf	status, 6	;RP1=0, select bank0
  3018  019A  1303               	movf	1+(??_main+0)+0,w
  3019  019B  0841               	bsf	status, 5	;RP0=1, select bank3
  3020  019C  1683               	bsf	status, 6	;RP1=1, select bank3
  3021  019D  1703               	movwf	(main@r4+1)^0180h
  3022  019E  00B1               	line	285
  3023                           	
  3024                           l3394:	
  3025  019F                     ;ROKZ1.c: 285:                 UART_Send_Char(r4);
  3026                           	movf	(main@r4)^0180h,w
  3027  019F  0830               	fcall	_UART_Send_Char
  3028  01A0  120A  158A  2000  120A  118A  	line	286
  3029                           	
  3030                           l3396:	
  3031  01A5                     ;ROKZ1.c: 286:                 int r3=r4-48;
  3032                           	bsf	status, 5	;RP0=1, select bank3
  3033  01A5  1683               	bsf	status, 6	;RP1=1, select bank3
  3034  01A6  1703               	movf	(main@r4)^0180h,w
  3035  01A7  0830               	addlw	low(-48)
  3036  01A8  3ED0               	movwf	(main@r3)^0180h
  3037  01A9  00A0               	movf	(main@r4+1)^0180h,w
  3038  01AA  0831               	skipnc
  3039  01AB  1803               	addlw	1
  3040  01AC  3E01               	addlw	high(-48)
  3041  01AD  3EFF               	movwf	1+(main@r3)^0180h
  3042  01AE  00A1               	line	287
  3043                           	
  3044                           l3398:	
  3045  01AF                     ;ROKZ1.c: 287:                 RC0=1;
  3046                           	bcf	status, 5	;RP0=0, select bank0
  3047  01AF  1283               	bcf	status, 6	;RP1=0, select bank0
  3048  01B0  1303               	bsf	(56/8),(56)&7	;volatile
  3049  01B1  1407               	line	288
  3050                           	
  3051                           l3400:	
  3052  01B2                     ;ROKZ1.c: 288:                 RC2=1;
  3053                           	bsf	(58/8),(58)&7	;volatile
  3054  01B2  1507               	line	289
  3055                           	
  3056                           l3402:	
  3057  01B3                     ;ROKZ1.c: 289:                 RC3=1;
  3058                           	bsf	(59/8),(59)&7	;volatile
  3059  01B3  1587               	line	290
  3060                           	
  3061                           l3404:	
  3062  01B4                     ;ROKZ1.c: 290:                 PORTB=DISPLEJ[r3];
  3063                           	bsf	status, 5	;RP0=1, select bank3
  3064  01B4  1683               	bsf	status, 6	;RP1=1, select bank3
  3065  01B5  1703               	movf	(main@r3)^0180h,w
  3066  01B6  0820               	addlw	low(main@DISPLEJ|((0x1)<<8))&0ffh
  3067  01B7  3E90               	movwf	fsr0
  3068  01B8  0084               	bsf	status, 7	;select IRP bank3
  3069  01B9  1783               	movf	indf,w
  3070  01BA  0800               	bcf	status, 5	;RP0=0, select bank0
  3071  01BB  1283               	bcf	status, 6	;RP1=0, select bank0
  3072  01BC  1303               	movwf	(6)	;volatile
  3073  01BD  0086               	line	291
  3074                           	
  3075                           l3406:	
  3076  01BE                     ;ROKZ1.c: 291:                 RC1=0;
  3077                           	bcf	(57/8),(57)&7	;volatile
  3078  01BE  1087               	line	292
  3079                           	
  3080                           l3408:	
  3081  01BF                     ;ROKZ1.c: 292:                 _delay((unsigned long)((250)*(20000000/4000.0)));
  3082                           	opt asmopt_push
  3083                           opt asmopt_off
  3084                           movlw  7
  3085  01BF  3007               	bcf	status, 5	;RP0=0, select bank0
  3086  01C0  1283               	bcf	status, 6	;RP1=0, select bank0
  3087  01C1  1303               movwf	((??_main+0)+0+2),f
  3088  01C2  00C2               movlw	88
  3089  01C3  3058               movwf	((??_main+0)+0+1),f
  3090  01C4  00C1               	movlw	89
  3091  01C5  3059               movwf	((??_main+0)+0),f
  3092  01C6  00C0               	u4247:
  3093  01C7                     decfsz	((??_main+0)+0),f
  3094  01C7  0BC0               	goto	u4247
  3095  01C8  29C7               	decfsz	((??_main+0)+0+1),f
  3096  01C9  0BC1               	goto	u4247
  3097  01CA  29C7               	decfsz	((??_main+0)+0+2),f
  3098  01CB  0BC2               	goto	u4247
  3099  01CC  29C7               opt asmopt_pop
  3100                           
  3101                           	line	293
  3102                           	
  3103                           l3410:	
  3104  01CD                     ;ROKZ1.c: 293:                 int r=(r1-r3);
  3105                           	bsf	status, 5	;RP0=1, select bank3
  3106  01CD  1683               	bsf	status, 6	;RP1=1, select bank3
  3107  01CE  1703               	comf	(main@r3)^0180h,w
  3108  01CF  0920               	bcf	status, 5	;RP0=0, select bank0
  3109  01D0  1283               	bcf	status, 6	;RP1=0, select bank0
  3110  01D1  1303               	movwf	(??_main+0)+0
  3111  01D2  00C0               	bsf	status, 5	;RP0=1, select bank3
  3112  01D3  1683               	bsf	status, 6	;RP1=1, select bank3
  3113  01D4  1703               	comf	(main@r3+1)^0180h,w
  3114  01D5  0921               	bcf	status, 5	;RP0=0, select bank0
  3115  01D6  1283               	bcf	status, 6	;RP1=0, select bank0
  3116  01D7  1303               	movwf	((??_main+0)+0+1)
  3117  01D8  00C1               	incf	(??_main+0)+0,f
  3118  01D9  0AC0               	skipnz
  3119  01DA  1903               	incf	((??_main+0)+0+1),f
  3120  01DB  0AC1               	bsf	status, 5	;RP0=1, select bank3
  3121  01DC  1683               	bsf	status, 6	;RP1=1, select bank3
  3122  01DD  1703               	movf	(main@r1)^0180h,w
  3123  01DE  081E               	bcf	status, 5	;RP0=0, select bank0
  3124  01DF  1283               	bcf	status, 6	;RP1=0, select bank0
  3125  01E0  1303               	addwf	0+(??_main+0)+0,w
  3126  01E1  0740               	bsf	status, 5	;RP0=1, select bank3
  3127  01E2  1683               	bsf	status, 6	;RP1=1, select bank3
  3128  01E3  1703               	movwf	(main@r)^0180h
  3129  01E4  00BE               	movf	(main@r1+1)^0180h,w
  3130  01E5  081F               	skipnc
  3131  01E6  1803               	incf	(main@r1+1)^0180h,w
  3132  01E7  0A1F               	bcf	status, 5	;RP0=0, select bank0
  3133  01E8  1283               	bcf	status, 6	;RP1=0, select bank0
  3134  01E9  1303               	addwf	1+(??_main+0)+0,w
  3135  01EA  0741               	bsf	status, 5	;RP0=1, select bank3
  3136  01EB  1683               	bsf	status, 6	;RP1=1, select bank3
  3137  01EC  1703               	movwf	1+(main@r)^0180h
  3138  01ED  00BF               	line	295
  3139                           	
  3140                           l3412:	
  3141  01EE                     ;ROKZ1.c: 295:                 if(r<0) {
  3142                           	btfss	(main@r+1)^0180h,7
  3143  01EE  1FBF               	goto	u4161
  3144  01EF  29F1               	goto	u4160
  3145  01F0  29F2               u4161:
  3146  01F1                     	goto	l140
  3147  01F1  2A63               u4160:
  3148  01F2                     	line	296
  3149                           	
  3150                           l3414:	
  3151  01F2                     ;ROKZ1.c: 296:                     char minus[1]={0x40};
  3152                           	movf	(main@F1135)^0180h,w
  3153  01F2  0856               	bcf	status, 5	;RP0=0, select bank0
  3154  01F3  1283               	bcf	status, 6	;RP1=0, select bank0
  3155  01F4  1303               	movwf	(??_main+0)+0
  3156  01F5  00C0               	movf	(??_main+0)+0,w
  3157  01F6  0840               	movwf	(main@minus)
  3158  01F7  00EA               	line	299
  3159                           	
  3160                           l3416:	
  3161  01F8                     ;ROKZ1.c: 298:                     int broj1;;ROKZ1.c: 299:                     broj1=r/
                                 10;
  3162                           	movlw	0Ah
  3163  01F8  300A               	movwf	(___awdiv@divisor)
  3164  01F9  00F0               	movlw	0
  3165  01FA  3000               	movwf	((___awdiv@divisor))+1
  3166  01FB  00F1               	bsf	status, 5	;RP0=1, select bank3
  3167  01FC  1683               	bsf	status, 6	;RP1=1, select bank3
  3168  01FD  1703               	movf	(main@r+1)^0180h,w
  3169  01FE  083F               	movwf	(___awdiv@dividend+1)
  3170  01FF  00F3               	movf	(main@r)^0180h,w
  3171  0200  083E               	movwf	(___awdiv@dividend)
  3172  0201  00F2               	fcall	___awdiv
  3173  0202  160A  118A  2238  120A  118A  	movf	(1+(?___awdiv)),w
  3174  0207  0871               	bsf	status, 5	;RP0=1, select bank1
  3175  0208  1683               	bcf	status, 6	;RP1=0, select bank1
  3176  0209  1303               	movwf	(main@broj1_150+1)^080h
  3177  020A  00E1               	movf	(0+(?___awdiv)),w
  3178  020B  0870               	movwf	(main@broj1_150)^080h
  3179  020C  00E0               	line	300
  3180                           	
  3181                           l3418:	
  3182  020D                     ;ROKZ1.c: 300:                     RC0=1;
  3183                           	bcf	status, 5	;RP0=0, select bank0
  3184  020D  1283               	bcf	status, 6	;RP1=0, select bank0
  3185  020E  1303               	bsf	(56/8),(56)&7	;volatile
  3186  020F  1407               	line	301
  3187                           	
  3188                           l3420:	
  3189  0210                     ;ROKZ1.c: 301:                     RC1=1;
  3190                           	bsf	(57/8),(57)&7	;volatile
  3191  0210  1487               	line	302
  3192                           	
  3193                           l3422:	
  3194  0211                     ;ROKZ1.c: 302:                     RC3=1;
  3195                           	bsf	(59/8),(59)&7	;volatile
  3196  0211  1587               	line	303
  3197                           	
  3198                           l3424:	
  3199  0212                     ;ROKZ1.c: 303:                     PORTB=minus[broj1];
  3200                           	bsf	status, 5	;RP0=1, select bank1
  3201  0212  1683               	bcf	status, 6	;RP1=0, select bank1
  3202  0213  1303               	movf	(main@broj1_150)^080h,w
  3203  0214  0860               	addlw	low(main@minus|((0x0)<<8))&0ffh
  3204  0215  3E6A               	movwf	fsr0
  3205  0216  0084               	bcf	status, 7	;select IRP bank0
  3206  0217  1383               	movf	indf,w
  3207  0218  0800               	bcf	status, 5	;RP0=0, select bank0
  3208  0219  1283               	bcf	status, 6	;RP1=0, select bank0
  3209  021A  1303               	movwf	(6)	;volatile
  3210  021B  0086               	line	304
  3211                           	
  3212                           l3426:	
  3213  021C                     ;ROKZ1.c: 304:                     RC2=0;
  3214                           	bcf	(58/8),(58)&7	;volatile
  3215  021C  1107               	line	305
  3216                           	
  3217                           l3428:	
  3218  021D                     ;ROKZ1.c: 305:                     _delay((unsigned long)((250)*(20000000/4000.0)));
  3219                           	opt asmopt_push
  3220                           opt asmopt_off
  3221                           movlw  7
  3222  021D  3007               	bcf	status, 5	;RP0=0, select bank0
  3223  021E  1283               	bcf	status, 6	;RP1=0, select bank0
  3224  021F  1303               movwf	((??_main+0)+0+2),f
  3225  0220  00C2               movlw	88
  3226  0221  3058               movwf	((??_main+0)+0+1),f
  3227  0222  00C1               	movlw	89
  3228  0223  3059               movwf	((??_main+0)+0),f
  3229  0224  00C0               	u4257:
  3230  0225                     decfsz	((??_main+0)+0),f
  3231  0225  0BC0               	goto	u4257
  3232  0226  2A25               	decfsz	((??_main+0)+0+1),f
  3233  0227  0BC1               	goto	u4257
  3234  0228  2A25               	decfsz	((??_main+0)+0+2),f
  3235  0229  0BC2               	goto	u4257
  3236  022A  2A25               opt asmopt_pop
  3237                           
  3238                           	line	307
  3239                           	
  3240                           l3430:	
  3241  022B                     ;ROKZ1.c: 307:                     int broj2=r*(-1);
  3242                           	bsf	status, 5	;RP0=1, select bank3
  3243  022B  1683               	bsf	status, 6	;RP1=1, select bank3
  3244  022C  1703               	comf	(main@r)^0180h,w
  3245  022D  093E               	bcf	status, 5	;RP0=0, select bank0
  3246  022E  1283               	bcf	status, 6	;RP1=0, select bank0
  3247  022F  1303               	movwf	(??_main+0)+0
  3248  0230  00C0               	bsf	status, 5	;RP0=1, select bank3
  3249  0231  1683               	bsf	status, 6	;RP1=1, select bank3
  3250  0232  1703               	comf	(main@r+1)^0180h,w
  3251  0233  093F               	bcf	status, 5	;RP0=0, select bank0
  3252  0234  1283               	bcf	status, 6	;RP1=0, select bank0
  3253  0235  1303               	movwf	((??_main+0)+0+1)
  3254  0236  00C1               	incf	(??_main+0)+0,f
  3255  0237  0AC0               	skipnz
  3256  0238  1903               	incf	((??_main+0)+0+1),f
  3257  0239  0AC1               	movf	0+(??_main+0)+0,w
  3258  023A  0840               	bsf	status, 5	;RP0=1, select bank1
  3259  023B  1683               	bcf	status, 6	;RP1=0, select bank1
  3260  023C  1303               	movwf	(main@broj2_151)^080h
  3261  023D  00E2               	bcf	status, 5	;RP0=0, select bank0
  3262  023E  1283               	bcf	status, 6	;RP1=0, select bank0
  3263  023F  1303               	movf	1+(??_main+0)+0,w
  3264  0240  0841               	bsf	status, 5	;RP0=1, select bank1
  3265  0241  1683               	bcf	status, 6	;RP1=0, select bank1
  3266  0242  1303               	movwf	(main@broj2_151+1)^080h
  3267  0243  00E3               	line	308
  3268                           	
  3269                           l3432:	
  3270  0244                     ;ROKZ1.c: 308:                     RC0=1;
  3271                           	bcf	status, 5	;RP0=0, select bank0
  3272  0244  1283               	bcf	status, 6	;RP1=0, select bank0
  3273  0245  1303               	bsf	(56/8),(56)&7	;volatile
  3274  0246  1407               	line	309
  3275                           	
  3276                           l3434:	
  3277  0247                     ;ROKZ1.c: 309:                     RC1=1;
  3278                           	bsf	(57/8),(57)&7	;volatile
  3279  0247  1487               	line	310
  3280                           	
  3281                           l3436:	
  3282  0248                     ;ROKZ1.c: 310:                     RC2=1;
  3283                           	bsf	(58/8),(58)&7	;volatile
  3284  0248  1507               	line	311
  3285                           	
  3286                           l3438:	
  3287  0249                     ;ROKZ1.c: 311:                     PORTB=DISPLEJ[broj2];
  3288                           	bsf	status, 5	;RP0=1, select bank1
  3289  0249  1683               	bcf	status, 6	;RP1=0, select bank1
  3290  024A  1303               	movf	(main@broj2_151)^080h,w
  3291  024B  0862               	addlw	low(main@DISPLEJ|((0x1)<<8))&0ffh
  3292  024C  3E90               	movwf	fsr0
  3293  024D  0084               	bsf	status, 7	;select IRP bank3
  3294  024E  1783               	movf	indf,w
  3295  024F  0800               	bcf	status, 5	;RP0=0, select bank0
  3296  0250  1283               	bcf	status, 6	;RP1=0, select bank0
  3297  0251  1303               	movwf	(6)	;volatile
  3298  0252  0086               	line	312
  3299                           	
  3300                           l3440:	
  3301  0253                     ;ROKZ1.c: 312:                     RC3=0;
  3302                           	bcf	(59/8),(59)&7	;volatile
  3303  0253  1187               	line	313
  3304                           	
  3305                           l3442:	
  3306  0254                     ;ROKZ1.c: 313:                     _delay((unsigned long)((250)*(20000000/4000.0)));
  3307                           	opt asmopt_push
  3308                           opt asmopt_off
  3309                           movlw  7
  3310  0254  3007               	bcf	status, 5	;RP0=0, select bank0
  3311  0255  1283               	bcf	status, 6	;RP1=0, select bank0
  3312  0256  1303               movwf	((??_main+0)+0+2),f
  3313  0257  00C2               movlw	88
  3314  0258  3058               movwf	((??_main+0)+0+1),f
  3315  0259  00C1               	movlw	89
  3316  025A  3059               movwf	((??_main+0)+0),f
  3317  025B  00C0               	u4267:
  3318  025C                     decfsz	((??_main+0)+0),f
  3319  025C  0BC0               	goto	u4267
  3320  025D  2A5C               	decfsz	((??_main+0)+0+1),f
  3321  025E  0BC1               	goto	u4267
  3322  025F  2A5C               	decfsz	((??_main+0)+0+2),f
  3323  0260  0BC2               	goto	u4267
  3324  0261  2A5C               opt asmopt_pop
  3325                           
  3326                           	line	314
  3327                           ;ROKZ1.c: 314:                 }
  3328                           	goto	l3450
  3329  0262  2A82               	line	315
  3330                           ;ROKZ1.c: 315:                 else {
  3331                           	
  3332                           l140:	
  3333  0263                     	line	316
  3334                           ;ROKZ1.c: 316:                     RC0=1;
  3335                           	bcf	status, 5	;RP0=0, select bank0
  3336  0263  1283               	bcf	status, 6	;RP1=0, select bank0
  3337  0264  1303               	bsf	(56/8),(56)&7	;volatile
  3338  0265  1407               	line	317
  3339                           ;ROKZ1.c: 317:                     RC1=1;
  3340                           	bsf	(57/8),(57)&7	;volatile
  3341  0266  1487               	line	318
  3342                           ;ROKZ1.c: 318:                     RC3=1;
  3343                           	bsf	(59/8),(59)&7	;volatile
  3344  0267  1587               	line	319
  3345                           	
  3346                           l3444:	
  3347  0268                     ;ROKZ1.c: 319:                     PORTB=DISPLEJ[r];
  3348                           	bsf	status, 5	;RP0=1, select bank3
  3349  0268  1683               	bsf	status, 6	;RP1=1, select bank3
  3350  0269  1703               	movf	(main@r)^0180h,w
  3351  026A  083E               	addlw	low(main@DISPLEJ|((0x1)<<8))&0ffh
  3352  026B  3E90               	movwf	fsr0
  3353  026C  0084               	bsf	status, 7	;select IRP bank3
  3354  026D  1783               	movf	indf,w
  3355  026E  0800               	bcf	status, 5	;RP0=0, select bank0
  3356  026F  1283               	bcf	status, 6	;RP1=0, select bank0
  3357  0270  1303               	movwf	(6)	;volatile
  3358  0271  0086               	line	320
  3359                           	
  3360                           l3446:	
  3361  0272                     ;ROKZ1.c: 320:                     RC2=0;
  3362                           	bcf	(58/8),(58)&7	;volatile
  3363  0272  1107               	line	321
  3364                           	
  3365                           l3448:	
  3366  0273                     ;ROKZ1.c: 321:                     _delay((unsigned long)((250)*(20000000/4000.0)));
  3367                           	opt asmopt_push
  3368                           opt asmopt_off
  3369                           movlw  7
  3370  0273  3007               	bcf	status, 5	;RP0=0, select bank0
  3371  0274  1283               	bcf	status, 6	;RP1=0, select bank0
  3372  0275  1303               movwf	((??_main+0)+0+2),f
  3373  0276  00C2               movlw	88
  3374  0277  3058               movwf	((??_main+0)+0+1),f
  3375  0278  00C1               	movlw	89
  3376  0279  3059               movwf	((??_main+0)+0),f
  3377  027A  00C0               	u4277:
  3378  027B                     decfsz	((??_main+0)+0),f
  3379  027B  0BC0               	goto	u4277
  3380  027C  2A7B               	decfsz	((??_main+0)+0+1),f
  3381  027D  0BC1               	goto	u4277
  3382  027E  2A7B               	decfsz	((??_main+0)+0+2),f
  3383  027F  0BC2               	goto	u4277
  3384  0280  2A7B               opt asmopt_pop
  3385                           
  3386                           	goto	l3450
  3387  0281  2A82               	line	322
  3388                           ;ROKZ1.c: 322:                 }
  3389                           	
  3390                           l143:	
  3391  0282                     	line	325
  3392                           	
  3393                           l3450:	
  3394  0282                     ;ROKZ1.c: 324:                 char buffer2[20];;ROKZ1.c: 325:                 sprintf(b
                                 uffer2,"%d",r);
  3395                           	movlw	low(((STR_20)|8000h))
  3396  0282  30DD               	bcf	status, 5	;RP0=0, select bank0
  3397  0283  1283               	bcf	status, 6	;RP1=0, select bank0
  3398  0284  1303               	movwf	(sprintf@f)
  3399  0285  00AD               	movlw	high(((STR_20)|8000h))
  3400  0286  3099               	movwf	((sprintf@f))+1
  3401  0287  00AE               	bsf	status, 5	;RP0=1, select bank3
  3402  0288  1683               	bsf	status, 6	;RP1=1, select bank3
  3403  0289  1703               	movf	(main@r+1)^0180h,w
  3404  028A  083F               	bcf	status, 5	;RP0=0, select bank0
  3405  028B  1283               	bcf	status, 6	;RP1=0, select bank0
  3406  028C  1303               	movwf	1+(?_sprintf)+02h
  3407  028D  00B0               	bsf	status, 5	;RP0=1, select bank3
  3408  028E  1683               	bsf	status, 6	;RP1=1, select bank3
  3409  028F  1703               	movf	(main@r)^0180h,w
  3410  0290  083E               	bcf	status, 5	;RP0=0, select bank0
  3411  0291  1283               	bcf	status, 6	;RP1=0, select bank0
  3412  0292  1303               	movwf	0+(?_sprintf)+02h
  3413  0293  00AF               	movlw	(low(main@buffer2|((0x0)<<8)))&0ffh
  3414  0294  30A0               	fcall	_sprintf
  3415  0295  160A  118A  2001  120A  118A  	line	326
  3416                           	
  3417                           l3452:	
  3418  029A                     ;ROKZ1.c: 326:                 printf("\rRazlika -> ");
  3419                           	movlw	low(((STR_21)|8000h))
  3420  029A  3091               	bcf	status, 5	;RP0=0, select bank0
  3421  029B  1283               	bcf	status, 6	;RP1=0, select bank0
  3422  029C  1303               	movwf	(printf@f)
  3423  029D  00AD               	movlw	high(((STR_21)|8000h))
  3424  029E  3099               	movwf	((printf@f))+1
  3425  029F  00AE               	fcall	_printf
  3426  02A0  160A  158A  27E5  120A  118A  	line	327
  3427                           	
  3428                           l3454:	
  3429  02A5                     ;ROKZ1.c: 327:                 printf(buffer2);
  3430                           	movlw	(low(main@buffer2|((0x0)<<8))&0ffh)
  3431  02A5  30A0               	bcf	status, 5	;RP0=0, select bank0
  3432  02A6  1283               	bcf	status, 6	;RP1=0, select bank0
  3433  02A7  1303               	movwf	(printf@f)
  3434  02A8  00AD               	movlw	(0x0)
  3435  02A9  3000               	movwf	(printf@f+1)
  3436  02AA  00AE               	fcall	_printf
  3437  02AB  160A  158A  27E5  120A  118A  	line	328
  3438                           	
  3439                           l3456:	
  3440  02B0                     ;ROKZ1.c: 328:                 printf("\r\r");
  3441                           	movlw	low(((STR_22)|8000h))
  3442  02B0  30E0               	bcf	status, 5	;RP0=0, select bank0
  3443  02B1  1283               	bcf	status, 6	;RP1=0, select bank0
  3444  02B2  1303               	movwf	(printf@f)
  3445  02B3  00AD               	movlw	high(((STR_22)|8000h))
  3446  02B4  3099               	movwf	((printf@f))+1
  3447  02B5  00AE               	fcall	_printf
  3448  02B6  160A  158A  27E5  120A  118A  	line	330
  3449                           	
  3450                           l3458:	
  3451  02BB                     ;ROKZ1.c: 330:                 Lcd_Set_Cursor(2,1);
  3452                           	clrf	(Lcd_Set_Cursor@b)
  3453  02BB  01F4               	incf	(Lcd_Set_Cursor@b),f
  3454  02BC  0AF4               	movlw	low(02h)
  3455  02BD  3002               	fcall	_Lcd_Set_Cursor
  3456  02BE  120A  118A  2013  120A  118A  	line	331
  3457                           	
  3458                           l3460:	
  3459  02C3                     ;ROKZ1.c: 331:                 Lcd_Write_Char(r2);
  3460                           	bsf	status, 5	;RP0=1, select bank3
  3461  02C3  1683               	bsf	status, 6	;RP1=1, select bank3
  3462  02C4  1703               	movf	(main@r2)^0180h,w
  3463  02C5  082E               	fcall	_Lcd_Write_Char
  3464  02C6  160A  118A  206E  120A  118A  	line	332
  3465                           	
  3466                           l3462:	
  3467  02CB                     ;ROKZ1.c: 332:                 Lcd_Set_Cursor(2,3);
  3468                           	movlw	low(03h)
  3469  02CB  3003               	bcf	status, 5	;RP0=0, select bank0
  3470  02CC  1283               	bcf	status, 6	;RP1=0, select bank0
  3471  02CD  1303               	movwf	(??_main+0)+0
  3472  02CE  00C0               	movf	(??_main+0)+0,w
  3473  02CF  0840               	movwf	(Lcd_Set_Cursor@b)
  3474  02D0  00F4               	movlw	low(02h)
  3475  02D1  3002               	fcall	_Lcd_Set_Cursor
  3476  02D2  120A  118A  2013  120A  118A  	line	333
  3477                           	
  3478                           l3464:	
  3479  02D7                     ;ROKZ1.c: 333:                 Lcd_Write_Char('-');
  3480                           	movlw	low(02Dh)
  3481  02D7  302D               	fcall	_Lcd_Write_Char
  3482  02D8  160A  118A  206E  120A  118A  	line	334
  3483                           	
  3484                           l3466:	
  3485  02DD                     ;ROKZ1.c: 334:                 Lcd_Set_Cursor(2,5);
  3486                           	movlw	low(05h)
  3487  02DD  3005               	bcf	status, 5	;RP0=0, select bank0
  3488  02DE  1283               	bcf	status, 6	;RP1=0, select bank0
  3489  02DF  1303               	movwf	(??_main+0)+0
  3490  02E0  00C0               	movf	(??_main+0)+0,w
  3491  02E1  0840               	movwf	(Lcd_Set_Cursor@b)
  3492  02E2  00F4               	movlw	low(02h)
  3493  02E3  3002               	fcall	_Lcd_Set_Cursor
  3494  02E4  120A  118A  2013  120A  118A  	line	335
  3495                           	
  3496                           l3468:	
  3497  02E9                     ;ROKZ1.c: 335:                 Lcd_Write_Char(r4);
  3498                           	bsf	status, 5	;RP0=1, select bank3
  3499  02E9  1683               	bsf	status, 6	;RP1=1, select bank3
  3500  02EA  1703               	movf	(main@r4)^0180h,w
  3501  02EB  0830               	fcall	_Lcd_Write_Char
  3502  02EC  160A  118A  206E  120A  118A  	line	336
  3503                           	
  3504                           l3470:	
  3505  02F1                     ;ROKZ1.c: 336:                 Lcd_Set_Cursor(2,7);
  3506                           	movlw	low(07h)
  3507  02F1  3007               	bcf	status, 5	;RP0=0, select bank0
  3508  02F2  1283               	bcf	status, 6	;RP1=0, select bank0
  3509  02F3  1303               	movwf	(??_main+0)+0
  3510  02F4  00C0               	movf	(??_main+0)+0,w
  3511  02F5  0840               	movwf	(Lcd_Set_Cursor@b)
  3512  02F6  00F4               	movlw	low(02h)
  3513  02F7  3002               	fcall	_Lcd_Set_Cursor
  3514  02F8  120A  118A  2013  120A  118A  	line	337
  3515                           	
  3516                           l3472:	
  3517  02FD                     ;ROKZ1.c: 337:                 Lcd_Write_Char('=');
  3518                           	movlw	low(03Dh)
  3519  02FD  303D               	fcall	_Lcd_Write_Char
  3520  02FE  160A  118A  206E  120A  118A  	line	338
  3521                           	
  3522                           l3474:	
  3523  0303                     ;ROKZ1.c: 338:                 Lcd_Set_Cursor(2,9);
  3524                           	movlw	low(09h)
  3525  0303  3009               	bcf	status, 5	;RP0=0, select bank0
  3526  0304  1283               	bcf	status, 6	;RP1=0, select bank0
  3527  0305  1303               	movwf	(??_main+0)+0
  3528  0306  00C0               	movf	(??_main+0)+0,w
  3529  0307  0840               	movwf	(Lcd_Set_Cursor@b)
  3530  0308  00F4               	movlw	low(02h)
  3531  0309  3002               	fcall	_Lcd_Set_Cursor
  3532  030A  120A  118A  2013  120A  118A  	line	339
  3533                           	
  3534                           l3476:	
  3535  030F                     ;ROKZ1.c: 339:                 Lcd_Write_String(buffer2);
  3536                           	movlw	(low(main@buffer2|((0x0)<<8))&0ffh)
  3537  030F  30A0               	movwf	(Lcd_Write_String@a)
  3538  0310  00F5               	movlw	(0x0)
  3539  0311  3000               	movwf	(Lcd_Write_String@a+1)
  3540  0312  00F6               	fcall	_Lcd_Write_String
  3541  0313  160A  118A  20E8  120A  118A  	line	340
  3542                           	
  3543                           l3478:	
  3544  0318                     ;ROKZ1.c: 340:                 _delay((unsigned long)((500)*(20000000/4000.0)));
  3545                           	opt asmopt_push
  3546                           opt asmopt_off
  3547                           movlw  13
  3548  0318  300D               	bcf	status, 5	;RP0=0, select bank0
  3549  0319  1283               	bcf	status, 6	;RP1=0, select bank0
  3550  031A  1303               movwf	((??_main+0)+0+2),f
  3551  031B  00C2               movlw	175
  3552  031C  30AF               movwf	((??_main+0)+0+1),f
  3553  031D  00C1               	movlw	181
  3554  031E  30B5               movwf	((??_main+0)+0),f
  3555  031F  00C0               	u4287:
  3556  0320                     decfsz	((??_main+0)+0),f
  3557  0320  0BC0               	goto	u4287
  3558  0321  2B20               	decfsz	((??_main+0)+0+1),f
  3559  0322  0BC1               	goto	u4287
  3560  0323  2B20               	decfsz	((??_main+0)+0+2),f
  3561  0324  0BC2               	goto	u4287
  3562  0325  2B20               	nop2
  3563  0326  2B27               opt asmopt_pop
  3564                           
  3565                           	line	341
  3566                           	
  3567                           l3480:	
  3568  0327                     ;ROKZ1.c: 341:                 Lcd_Clear();
  3569                           	fcall	_Lcd_Clear
  3570  0327  160A  158A  276E  120A  118A  	line	344
  3571                           ;ROKZ1.c: 344:                 break;
  3572                           	goto	l3712
  3573  032C  2FDC               	line	346
  3574                           ;ROKZ1.c: 346:             case '3':
  3575                           	
  3576                           l144:	
  3577  032D                     	line	347
  3578                           	
  3579                           l3482:	
  3580  032D                     ;ROKZ1.c: 347:                 printf("\r\rOdabrali ste mnozenje!");
  3581                           	movlw	low(((STR_23)|8000h))
  3582  032D  30F8               	bcf	status, 5	;RP0=0, select bank0
  3583  032E  1283               	bcf	status, 6	;RP1=0, select bank0
  3584  032F  1303               	movwf	(printf@f)
  3585  0330  00AD               	movlw	high(((STR_23)|8000h))
  3586  0331  3098               	movwf	((printf@f))+1
  3587  0332  00AE               	fcall	_printf
  3588  0333  160A  158A  27E5  120A  118A  	line	348
  3589                           	
  3590                           l3484:	
  3591  0338                     ;ROKZ1.c: 348:                 Lcd_Set_Cursor(1,1);
  3592                           	clrf	(Lcd_Set_Cursor@b)
  3593  0338  01F4               	incf	(Lcd_Set_Cursor@b),f
  3594  0339  0AF4               	movlw	low(01h)
  3595  033A  3001               	fcall	_Lcd_Set_Cursor
  3596  033B  120A  118A  2013  120A  118A  	line	349
  3597                           	
  3598                           l3486:	
  3599  0340                     ;ROKZ1.c: 349:                 Lcd_Write_String("Mnozenje: ");
  3600                           	movlw	low(((STR_24)|8000h))
  3601  0340  30CF               	movwf	(Lcd_Write_String@a)
  3602  0341  00F5               	movlw	high(((STR_24)|8000h))
  3603  0342  3099               	movwf	((Lcd_Write_String@a))+1
  3604  0343  00F6               	fcall	_Lcd_Write_String
  3605  0344  160A  118A  20E8  120A  118A  	line	351
  3606                           	
  3607                           l3488:	
  3608  0349                     ;ROKZ1.c: 351:                 printf("\r\rUnesite prvi broj: ");
  3609                           	movlw	low(((STR_25)|8000h))
  3610  0349  3027               	bcf	status, 5	;RP0=0, select bank0
  3611  034A  1283               	bcf	status, 6	;RP1=0, select bank0
  3612  034B  1303               	movwf	(printf@f)
  3613  034C  00AD               	movlw	high(((STR_25)|8000h))
  3614  034D  3099               	movwf	((printf@f))+1
  3615  034E  00AE               	fcall	_printf
  3616  034F  160A  158A  27E5  120A  118A  	line	352
  3617                           	
  3618                           l3490:	
  3619  0354                     ;ROKZ1.c: 352:                 int p2=UART_Get_Char();
  3620                           	fcall	_UART_Get_Char
  3621  0354  160A  158A  277B  120A  118A  	bcf	status, 5	;RP0=0, select bank0
  3622  0359  1283               	bcf	status, 6	;RP1=0, select bank0
  3623  035A  1303               	movwf	(??_main+0)+0
  3624  035B  00C0               	clrf	(??_main+0)+0+1
  3625  035C  01C1               	movf	0+(??_main+0)+0,w
  3626  035D  0840               	bsf	status, 5	;RP0=1, select bank3
  3627  035E  1683               	bsf	status, 6	;RP1=1, select bank3
  3628  035F  1703               	movwf	(main@p2)^0180h
  3629  0360  00B2               	bcf	status, 5	;RP0=0, select bank0
  3630  0361  1283               	bcf	status, 6	;RP1=0, select bank0
  3631  0362  1303               	movf	1+(??_main+0)+0,w
  3632  0363  0841               	bsf	status, 5	;RP0=1, select bank3
  3633  0364  1683               	bsf	status, 6	;RP1=1, select bank3
  3634  0365  1703               	movwf	(main@p2+1)^0180h
  3635  0366  00B3               	line	353
  3636                           	
  3637                           l3492:	
  3638  0367                     ;ROKZ1.c: 353:                 UART_Send_Char(p2);
  3639                           	movf	(main@p2)^0180h,w
  3640  0367  0832               	fcall	_UART_Send_Char
  3641  0368  120A  158A  2000  120A  118A  	line	354
  3642                           	
  3643                           l3494:	
  3644  036D                     ;ROKZ1.c: 354:                 int p1=p2-48;
  3645                           	bsf	status, 5	;RP0=1, select bank3
  3646  036D  1683               	bsf	status, 6	;RP1=1, select bank3
  3647  036E  1703               	movf	(main@p2)^0180h,w
  3648  036F  0832               	addlw	low(-48)
  3649  0370  3ED0               	movwf	(main@p1)^0180h
  3650  0371  00A2               	movf	(main@p2+1)^0180h,w
  3651  0372  0833               	skipnc
  3652  0373  1803               	addlw	1
  3653  0374  3E01               	addlw	high(-48)
  3654  0375  3EFF               	movwf	1+(main@p1)^0180h
  3655  0376  00A3               	line	355
  3656                           	
  3657                           l3496:	
  3658  0377                     ;ROKZ1.c: 355:                 RC1=1;
  3659                           	bcf	status, 5	;RP0=0, select bank0
  3660  0377  1283               	bcf	status, 6	;RP1=0, select bank0
  3661  0378  1303               	bsf	(57/8),(57)&7	;volatile
  3662  0379  1487               	line	356
  3663                           	
  3664                           l3498:	
  3665  037A                     ;ROKZ1.c: 356:                 RC2=1;
  3666                           	bsf	(58/8),(58)&7	;volatile
  3667  037A  1507               	line	357
  3668                           	
  3669                           l3500:	
  3670  037B                     ;ROKZ1.c: 357:                 RC3=1;
  3671                           	bsf	(59/8),(59)&7	;volatile
  3672  037B  1587               	line	358
  3673                           	
  3674                           l3502:	
  3675  037C                     ;ROKZ1.c: 358:                 PORTB=DISPLEJ[p1];
  3676                           	bsf	status, 5	;RP0=1, select bank3
  3677  037C  1683               	bsf	status, 6	;RP1=1, select bank3
  3678  037D  1703               	movf	(main@p1)^0180h,w
  3679  037E  0822               	addlw	low(main@DISPLEJ|((0x1)<<8))&0ffh
  3680  037F  3E90               	movwf	fsr0
  3681  0380  0084               	bsf	status, 7	;select IRP bank3
  3682  0381  1783               	movf	indf,w
  3683  0382  0800               	bcf	status, 5	;RP0=0, select bank0
  3684  0383  1283               	bcf	status, 6	;RP1=0, select bank0
  3685  0384  1303               	movwf	(6)	;volatile
  3686  0385  0086               	line	359
  3687                           	
  3688                           l3504:	
  3689  0386                     ;ROKZ1.c: 359:                 RC0=0;
  3690                           	bcf	(56/8),(56)&7	;volatile
  3691  0386  1007               	line	361
  3692                           	
  3693                           l3506:	
  3694  0387                     ;ROKZ1.c: 361:                 printf("\rUnesite drugi broj: ");
  3695                           	movlw	low(((STR_26)|8000h))
  3696  0387  3011               	movwf	(printf@f)
  3697  0388  00AD               	movlw	high(((STR_26)|8000h))
  3698  0389  3099               	movwf	((printf@f))+1
  3699  038A  00AE               	fcall	_printf
  3700  038B  160A  158A  27E5  120A  118A  	line	362
  3701                           	
  3702                           l3508:	
  3703  0390                     ;ROKZ1.c: 362:                 int p4=UART_Get_Char();
  3704                           	fcall	_UART_Get_Char
  3705  0390  160A  158A  277B  120A  118A  	bcf	status, 5	;RP0=0, select bank0
  3706  0395  1283               	bcf	status, 6	;RP1=0, select bank0
  3707  0396  1303               	movwf	(??_main+0)+0
  3708  0397  00C0               	clrf	(??_main+0)+0+1
  3709  0398  01C1               	movf	0+(??_main+0)+0,w
  3710  0399  0840               	bsf	status, 5	;RP0=1, select bank3
  3711  039A  1683               	bsf	status, 6	;RP1=1, select bank3
  3712  039B  1703               	movwf	(main@p4)^0180h
  3713  039C  00B4               	bcf	status, 5	;RP0=0, select bank0
  3714  039D  1283               	bcf	status, 6	;RP1=0, select bank0
  3715  039E  1303               	movf	1+(??_main+0)+0,w
  3716  039F  0841               	bsf	status, 5	;RP0=1, select bank3
  3717  03A0  1683               	bsf	status, 6	;RP1=1, select bank3
  3718  03A1  1703               	movwf	(main@p4+1)^0180h
  3719  03A2  00B5               	line	363
  3720                           	
  3721                           l3510:	
  3722  03A3                     ;ROKZ1.c: 363:                 UART_Send_Char(p4);
  3723                           	movf	(main@p4)^0180h,w
  3724  03A3  0834               	fcall	_UART_Send_Char
  3725  03A4  120A  158A  2000  120A  118A  	line	364
  3726                           	
  3727                           l3512:	
  3728  03A9                     ;ROKZ1.c: 364:                 int p3=p4-48;
  3729                           	bsf	status, 5	;RP0=1, select bank3
  3730  03A9  1683               	bsf	status, 6	;RP1=1, select bank3
  3731  03AA  1703               	movf	(main@p4)^0180h,w
  3732  03AB  0834               	addlw	low(-48)
  3733  03AC  3ED0               	movwf	(main@p3)^0180h
  3734  03AD  00A4               	movf	(main@p4+1)^0180h,w
  3735  03AE  0835               	skipnc
  3736  03AF  1803               	addlw	1
  3737  03B0  3E01               	addlw	high(-48)
  3738  03B1  3EFF               	movwf	1+(main@p3)^0180h
  3739  03B2  00A5               	line	365
  3740                           	
  3741                           l3514:	
  3742  03B3                     ;ROKZ1.c: 365:                 RC0=1;
  3743                           	bcf	status, 5	;RP0=0, select bank0
  3744  03B3  1283               	bcf	status, 6	;RP1=0, select bank0
  3745  03B4  1303               	bsf	(56/8),(56)&7	;volatile
  3746  03B5  1407               	line	366
  3747                           	
  3748                           l3516:	
  3749  03B6                     ;ROKZ1.c: 366:                 RC2=1;
  3750                           	bsf	(58/8),(58)&7	;volatile
  3751  03B6  1507               	line	367
  3752                           	
  3753                           l3518:	
  3754  03B7                     ;ROKZ1.c: 367:                 RC3=1;
  3755                           	bsf	(59/8),(59)&7	;volatile
  3756  03B7  1587               	line	368
  3757                           	
  3758                           l3520:	
  3759  03B8                     ;ROKZ1.c: 368:                 PORTB=DISPLEJ[p3];
  3760                           	bsf	status, 5	;RP0=1, select bank3
  3761  03B8  1683               	bsf	status, 6	;RP1=1, select bank3
  3762  03B9  1703               	movf	(main@p3)^0180h,w
  3763  03BA  0824               	addlw	low(main@DISPLEJ|((0x1)<<8))&0ffh
  3764  03BB  3E90               	movwf	fsr0
  3765  03BC  0084               	bsf	status, 7	;select IRP bank3
  3766  03BD  1783               	movf	indf,w
  3767  03BE  0800               	bcf	status, 5	;RP0=0, select bank0
  3768  03BF  1283               	bcf	status, 6	;RP1=0, select bank0
  3769  03C0  1303               	movwf	(6)	;volatile
  3770  03C1  0086               	line	369
  3771                           	
  3772                           l3522:	
  3773  03C2                     ;ROKZ1.c: 369:                 RC1=0;
  3774                           	bcf	(57/8),(57)&7	;volatile
  3775  03C2  1087               	line	370
  3776                           	
  3777                           l3524:	
  3778  03C3                     ;ROKZ1.c: 370:                 _delay((unsigned long)((250)*(20000000/4000.0)));
  3779                           	opt asmopt_push
  3780                           opt asmopt_off
  3781                           movlw  7
  3782  03C3  3007               	bcf	status, 5	;RP0=0, select bank0
  3783  03C4  1283               	bcf	status, 6	;RP1=0, select bank0
  3784  03C5  1303               movwf	((??_main+0)+0+2),f
  3785  03C6  00C2               movlw	88
  3786  03C7  3058               movwf	((??_main+0)+0+1),f
  3787  03C8  00C1               	movlw	89
  3788  03C9  3059               movwf	((??_main+0)+0),f
  3789  03CA  00C0               	u4297:
  3790  03CB                     decfsz	((??_main+0)+0),f
  3791  03CB  0BC0               	goto	u4297
  3792  03CC  2BCB               	decfsz	((??_main+0)+0+1),f
  3793  03CD  0BC1               	goto	u4297
  3794  03CE  2BCB               	decfsz	((??_main+0)+0+2),f
  3795  03CF  0BC2               	goto	u4297
  3796  03D0  2BCB               opt asmopt_pop
  3797                           
  3798                           	line	372
  3799                           	
  3800                           l3526:	
  3801  03D1                     ;ROKZ1.c: 372:                 int p=(p1*p3);
  3802                           	bsf	status, 5	;RP0=1, select bank3
  3803  03D1  1683               	bsf	status, 6	;RP1=1, select bank3
  3804  03D2  1703               	movf	(main@p1+1)^0180h,w
  3805  03D3  0823               	movwf	(___wmul@multiplier+1)
  3806  03D4  00F1               	movf	(main@p1)^0180h,w
  3807  03D5  0822               	movwf	(___wmul@multiplier)
  3808  03D6  00F0               	movf	(main@p3+1)^0180h,w
  3809  03D7  0825               	movwf	(___wmul@multiplicand+1)
  3810  03D8  00F3               	movf	(main@p3)^0180h,w
  3811  03D9  0824               	movwf	(___wmul@multiplicand)
  3812  03DA  00F2               	fcall	___wmul
  3813  03DB  160A  118A  2046  120A  118A  	movf	(1+(?___wmul)),w
  3814  03E0  0871               	bsf	status, 5	;RP0=1, select bank3
  3815  03E1  1683               	bsf	status, 6	;RP1=1, select bank3
  3816  03E2  1703               	movwf	(main@p+1)^0180h
  3817  03E3  00C1               	movf	(0+(?___wmul)),w
  3818  03E4  0870               	movwf	(main@p)^0180h
  3819  03E5  00C0               	line	374
  3820                           	
  3821                           l3528:	
  3822  03E6                     ;ROKZ1.c: 374:                 if(p<10) {
  3823                           	movf	(main@p+1)^0180h,w
  3824  03E6  0841               	xorlw	80h
  3825  03E7  3A80               	movwf	btemp+1
  3826  03E8  00FF               	movlw	(0)^80h
  3827  03E9  3080               	subwf	btemp+1,w
  3828  03EA  027F               	skipz
  3829  03EB  1D03               	goto	u4175
  3830  03EC  2BEF               	movlw	0Ah
  3831  03ED  300A               	subwf	(main@p)^0180h,w
  3832  03EE  0240               u4175:
  3833  03EF                     
  3834                           	skipnc
  3835  03EF  1803               	goto	u4171
  3836  03F0  2BF2               	goto	u4170
  3837  03F1  2BF3               u4171:
  3838  03F2                     	goto	l3538
  3839  03F2  2C12               u4170:
  3840  03F3                     	line	375
  3841                           	
  3842                           l3530:	
  3843  03F3                     ;ROKZ1.c: 375:                     RC0=1;
  3844                           	bcf	status, 5	;RP0=0, select bank0
  3845  03F3  1283               	bcf	status, 6	;RP1=0, select bank0
  3846  03F4  1303               	bsf	(56/8),(56)&7	;volatile
  3847  03F5  1407               	line	376
  3848                           ;ROKZ1.c: 376:                     RC1=1;
  3849                           	bsf	(57/8),(57)&7	;volatile
  3850  03F6  1487               	line	377
  3851                           ;ROKZ1.c: 377:                     RC3=1;
  3852                           	bsf	(59/8),(59)&7	;volatile
  3853  03F7  1587               	line	378
  3854                           	
  3855                           l3532:	
  3856  03F8                     ;ROKZ1.c: 378:                     PORTB=DISPLEJ[p];
  3857                           	bsf	status, 5	;RP0=1, select bank3
  3858  03F8  1683               	bsf	status, 6	;RP1=1, select bank3
  3859  03F9  1703               	movf	(main@p)^0180h,w
  3860  03FA  0840               	addlw	low(main@DISPLEJ|((0x1)<<8))&0ffh
  3861  03FB  3E90               	movwf	fsr0
  3862  03FC  0084               	bsf	status, 7	;select IRP bank3
  3863  03FD  1783               	movf	indf,w
  3864  03FE  0800               	bcf	status, 5	;RP0=0, select bank0
  3865  03FF  1283               	bcf	status, 6	;RP1=0, select bank0
  3866  0400  1303               	movwf	(6)	;volatile
  3867  0401  0086               	line	379
  3868                           	
  3869                           l3534:	
  3870  0402                     ;ROKZ1.c: 379:                     RC2=0;
  3871                           	bcf	(58/8),(58)&7	;volatile
  3872  0402  1107               	line	380
  3873                           	
  3874                           l3536:	
  3875  0403                     ;ROKZ1.c: 380:                     _delay((unsigned long)((250)*(20000000/4000.0)));
  3876                           	opt asmopt_push
  3877                           opt asmopt_off
  3878                           movlw  7
  3879  0403  3007               	bcf	status, 5	;RP0=0, select bank0
  3880  0404  1283               	bcf	status, 6	;RP1=0, select bank0
  3881  0405  1303               movwf	((??_main+0)+0+2),f
  3882  0406  00C2               movlw	88
  3883  0407  3058               movwf	((??_main+0)+0+1),f
  3884  0408  00C1               	movlw	89
  3885  0409  3059               movwf	((??_main+0)+0),f
  3886  040A  00C0               	u4307:
  3887  040B                     decfsz	((??_main+0)+0),f
  3888  040B  0BC0               	goto	u4307
  3889  040C  2C0B               	decfsz	((??_main+0)+0+1),f
  3890  040D  0BC1               	goto	u4307
  3891  040E  2C0B               	decfsz	((??_main+0)+0+2),f
  3892  040F  0BC2               	goto	u4307
  3893  0410  2C0B               opt asmopt_pop
  3894                           
  3895                           	line	381
  3896                           ;ROKZ1.c: 381:                 }
  3897                           	goto	l3564
  3898  0411  2C79               	line	382
  3899                           ;ROKZ1.c: 382:                 else {
  3900                           	
  3901                           l145:	
  3902  0412                     	line	385
  3903                           	
  3904                           l3538:	
  3905  0412                     ;ROKZ1.c: 383:                     int broj1, broj2;;ROKZ1.c: 385:                     b
                                 roj1=p/10;
  3906                           	movlw	0Ah
  3907  0412  300A               	movwf	(___awdiv@divisor)
  3908  0413  00F0               	movlw	0
  3909  0414  3000               	movwf	((___awdiv@divisor))+1
  3910  0415  00F1               	bsf	status, 5	;RP0=1, select bank3
  3911  0416  1683               	bsf	status, 6	;RP1=1, select bank3
  3912  0417  1703               	movf	(main@p+1)^0180h,w
  3913  0418  0841               	movwf	(___awdiv@dividend+1)
  3914  0419  00F3               	movf	(main@p)^0180h,w
  3915  041A  0840               	movwf	(___awdiv@dividend)
  3916  041B  00F2               	fcall	___awdiv
  3917  041C  160A  118A  2238  120A  118A  	movf	(1+(?___awdiv)),w
  3918  0421  0871               	bsf	status, 5	;RP0=1, select bank1
  3919  0422  1683               	bcf	status, 6	;RP1=0, select bank1
  3920  0423  1303               	movwf	(main@broj1_165+1)^080h
  3921  0424  00E5               	movf	(0+(?___awdiv)),w
  3922  0425  0870               	movwf	(main@broj1_165)^080h
  3923  0426  00E4               	line	386
  3924                           	
  3925                           l3540:	
  3926  0427                     ;ROKZ1.c: 386:                     RC0=1;
  3927                           	bcf	status, 5	;RP0=0, select bank0
  3928  0427  1283               	bcf	status, 6	;RP1=0, select bank0
  3929  0428  1303               	bsf	(56/8),(56)&7	;volatile
  3930  0429  1407               	line	387
  3931                           	
  3932                           l3542:	
  3933  042A                     ;ROKZ1.c: 387:                     RC1=1;
  3934                           	bsf	(57/8),(57)&7	;volatile
  3935  042A  1487               	line	388
  3936                           	
  3937                           l3544:	
  3938  042B                     ;ROKZ1.c: 388:                     RC3=1;
  3939                           	bsf	(59/8),(59)&7	;volatile
  3940  042B  1587               	line	389
  3941                           	
  3942                           l3546:	
  3943  042C                     ;ROKZ1.c: 389:                     PORTB=DISPLEJ[broj1];
  3944                           	bsf	status, 5	;RP0=1, select bank1
  3945  042C  1683               	bcf	status, 6	;RP1=0, select bank1
  3946  042D  1303               	movf	(main@broj1_165)^080h,w
  3947  042E  0864               	addlw	low(main@DISPLEJ|((0x1)<<8))&0ffh
  3948  042F  3E90               	movwf	fsr0
  3949  0430  0084               	bsf	status, 7	;select IRP bank3
  3950  0431  1783               	movf	indf,w
  3951  0432  0800               	bcf	status, 5	;RP0=0, select bank0
  3952  0433  1283               	bcf	status, 6	;RP1=0, select bank0
  3953  0434  1303               	movwf	(6)	;volatile
  3954  0435  0086               	line	390
  3955                           	
  3956                           l3548:	
  3957  0436                     ;ROKZ1.c: 390:                     RC2=0;
  3958                           	bcf	(58/8),(58)&7	;volatile
  3959  0436  1107               	line	391
  3960                           	
  3961                           l3550:	
  3962  0437                     ;ROKZ1.c: 391:                     _delay((unsigned long)((250)*(20000000/4000.0)));
  3963                           	opt asmopt_push
  3964                           opt asmopt_off
  3965                           movlw  7
  3966  0437  3007               	bcf	status, 5	;RP0=0, select bank0
  3967  0438  1283               	bcf	status, 6	;RP1=0, select bank0
  3968  0439  1303               movwf	((??_main+0)+0+2),f
  3969  043A  00C2               movlw	88
  3970  043B  3058               movwf	((??_main+0)+0+1),f
  3971  043C  00C1               	movlw	89
  3972  043D  3059               movwf	((??_main+0)+0),f
  3973  043E  00C0               	u4317:
  3974  043F                     decfsz	((??_main+0)+0),f
  3975  043F  0BC0               	goto	u4317
  3976  0440  2C3F               	decfsz	((??_main+0)+0+1),f
  3977  0441  0BC1               	goto	u4317
  3978  0442  2C3F               	decfsz	((??_main+0)+0+2),f
  3979  0443  0BC2               	goto	u4317
  3980  0444  2C3F               opt asmopt_pop
  3981                           
  3982                           	line	395
  3983                           	
  3984                           l3552:	
  3985  0445                     ;ROKZ1.c: 395:                     broj2=p%10;
  3986                           	movlw	0Ah
  3987  0445  300A               	movwf	(___awmod@divisor)
  3988  0446  00F0               	movlw	0
  3989  0447  3000               	movwf	((___awmod@divisor))+1
  3990  0448  00F1               	bsf	status, 5	;RP0=1, select bank3
  3991  0449  1683               	bsf	status, 6	;RP1=1, select bank3
  3992  044A  1703               	movf	(main@p+1)^0180h,w
  3993  044B  0841               	movwf	(___awmod@dividend+1)
  3994  044C  00F3               	movf	(main@p)^0180h,w
  3995  044D  0840               	movwf	(___awmod@dividend)
  3996  044E  00F2               	fcall	___awmod
  3997  044F  160A  118A  21D5  120A  118A  	movf	(1+(?___awmod)),w
  3998  0454  0871               	bsf	status, 5	;RP0=1, select bank1
  3999  0455  1683               	bcf	status, 6	;RP1=0, select bank1
  4000  0456  1303               	movwf	(main@broj2_166+1)^080h
  4001  0457  00E7               	movf	(0+(?___awmod)),w
  4002  0458  0870               	movwf	(main@broj2_166)^080h
  4003  0459  00E6               	line	396
  4004                           	
  4005                           l3554:	
  4006  045A                     ;ROKZ1.c: 396:                     RC0=1;
  4007                           	bcf	status, 5	;RP0=0, select bank0
  4008  045A  1283               	bcf	status, 6	;RP1=0, select bank0
  4009  045B  1303               	bsf	(56/8),(56)&7	;volatile
  4010  045C  1407               	line	397
  4011                           	
  4012                           l3556:	
  4013  045D                     ;ROKZ1.c: 397:                     RC1=1;
  4014                           	bsf	(57/8),(57)&7	;volatile
  4015  045D  1487               	line	398
  4016                           	
  4017                           l3558:	
  4018  045E                     ;ROKZ1.c: 398:                     RC2=1;
  4019                           	bsf	(58/8),(58)&7	;volatile
  4020  045E  1507               	line	399
  4021                           	
  4022                           l3560:	
  4023  045F                     ;ROKZ1.c: 399:                     PORTB=DISPLEJ[broj2];
  4024                           	bsf	status, 5	;RP0=1, select bank1
  4025  045F  1683               	bcf	status, 6	;RP1=0, select bank1
  4026  0460  1303               	movf	(main@broj2_166)^080h,w
  4027  0461  0866               	addlw	low(main@DISPLEJ|((0x1)<<8))&0ffh
  4028  0462  3E90               	movwf	fsr0
  4029  0463  0084               	bsf	status, 7	;select IRP bank3
  4030  0464  1783               	movf	indf,w
  4031  0465  0800               	bcf	status, 5	;RP0=0, select bank0
  4032  0466  1283               	bcf	status, 6	;RP1=0, select bank0
  4033  0467  1303               	movwf	(6)	;volatile
  4034  0468  0086               	line	400
  4035                           	
  4036                           l3562:	
  4037  0469                     ;ROKZ1.c: 400:                     RC3=0;
  4038                           	bcf	(59/8),(59)&7	;volatile
  4039  0469  1187               	line	401
  4040                           ;ROKZ1.c: 401:                     _delay((unsigned long)((250)*(20000000/4000.0)));
  4041                           	opt asmopt_push
  4042                           opt asmopt_off
  4043                           movlw  7
  4044  046A  3007               	bcf	status, 5	;RP0=0, select bank0
  4045  046B  1283               	bcf	status, 6	;RP1=0, select bank0
  4046  046C  1303               movwf	((??_main+0)+0+2),f
  4047  046D  00C2               movlw	88
  4048  046E  3058               movwf	((??_main+0)+0+1),f
  4049  046F  00C1               	movlw	89
  4050  0470  3059               movwf	((??_main+0)+0),f
  4051  0471  00C0               	u4327:
  4052  0472                     decfsz	((??_main+0)+0),f
  4053  0472  0BC0               	goto	u4327
  4054  0473  2C72               	decfsz	((??_main+0)+0+1),f
  4055  0474  0BC1               	goto	u4327
  4056  0475  2C72               	decfsz	((??_main+0)+0+2),f
  4057  0476  0BC2               	goto	u4327
  4058  0477  2C72               opt asmopt_pop
  4059                           
  4060                           	goto	l3564
  4061  0478  2C79               	line	403
  4062                           ;ROKZ1.c: 403:                 }
  4063                           	
  4064                           l146:	
  4065  0479                     	line	406
  4066                           	
  4067                           l3564:	
  4068  0479                     ;ROKZ1.c: 405:                 char buffer3[20];;ROKZ1.c: 406:                 sprintf(b
                                 uffer3,"%d",p);
  4069                           	movlw	low(((STR_27)|8000h))
  4070  0479  30DD               	bcf	status, 5	;RP0=0, select bank0
  4071  047A  1283               	bcf	status, 6	;RP1=0, select bank0
  4072  047B  1303               	movwf	(sprintf@f)
  4073  047C  00AD               	movlw	high(((STR_27)|8000h))
  4074  047D  3099               	movwf	((sprintf@f))+1
  4075  047E  00AE               	bsf	status, 5	;RP0=1, select bank3
  4076  047F  1683               	bsf	status, 6	;RP1=1, select bank3
  4077  0480  1703               	movf	(main@p+1)^0180h,w
  4078  0481  0841               	bcf	status, 5	;RP0=0, select bank0
  4079  0482  1283               	bcf	status, 6	;RP1=0, select bank0
  4080  0483  1303               	movwf	1+(?_sprintf)+02h
  4081  0484  00B0               	bsf	status, 5	;RP0=1, select bank3
  4082  0485  1683               	bsf	status, 6	;RP1=1, select bank3
  4083  0486  1703               	movf	(main@p)^0180h,w
  4084  0487  0840               	bcf	status, 5	;RP0=0, select bank0
  4085  0488  1283               	bcf	status, 6	;RP1=0, select bank0
  4086  0489  1303               	movwf	0+(?_sprintf)+02h
  4087  048A  00AF               	movlw	(low(main@buffer3|((0x0)<<8)))&0ffh
  4088  048B  30B4               	fcall	_sprintf
  4089  048C  160A  118A  2001  120A  118A  	line	407
  4090                           	
  4091                           l3566:	
  4092  0491                     ;ROKZ1.c: 407:                 printf("\rProizvod -> ");
  4093                           	movlw	low(((STR_28)|8000h))
  4094  0491  304C               	bcf	status, 5	;RP0=0, select bank0
  4095  0492  1283               	bcf	status, 6	;RP1=0, select bank0
  4096  0493  1303               	movwf	(printf@f)
  4097  0494  00AD               	movlw	high(((STR_28)|8000h))
  4098  0495  3099               	movwf	((printf@f))+1
  4099  0496  00AE               	fcall	_printf
  4100  0497  160A  158A  27E5  120A  118A  	line	408
  4101                           	
  4102                           l3568:	
  4103  049C                     ;ROKZ1.c: 408:                 printf(buffer3);
  4104                           	movlw	(low(main@buffer3|((0x0)<<8))&0ffh)
  4105  049C  30B4               	bcf	status, 5	;RP0=0, select bank0
  4106  049D  1283               	bcf	status, 6	;RP1=0, select bank0
  4107  049E  1303               	movwf	(printf@f)
  4108  049F  00AD               	movlw	(0x0)
  4109  04A0  3000               	movwf	(printf@f+1)
  4110  04A1  00AE               	fcall	_printf
  4111  04A2  160A  158A  27E5  120A  118A  	line	409
  4112                           	
  4113                           l3570:	
  4114  04A7                     ;ROKZ1.c: 409:                 printf("\r\r");
  4115                           	movlw	low(((STR_29)|8000h))
  4116  04A7  30E0               	bcf	status, 5	;RP0=0, select bank0
  4117  04A8  1283               	bcf	status, 6	;RP1=0, select bank0
  4118  04A9  1303               	movwf	(printf@f)
  4119  04AA  00AD               	movlw	high(((STR_29)|8000h))
  4120  04AB  3099               	movwf	((printf@f))+1
  4121  04AC  00AE               	fcall	_printf
  4122  04AD  160A  158A  27E5  120A  118A  	line	411
  4123                           	
  4124                           l3572:	
  4125  04B2                     ;ROKZ1.c: 411:                 Lcd_Set_Cursor(2,1);
  4126                           	clrf	(Lcd_Set_Cursor@b)
  4127  04B2  01F4               	incf	(Lcd_Set_Cursor@b),f
  4128  04B3  0AF4               	movlw	low(02h)
  4129  04B4  3002               	fcall	_Lcd_Set_Cursor
  4130  04B5  120A  118A  2013  120A  118A  	line	412
  4131                           	
  4132                           l3574:	
  4133  04BA                     ;ROKZ1.c: 412:                 Lcd_Write_Char(p2);
  4134                           	bsf	status, 5	;RP0=1, select bank3
  4135  04BA  1683               	bsf	status, 6	;RP1=1, select bank3
  4136  04BB  1703               	movf	(main@p2)^0180h,w
  4137  04BC  0832               	fcall	_Lcd_Write_Char
  4138  04BD  160A  118A  206E  120A  118A  	line	413
  4139                           	
  4140                           l3576:	
  4141  04C2                     ;ROKZ1.c: 413:                 Lcd_Set_Cursor(2,3);
  4142                           	movlw	low(03h)
  4143  04C2  3003               	bcf	status, 5	;RP0=0, select bank0
  4144  04C3  1283               	bcf	status, 6	;RP1=0, select bank0
  4145  04C4  1303               	movwf	(??_main+0)+0
  4146  04C5  00C0               	movf	(??_main+0)+0,w
  4147  04C6  0840               	movwf	(Lcd_Set_Cursor@b)
  4148  04C7  00F4               	movlw	low(02h)
  4149  04C8  3002               	fcall	_Lcd_Set_Cursor
  4150  04C9  120A  118A  2013  120A  118A  	line	414
  4151                           	
  4152                           l3578:	
  4153  04CE                     ;ROKZ1.c: 414:                 Lcd_Write_Char('*');
  4154                           	movlw	low(02Ah)
  4155  04CE  302A               	fcall	_Lcd_Write_Char
  4156  04CF  160A  118A  206E  120A  118A  	line	415
  4157                           	
  4158                           l3580:	
  4159  04D4                     ;ROKZ1.c: 415:                 Lcd_Set_Cursor(2,5);
  4160                           	movlw	low(05h)
  4161  04D4  3005               	bcf	status, 5	;RP0=0, select bank0
  4162  04D5  1283               	bcf	status, 6	;RP1=0, select bank0
  4163  04D6  1303               	movwf	(??_main+0)+0
  4164  04D7  00C0               	movf	(??_main+0)+0,w
  4165  04D8  0840               	movwf	(Lcd_Set_Cursor@b)
  4166  04D9  00F4               	movlw	low(02h)
  4167  04DA  3002               	fcall	_Lcd_Set_Cursor
  4168  04DB  120A  118A  2013  120A  118A  	line	416
  4169                           	
  4170                           l3582:	
  4171  04E0                     ;ROKZ1.c: 416:                 Lcd_Write_Char(p4);
  4172                           	bsf	status, 5	;RP0=1, select bank3
  4173  04E0  1683               	bsf	status, 6	;RP1=1, select bank3
  4174  04E1  1703               	movf	(main@p4)^0180h,w
  4175  04E2  0834               	fcall	_Lcd_Write_Char
  4176  04E3  160A  118A  206E  120A  118A  	line	417
  4177                           	
  4178                           l3584:	
  4179  04E8                     ;ROKZ1.c: 417:                 Lcd_Set_Cursor(2,7);
  4180                           	movlw	low(07h)
  4181  04E8  3007               	bcf	status, 5	;RP0=0, select bank0
  4182  04E9  1283               	bcf	status, 6	;RP1=0, select bank0
  4183  04EA  1303               	movwf	(??_main+0)+0
  4184  04EB  00C0               	movf	(??_main+0)+0,w
  4185  04EC  0840               	movwf	(Lcd_Set_Cursor@b)
  4186  04ED  00F4               	movlw	low(02h)
  4187  04EE  3002               	fcall	_Lcd_Set_Cursor
  4188  04EF  120A  118A  2013  120A  118A  	line	418
  4189                           	
  4190                           l3586:	
  4191  04F4                     ;ROKZ1.c: 418:                 Lcd_Write_Char('=');
  4192                           	movlw	low(03Dh)
  4193  04F4  303D               	fcall	_Lcd_Write_Char
  4194  04F5  160A  118A  206E  120A  118A  	line	419
  4195                           	
  4196                           l3588:	
  4197  04FA                     ;ROKZ1.c: 419:                 Lcd_Set_Cursor(2,9);
  4198                           	movlw	low(09h)
  4199  04FA  3009               	bcf	status, 5	;RP0=0, select bank0
  4200  04FB  1283               	bcf	status, 6	;RP1=0, select bank0
  4201  04FC  1303               	movwf	(??_main+0)+0
  4202  04FD  00C0               	movf	(??_main+0)+0,w
  4203  04FE  0840               	movwf	(Lcd_Set_Cursor@b)
  4204  04FF  00F4               	movlw	low(02h)
  4205  0500  3002               	fcall	_Lcd_Set_Cursor
  4206  0501  120A  118A  2013  120A  118A  	line	420
  4207                           	
  4208                           l3590:	
  4209  0506                     ;ROKZ1.c: 420:                 Lcd_Write_String(buffer3);
  4210                           	movlw	(low(main@buffer3|((0x0)<<8))&0ffh)
  4211  0506  30B4               	movwf	(Lcd_Write_String@a)
  4212  0507  00F5               	movlw	(0x0)
  4213  0508  3000               	movwf	(Lcd_Write_String@a+1)
  4214  0509  00F6               	fcall	_Lcd_Write_String
  4215  050A  160A  118A  20E8  120A  118A  	line	421
  4216                           	
  4217                           l3592:	
  4218  050F                     ;ROKZ1.c: 421:                 _delay((unsigned long)((500)*(20000000/4000.0)));
  4219                           	opt asmopt_push
  4220                           opt asmopt_off
  4221                           movlw  13
  4222  050F  300D               	bcf	status, 5	;RP0=0, select bank0
  4223  0510  1283               	bcf	status, 6	;RP1=0, select bank0
  4224  0511  1303               movwf	((??_main+0)+0+2),f
  4225  0512  00C2               movlw	175
  4226  0513  30AF               movwf	((??_main+0)+0+1),f
  4227  0514  00C1               	movlw	181
  4228  0515  30B5               movwf	((??_main+0)+0),f
  4229  0516  00C0               	u4337:
  4230  0517                     decfsz	((??_main+0)+0),f
  4231  0517  0BC0               	goto	u4337
  4232  0518  2D17               	decfsz	((??_main+0)+0+1),f
  4233  0519  0BC1               	goto	u4337
  4234  051A  2D17               	decfsz	((??_main+0)+0+2),f
  4235  051B  0BC2               	goto	u4337
  4236  051C  2D17               	nop2
  4237  051D  2D1E               opt asmopt_pop
  4238                           
  4239                           	line	422
  4240                           	
  4241                           l3594:	
  4242  051E                     ;ROKZ1.c: 422:                 Lcd_Clear();
  4243                           	fcall	_Lcd_Clear
  4244  051E  160A  158A  276E  120A  118A  	line	423
  4245                           ;ROKZ1.c: 423:                 break;
  4246                           	goto	l3712
  4247  0523  2FDC               	line	425
  4248                           ;ROKZ1.c: 425:             case '4':
  4249                           	
  4250                           l147:	
  4251  0524                     	line	426
  4252                           	
  4253                           l3596:	
  4254  0524                     ;ROKZ1.c: 426:                 printf("\r\rOdabrali ste dijeljenje!");
  4255                           	movlw	low(((STR_30)|8000h))
  4256  0524  30C4               	bcf	status, 5	;RP0=0, select bank0
  4257  0525  1283               	bcf	status, 6	;RP1=0, select bank0
  4258  0526  1303               	movwf	(printf@f)
  4259  0527  00AD               	movlw	high(((STR_30)|8000h))
  4260  0528  3098               	movwf	((printf@f))+1
  4261  0529  00AE               	fcall	_printf
  4262  052A  160A  158A  27E5  120A  118A  	line	427
  4263                           	
  4264                           l3598:	
  4265  052F                     ;ROKZ1.c: 427:                 Lcd_Set_Cursor(1,1);
  4266                           	clrf	(Lcd_Set_Cursor@b)
  4267  052F  01F4               	incf	(Lcd_Set_Cursor@b),f
  4268  0530  0AF4               	movlw	low(01h)
  4269  0531  3001               	fcall	_Lcd_Set_Cursor
  4270  0532  120A  118A  2013  120A  118A  	line	428
  4271                           	
  4272                           l3600:	
  4273  0537                     ;ROKZ1.c: 428:                 Lcd_Write_String("Dijeljenje: ");
  4274                           	movlw	low(((STR_31)|8000h))
  4275  0537  3084               	movwf	(Lcd_Write_String@a)
  4276  0538  00F5               	movlw	high(((STR_31)|8000h))
  4277  0539  3099               	movwf	((Lcd_Write_String@a))+1
  4278  053A  00F6               	fcall	_Lcd_Write_String
  4279  053B  160A  118A  20E8  120A  118A  	line	430
  4280                           	
  4281                           l3602:	
  4282  0540                     ;ROKZ1.c: 430:                 printf("\r\rUnesite prvi broj: ");
  4283                           	movlw	low(((STR_32)|8000h))
  4284  0540  3027               	bcf	status, 5	;RP0=0, select bank0
  4285  0541  1283               	bcf	status, 6	;RP1=0, select bank0
  4286  0542  1303               	movwf	(printf@f)
  4287  0543  00AD               	movlw	high(((STR_32)|8000h))
  4288  0544  3099               	movwf	((printf@f))+1
  4289  0545  00AE               	fcall	_printf
  4290  0546  160A  158A  27E5  120A  118A  	line	431
  4291                           	
  4292                           l3604:	
  4293  054B                     ;ROKZ1.c: 431:                 int k2=UART_Get_Char();
  4294                           	fcall	_UART_Get_Char
  4295  054B  160A  158A  277B  120A  118A  	bcf	status, 5	;RP0=0, select bank0
  4296  0550  1283               	bcf	status, 6	;RP1=0, select bank0
  4297  0551  1303               	movwf	(??_main+0)+0
  4298  0552  00C0               	clrf	(??_main+0)+0+1
  4299  0553  01C1               	movf	0+(??_main+0)+0,w
  4300  0554  0840               	bsf	status, 5	;RP0=1, select bank3
  4301  0555  1683               	bsf	status, 6	;RP1=1, select bank3
  4302  0556  1703               	movwf	(main@k2)^0180h
  4303  0557  00B8               	bcf	status, 5	;RP0=0, select bank0
  4304  0558  1283               	bcf	status, 6	;RP1=0, select bank0
  4305  0559  1303               	movf	1+(??_main+0)+0,w
  4306  055A  0841               	bsf	status, 5	;RP0=1, select bank3
  4307  055B  1683               	bsf	status, 6	;RP1=1, select bank3
  4308  055C  1703               	movwf	(main@k2+1)^0180h
  4309  055D  00B9               	line	432
  4310                           	
  4311                           l3606:	
  4312  055E                     ;ROKZ1.c: 432:                 UART_Send_Char(k2);
  4313                           	movf	(main@k2)^0180h,w
  4314  055E  0838               	fcall	_UART_Send_Char
  4315  055F  120A  158A  2000  120A  118A  	line	433
  4316                           	
  4317                           l3608:	
  4318  0564                     ;ROKZ1.c: 433:                 int d1=k2-48;
  4319                           	bsf	status, 5	;RP0=1, select bank3
  4320  0564  1683               	bsf	status, 6	;RP1=1, select bank3
  4321  0565  1703               	movf	(main@k2)^0180h,w
  4322  0566  0838               	addlw	low(-48)
  4323  0567  3ED0               	bsf	status, 5	;RP0=1, select bank1
  4324  0568  1683               	bcf	status, 6	;RP1=0, select bank1
  4325  0569  1303               	movwf	(main@d1)^080h
  4326  056A  00E8               	bsf	status, 5	;RP0=1, select bank3
  4327  056B  1683               	bsf	status, 6	;RP1=1, select bank3
  4328  056C  1703               	movf	(main@k2+1)^0180h,w
  4329  056D  0839               	skipnc
  4330  056E  1803               	addlw	1
  4331  056F  3E01               	addlw	high(-48)
  4332  0570  3EFF               	bsf	status, 5	;RP0=1, select bank1
  4333  0571  1683               	bcf	status, 6	;RP1=0, select bank1
  4334  0572  1303               	movwf	1+(main@d1)^080h
  4335  0573  00E9               	line	434
  4336                           	
  4337                           l3610:	
  4338  0574                     ;ROKZ1.c: 434:                 float k1=k2-48.0;
  4339                           	movlw	0xc2
  4340  0574  30C2               	bcf	status, 5	;RP0=0, select bank0
  4341  0575  1283               	bcf	status, 6	;RP1=0, select bank0
  4342  0576  1303               	movwf	(___fladd@b+3)
  4343  0577  00A3               	movlw	0x40
  4344  0578  3040               	movwf	(___fladd@b+2)
  4345  0579  00A2               	movlw	0x0
  4346  057A  3000               	movwf	(___fladd@b+1)
  4347  057B  00A1               	movlw	0x0
  4348  057C  3000               	movwf	(___fladd@b)
  4349  057D  00A0               
  4350                           	bsf	status, 5	;RP0=1, select bank3
  4351  057E  1683               	bsf	status, 6	;RP1=1, select bank3
  4352  057F  1703               	movf	(main@k2)^0180h,w
  4353  0580  0838               	movwf	(___xxtofl@val)
  4354  0581  00F0               	movf	(main@k2+1)^0180h,w
  4355  0582  0839               	movwf	(___xxtofl@val+1)
  4356  0583  00F1               	movlw	0
  4357  0584  3000               	btfsc	(___xxtofl@val+1),7
  4358  0585  1BF1               	movlw	255
  4359  0586  30FF               	movwf	(___xxtofl@val+2)
  4360  0587  00F2               	movwf	(___xxtofl@val+3)
  4361  0588  00F3               	movlw	low(01h)
  4362  0589  3001               	fcall	___xxtofl
  4363  058A  120A  118A  2067  120A  118A  	movf	(3+(?___xxtofl)),w
  4364  058F  0873               	bcf	status, 5	;RP0=0, select bank0
  4365  0590  1283               	bcf	status, 6	;RP1=0, select bank0
  4366  0591  1303               	movwf	(___fladd@a+3)
  4367  0592  00A7               	movf	(2+(?___xxtofl)),w
  4368  0593  0872               	movwf	(___fladd@a+2)
  4369  0594  00A6               	movf	(1+(?___xxtofl)),w
  4370  0595  0871               	movwf	(___fladd@a+1)
  4371  0596  00A5               	movf	(0+(?___xxtofl)),w
  4372  0597  0870               	movwf	(___fladd@a)
  4373  0598  00A4               
  4374                           	fcall	___fladd
  4375  0599  120A  158A  21CF  120A  118A  	bcf	status, 5	;RP0=0, select bank0
  4376  059E  1283               	bcf	status, 6	;RP1=0, select bank0
  4377  059F  1303               	movf	(3+(?___fladd)),w
  4378  05A0  0823               	movwf	(main@k1+3)
  4379  05A1  00E5               	movf	(2+(?___fladd)),w
  4380  05A2  0822               	movwf	(main@k1+2)
  4381  05A3  00E4               	movf	(1+(?___fladd)),w
  4382  05A4  0821               	movwf	(main@k1+1)
  4383  05A5  00E3               	movf	(0+(?___fladd)),w
  4384  05A6  0820               	movwf	(main@k1)
  4385  05A7  00E2               
  4386                           	line	435
  4387                           	
  4388                           l3612:	
  4389  05A8                     ;ROKZ1.c: 435:                 RC1=1;
  4390                           	bsf	(57/8),(57)&7	;volatile
  4391  05A8  1487               	line	436
  4392                           	
  4393                           l3614:	
  4394  05A9                     ;ROKZ1.c: 436:                 RC2=1;
  4395                           	bsf	(58/8),(58)&7	;volatile
  4396  05A9  1507               	line	437
  4397                           	
  4398                           l3616:	
  4399  05AA                     ;ROKZ1.c: 437:                 RC3=1;
  4400                           	bsf	(59/8),(59)&7	;volatile
  4401  05AA  1587               	line	438
  4402                           	
  4403                           l3618:	
  4404  05AB                     ;ROKZ1.c: 438:                 PORTB=DISPLEJ[d1];
  4405                           	bsf	status, 5	;RP0=1, select bank1
  4406  05AB  1683               	bcf	status, 6	;RP1=0, select bank1
  4407  05AC  1303               	movf	(main@d1)^080h,w
  4408  05AD  0868               	addlw	low(main@DISPLEJ|((0x1)<<8))&0ffh
  4409  05AE  3E90               	movwf	fsr0
  4410  05AF  0084               	bsf	status, 7	;select IRP bank3
  4411  05B0  1783               	movf	indf,w
  4412  05B1  0800               	bcf	status, 5	;RP0=0, select bank0
  4413  05B2  1283               	bcf	status, 6	;RP1=0, select bank0
  4414  05B3  1303               	movwf	(6)	;volatile
  4415  05B4  0086               	line	439
  4416                           	
  4417                           l3620:	
  4418  05B5                     ;ROKZ1.c: 439:                 RC0=0;
  4419                           	bcf	(56/8),(56)&7	;volatile
  4420  05B5  1007               	line	441
  4421                           	
  4422                           l3622:	
  4423  05B6                     ;ROKZ1.c: 441:                 printf("\rUnesite drugi broj: ");
  4424                           	movlw	low(((STR_33)|8000h))
  4425  05B6  3011               	movwf	(printf@f)
  4426  05B7  00AD               	movlw	high(((STR_33)|8000h))
  4427  05B8  3099               	movwf	((printf@f))+1
  4428  05B9  00AE               	fcall	_printf
  4429  05BA  160A  158A  27E5  120A  118A  	line	442
  4430                           	
  4431                           l3624:	
  4432  05BF                     ;ROKZ1.c: 442:                 int k4=UART_Get_Char();
  4433                           	fcall	_UART_Get_Char
  4434  05BF  160A  158A  277B  120A  118A  	bcf	status, 5	;RP0=0, select bank0
  4435  05C4  1283               	bcf	status, 6	;RP1=0, select bank0
  4436  05C5  1303               	movwf	(??_main+0)+0
  4437  05C6  00C0               	clrf	(??_main+0)+0+1
  4438  05C7  01C1               	movf	0+(??_main+0)+0,w
  4439  05C8  0840               	bsf	status, 5	;RP0=1, select bank3
  4440  05C9  1683               	bsf	status, 6	;RP1=1, select bank3
  4441  05CA  1703               	movwf	(main@k4)^0180h
  4442  05CB  00BA               	bcf	status, 5	;RP0=0, select bank0
  4443  05CC  1283               	bcf	status, 6	;RP1=0, select bank0
  4444  05CD  1303               	movf	1+(??_main+0)+0,w
  4445  05CE  0841               	bsf	status, 5	;RP0=1, select bank3
  4446  05CF  1683               	bsf	status, 6	;RP1=1, select bank3
  4447  05D0  1703               	movwf	(main@k4+1)^0180h
  4448  05D1  00BB               	line	443
  4449                           	
  4450                           l3626:	
  4451  05D2                     ;ROKZ1.c: 443:                 UART_Send_Char(k4);
  4452                           	movf	(main@k4)^0180h,w
  4453  05D2  083A               	fcall	_UART_Send_Char
  4454  05D3  120A  158A  2000  120A  118A  	line	444
  4455                           	
  4456                           l3628:	
  4457  05D8                     ;ROKZ1.c: 444:                 int d2=k4-48;
  4458                           	bsf	status, 5	;RP0=1, select bank3
  4459  05D8  1683               	bsf	status, 6	;RP1=1, select bank3
  4460  05D9  1703               	movf	(main@k4)^0180h,w
  4461  05DA  083A               	addlw	low(-48)
  4462  05DB  3ED0               	bsf	status, 5	;RP0=1, select bank1
  4463  05DC  1683               	bcf	status, 6	;RP1=0, select bank1
  4464  05DD  1303               	movwf	(main@d2)^080h
  4465  05DE  00EA               	bsf	status, 5	;RP0=1, select bank3
  4466  05DF  1683               	bsf	status, 6	;RP1=1, select bank3
  4467  05E0  1703               	movf	(main@k4+1)^0180h,w
  4468  05E1  083B               	skipnc
  4469  05E2  1803               	addlw	1
  4470  05E3  3E01               	addlw	high(-48)
  4471  05E4  3EFF               	bsf	status, 5	;RP0=1, select bank1
  4472  05E5  1683               	bcf	status, 6	;RP1=0, select bank1
  4473  05E6  1303               	movwf	1+(main@d2)^080h
  4474  05E7  00EB               	line	445
  4475                           	
  4476                           l3630:	
  4477  05E8                     ;ROKZ1.c: 445:                 float k3=k4-48.0;
  4478                           	movlw	0xc2
  4479  05E8  30C2               	bcf	status, 5	;RP0=0, select bank0
  4480  05E9  1283               	bcf	status, 6	;RP1=0, select bank0
  4481  05EA  1303               	movwf	(___fladd@b+3)
  4482  05EB  00A3               	movlw	0x40
  4483  05EC  3040               	movwf	(___fladd@b+2)
  4484  05ED  00A2               	movlw	0x0
  4485  05EE  3000               	movwf	(___fladd@b+1)
  4486  05EF  00A1               	movlw	0x0
  4487  05F0  3000               	movwf	(___fladd@b)
  4488  05F1  00A0               
  4489                           	bsf	status, 5	;RP0=1, select bank3
  4490  05F2  1683               	bsf	status, 6	;RP1=1, select bank3
  4491  05F3  1703               	movf	(main@k4)^0180h,w
  4492  05F4  083A               	movwf	(___xxtofl@val)
  4493  05F5  00F0               	movf	(main@k4+1)^0180h,w
  4494  05F6  083B               	movwf	(___xxtofl@val+1)
  4495  05F7  00F1               	movlw	0
  4496  05F8  3000               	btfsc	(___xxtofl@val+1),7
  4497  05F9  1BF1               	movlw	255
  4498  05FA  30FF               	movwf	(___xxtofl@val+2)
  4499  05FB  00F2               	movwf	(___xxtofl@val+3)
  4500  05FC  00F3               	movlw	low(01h)
  4501  05FD  3001               	fcall	___xxtofl
  4502  05FE  120A  118A  2067  120A  118A  	movf	(3+(?___xxtofl)),w
  4503  0603  0873               	bcf	status, 5	;RP0=0, select bank0
  4504  0604  1283               	bcf	status, 6	;RP1=0, select bank0
  4505  0605  1303               	movwf	(___fladd@a+3)
  4506  0606  00A7               	movf	(2+(?___xxtofl)),w
  4507  0607  0872               	movwf	(___fladd@a+2)
  4508  0608  00A6               	movf	(1+(?___xxtofl)),w
  4509  0609  0871               	movwf	(___fladd@a+1)
  4510  060A  00A5               	movf	(0+(?___xxtofl)),w
  4511  060B  0870               	movwf	(___fladd@a)
  4512  060C  00A4               
  4513                           	fcall	___fladd
  4514  060D  120A  158A  21CF  120A  118A  	bcf	status, 5	;RP0=0, select bank0
  4515  0612  1283               	bcf	status, 6	;RP1=0, select bank0
  4516  0613  1303               	movf	(3+(?___fladd)),w
  4517  0614  0823               	movwf	(main@k3+3)
  4518  0615  00E9               	movf	(2+(?___fladd)),w
  4519  0616  0822               	movwf	(main@k3+2)
  4520  0617  00E8               	movf	(1+(?___fladd)),w
  4521  0618  0821               	movwf	(main@k3+1)
  4522  0619  00E7               	movf	(0+(?___fladd)),w
  4523  061A  0820               	movwf	(main@k3)
  4524  061B  00E6               
  4525                           	line	446
  4526                           	
  4527                           l3632:	
  4528  061C                     ;ROKZ1.c: 446:                 RC0=1;
  4529                           	bsf	(56/8),(56)&7	;volatile
  4530  061C  1407               	line	447
  4531                           	
  4532                           l3634:	
  4533  061D                     ;ROKZ1.c: 447:                 RC2=1;
  4534                           	bsf	(58/8),(58)&7	;volatile
  4535  061D  1507               	line	448
  4536                           	
  4537                           l3636:	
  4538  061E                     ;ROKZ1.c: 448:                 RC3=1;
  4539                           	bsf	(59/8),(59)&7	;volatile
  4540  061E  1587               	line	449
  4541                           	
  4542                           l3638:	
  4543  061F                     ;ROKZ1.c: 449:                 PORTB=DISPLEJ[d2];
  4544                           	bsf	status, 5	;RP0=1, select bank1
  4545  061F  1683               	bcf	status, 6	;RP1=0, select bank1
  4546  0620  1303               	movf	(main@d2)^080h,w
  4547  0621  086A               	addlw	low(main@DISPLEJ|((0x1)<<8))&0ffh
  4548  0622  3E90               	movwf	fsr0
  4549  0623  0084               	bsf	status, 7	;select IRP bank3
  4550  0624  1783               	movf	indf,w
  4551  0625  0800               	bcf	status, 5	;RP0=0, select bank0
  4552  0626  1283               	bcf	status, 6	;RP1=0, select bank0
  4553  0627  1303               	movwf	(6)	;volatile
  4554  0628  0086               	line	450
  4555                           	
  4556                           l3640:	
  4557  0629                     ;ROKZ1.c: 450:                 RC1=0;
  4558                           	bcf	(57/8),(57)&7	;volatile
  4559  0629  1087               	line	451
  4560                           	
  4561                           l3642:	
  4562  062A                     ;ROKZ1.c: 451:                 _delay((unsigned long)((250)*(20000000/4000.0)));
  4563                           	opt asmopt_push
  4564                           opt asmopt_off
  4565                           movlw  7
  4566  062A  3007               	bcf	status, 5	;RP0=0, select bank0
  4567  062B  1283               	bcf	status, 6	;RP1=0, select bank0
  4568  062C  1303               movwf	((??_main+0)+0+2),f
  4569  062D  00C2               movlw	88
  4570  062E  3058               movwf	((??_main+0)+0+1),f
  4571  062F  00C1               	movlw	89
  4572  0630  3059               movwf	((??_main+0)+0),f
  4573  0631  00C0               	u4347:
  4574  0632                     decfsz	((??_main+0)+0),f
  4575  0632  0BC0               	goto	u4347
  4576  0633  2E32               	decfsz	((??_main+0)+0+1),f
  4577  0634  0BC1               	goto	u4347
  4578  0635  2E32               	decfsz	((??_main+0)+0+2),f
  4579  0636  0BC2               	goto	u4347
  4580  0637  2E32               opt asmopt_pop
  4581                           
  4582                           	line	453
  4583                           	
  4584                           l3644:	
  4585  0638                     ;ROKZ1.c: 453:                 float k=(k1/k3);
  4586                           	bcf	status, 5	;RP0=0, select bank0
  4587  0638  1283               	bcf	status, 6	;RP1=0, select bank0
  4588  0639  1303               	movf	(main@k3+3),w
  4589  063A  0869               	movwf	(___fldiv@a+3)
  4590  063B  00F3               	movf	(main@k3+2),w
  4591  063C  0868               	movwf	(___fldiv@a+2)
  4592  063D  00F2               	movf	(main@k3+1),w
  4593  063E  0867               	movwf	(___fldiv@a+1)
  4594  063F  00F1               	movf	(main@k3),w
  4595  0640  0866               	movwf	(___fldiv@a)
  4596  0641  00F0               
  4597                           	movf	(main@k1+3),w
  4598  0642  0865               	movwf	(___fldiv@b+3)
  4599  0643  00F7               	movf	(main@k1+2),w
  4600  0644  0864               	movwf	(___fldiv@b+2)
  4601  0645  00F6               	movf	(main@k1+1),w
  4602  0646  0863               	movwf	(___fldiv@b+1)
  4603  0647  00F5               	movf	(main@k1),w
  4604  0648  0862               	movwf	(___fldiv@b)
  4605  0649  00F4               
  4606                           	fcall	___fldiv
  4607  064A  160A  118A  2345  120A  118A  	movf	(3+(?___fldiv)),w
  4608  064F  0873               	bsf	status, 5	;RP0=1, select bank1
  4609  0650  1683               	bcf	status, 6	;RP1=0, select bank1
  4610  0651  1303               	movwf	(main@k+3)^080h
  4611  0652  00EF               	movf	(2+(?___fldiv)),w
  4612  0653  0872               	movwf	(main@k+2)^080h
  4613  0654  00EE               	movf	(1+(?___fldiv)),w
  4614  0655  0871               	movwf	(main@k+1)^080h
  4615  0656  00ED               	movf	(0+(?___fldiv)),w
  4616  0657  0870               	movwf	(main@k)^080h
  4617  0658  00EC               
  4618                           	line	454
  4619                           	
  4620                           l3646:	
  4621  0659                     ;ROKZ1.c: 454:                 int m=k;
  4622                           	movf	(main@k+3)^080h,w
  4623  0659  086F               	bcf	status, 5	;RP0=0, select bank0
  4624  065A  1283               	bcf	status, 6	;RP1=0, select bank0
  4625  065B  1303               	movwf	(___fltol@f1+3)
  4626  065C  00B8               	bsf	status, 5	;RP0=1, select bank1
  4627  065D  1683               	bcf	status, 6	;RP1=0, select bank1
  4628  065E  1303               	movf	(main@k+2)^080h,w
  4629  065F  086E               	bcf	status, 5	;RP0=0, select bank0
  4630  0660  1283               	bcf	status, 6	;RP1=0, select bank0
  4631  0661  1303               	movwf	(___fltol@f1+2)
  4632  0662  00B7               	bsf	status, 5	;RP0=1, select bank1
  4633  0663  1683               	bcf	status, 6	;RP1=0, select bank1
  4634  0664  1303               	movf	(main@k+1)^080h,w
  4635  0665  086D               	bcf	status, 5	;RP0=0, select bank0
  4636  0666  1283               	bcf	status, 6	;RP1=0, select bank0
  4637  0667  1303               	movwf	(___fltol@f1+1)
  4638  0668  00B6               	bsf	status, 5	;RP0=1, select bank1
  4639  0669  1683               	bcf	status, 6	;RP1=0, select bank1
  4640  066A  1303               	movf	(main@k)^080h,w
  4641  066B  086C               	bcf	status, 5	;RP0=0, select bank0
  4642  066C  1283               	bcf	status, 6	;RP1=0, select bank0
  4643  066D  1303               	movwf	(___fltol@f1)
  4644  066E  00B5               
  4645                           	fcall	___fltol
  4646  066F  160A  118A  22A9  120A  118A  	bcf	status, 5	;RP0=0, select bank0
  4647  0674  1283               	bcf	status, 6	;RP1=0, select bank0
  4648  0675  1303               	movf	(1+(?___fltol)),w
  4649  0676  0836               	bsf	status, 5	;RP0=1, select bank3
  4650  0677  1683               	bsf	status, 6	;RP1=1, select bank3
  4651  0678  1703               	movwf	(main@m+1)^0180h
  4652  0679  00A7               	bcf	status, 5	;RP0=0, select bank0
  4653  067A  1283               	bcf	status, 6	;RP1=0, select bank0
  4654  067B  1303               	movf	(0+(?___fltol)),w
  4655  067C  0835               	bsf	status, 5	;RP0=1, select bank3
  4656  067D  1683               	bsf	status, 6	;RP1=1, select bank3
  4657  067E  1703               	movwf	(main@m)^0180h
  4658  067F  00A6               	line	455
  4659                           	
  4660                           l3648:	
  4661  0680                     ;ROKZ1.c: 455:                 int n=(k*10);
  4662                           	bsf	status, 5	;RP0=1, select bank1
  4663  0680  1683               	bcf	status, 6	;RP1=0, select bank1
  4664  0681  1303               	movf	(main@k+3)^080h,w
  4665  0682  086F               	bcf	status, 5	;RP0=0, select bank0
  4666  0683  1283               	bcf	status, 6	;RP1=0, select bank0
  4667  0684  1303               	movwf	(___flmul@a+3)
  4668  0685  00A7               	bsf	status, 5	;RP0=1, select bank1
  4669  0686  1683               	bcf	status, 6	;RP1=0, select bank1
  4670  0687  1303               	movf	(main@k+2)^080h,w
  4671  0688  086E               	bcf	status, 5	;RP0=0, select bank0
  4672  0689  1283               	bcf	status, 6	;RP1=0, select bank0
  4673  068A  1303               	movwf	(___flmul@a+2)
  4674  068B  00A6               	bsf	status, 5	;RP0=1, select bank1
  4675  068C  1683               	bcf	status, 6	;RP1=0, select bank1
  4676  068D  1303               	movf	(main@k+1)^080h,w
  4677  068E  086D               	bcf	status, 5	;RP0=0, select bank0
  4678  068F  1283               	bcf	status, 6	;RP1=0, select bank0
  4679  0690  1303               	movwf	(___flmul@a+1)
  4680  0691  00A5               	bsf	status, 5	;RP0=1, select bank1
  4681  0692  1683               	bcf	status, 6	;RP1=0, select bank1
  4682  0693  1303               	movf	(main@k)^080h,w
  4683  0694  086C               	bcf	status, 5	;RP0=0, select bank0
  4684  0695  1283               	bcf	status, 6	;RP1=0, select bank0
  4685  0696  1303               	movwf	(___flmul@a)
  4686  0697  00A4               
  4687                           	movlw	0x41
  4688  0698  3041               	movwf	(___flmul@b+3)
  4689  0699  00A3               	movlw	0x20
  4690  069A  3020               	movwf	(___flmul@b+2)
  4691  069B  00A2               	movlw	0x0
  4692  069C  3000               	movwf	(___flmul@b+1)
  4693  069D  00A1               	movlw	0x0
  4694  069E  3000               	movwf	(___flmul@b)
  4695  069F  00A0               
  4696                           	fcall	___flmul
  4697  06A0  120A  158A  248B  120A  118A  	bcf	status, 5	;RP0=0, select bank0
  4698  06A5  1283               	bcf	status, 6	;RP1=0, select bank0
  4699  06A6  1303               	movf	(3+(?___flmul)),w
  4700  06A7  0823               	movwf	(___fltol@f1+3)
  4701  06A8  00B8               	movf	(2+(?___flmul)),w
  4702  06A9  0822               	movwf	(___fltol@f1+2)
  4703  06AA  00B7               	movf	(1+(?___flmul)),w
  4704  06AB  0821               	movwf	(___fltol@f1+1)
  4705  06AC  00B6               	movf	(0+(?___flmul)),w
  4706  06AD  0820               	movwf	(___fltol@f1)
  4707  06AE  00B5               
  4708                           	fcall	___fltol
  4709  06AF  160A  118A  22A9  120A  118A  	bcf	status, 5	;RP0=0, select bank0
  4710  06B4  1283               	bcf	status, 6	;RP1=0, select bank0
  4711  06B5  1303               	movf	(1+(?___fltol)),w
  4712  06B6  0836               	bsf	status, 5	;RP0=1, select bank3
  4713  06B7  1683               	bsf	status, 6	;RP1=1, select bank3
  4714  06B8  1703               	movwf	(main@n+1)^0180h
  4715  06B9  00B7               	bcf	status, 5	;RP0=0, select bank0
  4716  06BA  1283               	bcf	status, 6	;RP1=0, select bank0
  4717  06BB  1303               	movf	(0+(?___fltol)),w
  4718  06BC  0835               	bsf	status, 5	;RP0=1, select bank3
  4719  06BD  1683               	bsf	status, 6	;RP1=1, select bank3
  4720  06BE  1703               	movwf	(main@n)^0180h
  4721  06BF  00B6               	line	456
  4722                           	
  4723                           l3650:	
  4724  06C0                     ;ROKZ1.c: 456:                 n=n%10;
  4725                           	movlw	0Ah
  4726  06C0  300A               	movwf	(___awmod@divisor)
  4727  06C1  00F0               	movlw	0
  4728  06C2  3000               	movwf	((___awmod@divisor))+1
  4729  06C3  00F1               	movf	(main@n+1)^0180h,w
  4730  06C4  0837               	movwf	(___awmod@dividend+1)
  4731  06C5  00F3               	movf	(main@n)^0180h,w
  4732  06C6  0836               	movwf	(___awmod@dividend)
  4733  06C7  00F2               	fcall	___awmod
  4734  06C8  160A  118A  21D5  120A  118A  	movf	(1+(?___awmod)),w
  4735  06CD  0871               	bsf	status, 5	;RP0=1, select bank3
  4736  06CE  1683               	bsf	status, 6	;RP1=1, select bank3
  4737  06CF  1703               	movwf	(main@n+1)^0180h
  4738  06D0  00B7               	movf	(0+(?___awmod)),w
  4739  06D1  0870               	movwf	(main@n)^0180h
  4740  06D2  00B6               	line	458
  4741                           	
  4742                           l3652:	
  4743  06D3                     ;ROKZ1.c: 458:                     RC0=1;
  4744                           	bcf	status, 5	;RP0=0, select bank0
  4745  06D3  1283               	bcf	status, 6	;RP1=0, select bank0
  4746  06D4  1303               	bsf	(56/8),(56)&7	;volatile
  4747  06D5  1407               	line	459
  4748                           	
  4749                           l3654:	
  4750  06D6                     ;ROKZ1.c: 459:                     RC1=1;
  4751                           	bsf	(57/8),(57)&7	;volatile
  4752  06D6  1487               	line	460
  4753                           	
  4754                           l3656:	
  4755  06D7                     ;ROKZ1.c: 460:                     RC3=1;
  4756                           	bsf	(59/8),(59)&7	;volatile
  4757  06D7  1587               	line	461
  4758                           	
  4759                           l3658:	
  4760  06D8                     ;ROKZ1.c: 461:                     PORTB=DISPLEJ1[m];
  4761                           	bsf	status, 5	;RP0=1, select bank3
  4762  06D8  1683               	bsf	status, 6	;RP1=1, select bank3
  4763  06D9  1703               	movf	(main@m)^0180h,w
  4764  06DA  0826               	addlw	low(main@DISPLEJ1|((0x0)<<8))&0ffh
  4765  06DB  3E44               	movwf	fsr0
  4766  06DC  0084               	bcf	status, 7	;select IRP bank0
  4767  06DD  1383               	movf	indf,w
  4768  06DE  0800               	bcf	status, 5	;RP0=0, select bank0
  4769  06DF  1283               	bcf	status, 6	;RP1=0, select bank0
  4770  06E0  1303               	movwf	(6)	;volatile
  4771  06E1  0086               	line	462
  4772                           	
  4773                           l3660:	
  4774  06E2                     ;ROKZ1.c: 462:                     RC2=0;
  4775                           	bcf	(58/8),(58)&7	;volatile
  4776  06E2  1107               	line	463
  4777                           	
  4778                           l3662:	
  4779  06E3                     ;ROKZ1.c: 463:                     _delay((unsigned long)((250)*(20000000/4000.0)));
  4780                           	opt asmopt_push
  4781                           opt asmopt_off
  4782                           movlw  7
  4783  06E3  3007               	bcf	status, 5	;RP0=0, select bank0
  4784  06E4  1283               	bcf	status, 6	;RP1=0, select bank0
  4785  06E5  1303               movwf	((??_main+0)+0+2),f
  4786  06E6  00C2               movlw	88
  4787  06E7  3058               movwf	((??_main+0)+0+1),f
  4788  06E8  00C1               	movlw	89
  4789  06E9  3059               movwf	((??_main+0)+0),f
  4790  06EA  00C0               	u4357:
  4791  06EB                     decfsz	((??_main+0)+0),f
  4792  06EB  0BC0               	goto	u4357
  4793  06EC  2EEB               	decfsz	((??_main+0)+0+1),f
  4794  06ED  0BC1               	goto	u4357
  4795  06EE  2EEB               	decfsz	((??_main+0)+0+2),f
  4796  06EF  0BC2               	goto	u4357
  4797  06F0  2EEB               opt asmopt_pop
  4798                           
  4799                           	line	465
  4800                           	
  4801                           l3664:	
  4802  06F1                     ;ROKZ1.c: 465:                     RC0=1;
  4803                           	bcf	status, 5	;RP0=0, select bank0
  4804  06F1  1283               	bcf	status, 6	;RP1=0, select bank0
  4805  06F2  1303               	bsf	(56/8),(56)&7	;volatile
  4806  06F3  1407               	line	466
  4807                           	
  4808                           l3666:	
  4809  06F4                     ;ROKZ1.c: 466:                     RC1=1;
  4810                           	bsf	(57/8),(57)&7	;volatile
  4811  06F4  1487               	line	467
  4812                           	
  4813                           l3668:	
  4814  06F5                     ;ROKZ1.c: 467:                     RC2=1;
  4815                           	bsf	(58/8),(58)&7	;volatile
  4816  06F5  1507               	line	468
  4817                           	
  4818                           l3670:	
  4819  06F6                     ;ROKZ1.c: 468:                     PORTB=DISPLEJ[n];
  4820                           	bsf	status, 5	;RP0=1, select bank3
  4821  06F6  1683               	bsf	status, 6	;RP1=1, select bank3
  4822  06F7  1703               	movf	(main@n)^0180h,w
  4823  06F8  0836               	addlw	low(main@DISPLEJ|((0x1)<<8))&0ffh
  4824  06F9  3E90               	movwf	fsr0
  4825  06FA  0084               	bsf	status, 7	;select IRP bank3
  4826  06FB  1783               	movf	indf,w
  4827  06FC  0800               	bcf	status, 5	;RP0=0, select bank0
  4828  06FD  1283               	bcf	status, 6	;RP1=0, select bank0
  4829  06FE  1303               	movwf	(6)	;volatile
  4830  06FF  0086               	line	469
  4831                           	
  4832                           l3672:	
  4833  0700                     ;ROKZ1.c: 469:                     RC3=0;
  4834                           	bcf	(59/8),(59)&7	;volatile
  4835  0700  1187               	line	470
  4836                           	
  4837                           l3674:	
  4838  0701                     ;ROKZ1.c: 470:                     _delay((unsigned long)((250)*(20000000/4000.0)));
  4839                           	opt asmopt_push
  4840                           opt asmopt_off
  4841                           movlw  7
  4842  0701  3007               	bcf	status, 5	;RP0=0, select bank0
  4843  0702  1283               	bcf	status, 6	;RP1=0, select bank0
  4844  0703  1303               movwf	((??_main+0)+0+2),f
  4845  0704  00C2               movlw	88
  4846  0705  3058               movwf	((??_main+0)+0+1),f
  4847  0706  00C1               	movlw	89
  4848  0707  3059               movwf	((??_main+0)+0),f
  4849  0708  00C0               	u4367:
  4850  0709                     decfsz	((??_main+0)+0),f
  4851  0709  0BC0               	goto	u4367
  4852  070A  2F09               	decfsz	((??_main+0)+0+1),f
  4853  070B  0BC1               	goto	u4367
  4854  070C  2F09               	decfsz	((??_main+0)+0+2),f
  4855  070D  0BC2               	goto	u4367
  4856  070E  2F09               opt asmopt_pop
  4857                           
  4858                           	line	473
  4859                           	
  4860                           l3676:	
  4861  070F                     ;ROKZ1.c: 472:                 char buffer4[20];;ROKZ1.c: 473:                 sprintf(b
                                 uffer4,"%d.%d",m,n);
  4862                           	movlw	low(((STR_34)|8000h))
  4863  070F  30DA               	bcf	status, 5	;RP0=0, select bank0
  4864  0710  1283               	bcf	status, 6	;RP1=0, select bank0
  4865  0711  1303               	movwf	(sprintf@f)
  4866  0712  00AD               	movlw	high(((STR_34)|8000h))
  4867  0713  3099               	movwf	((sprintf@f))+1
  4868  0714  00AE               	bsf	status, 5	;RP0=1, select bank3
  4869  0715  1683               	bsf	status, 6	;RP1=1, select bank3
  4870  0716  1703               	movf	(main@m+1)^0180h,w
  4871  0717  0827               	bcf	status, 5	;RP0=0, select bank0
  4872  0718  1283               	bcf	status, 6	;RP1=0, select bank0
  4873  0719  1303               	movwf	1+(?_sprintf)+02h
  4874  071A  00B0               	bsf	status, 5	;RP0=1, select bank3
  4875  071B  1683               	bsf	status, 6	;RP1=1, select bank3
  4876  071C  1703               	movf	(main@m)^0180h,w
  4877  071D  0826               	bcf	status, 5	;RP0=0, select bank0
  4878  071E  1283               	bcf	status, 6	;RP1=0, select bank0
  4879  071F  1303               	movwf	0+(?_sprintf)+02h
  4880  0720  00AF               	bsf	status, 5	;RP0=1, select bank3
  4881  0721  1683               	bsf	status, 6	;RP1=1, select bank3
  4882  0722  1703               	movf	(main@n+1)^0180h,w
  4883  0723  0837               	bcf	status, 5	;RP0=0, select bank0
  4884  0724  1283               	bcf	status, 6	;RP1=0, select bank0
  4885  0725  1303               	movwf	1+(?_sprintf)+04h
  4886  0726  00B2               	bsf	status, 5	;RP0=1, select bank3
  4887  0727  1683               	bsf	status, 6	;RP1=1, select bank3
  4888  0728  1703               	movf	(main@n)^0180h,w
  4889  0729  0836               	bcf	status, 5	;RP0=0, select bank0
  4890  072A  1283               	bcf	status, 6	;RP1=0, select bank0
  4891  072B  1303               	movwf	0+(?_sprintf)+04h
  4892  072C  00B1               	movlw	(low(main@buffer4|((0x0)<<8)))&0ffh
  4893  072D  30C8               	fcall	_sprintf
  4894  072E  160A  118A  2001  120A  118A  	line	474
  4895                           	
  4896                           l3678:	
  4897  0733                     ;ROKZ1.c: 474:                 printf("\rKolicnik -> ");
  4898                           	movlw	low(((STR_35)|8000h))
  4899  0733  305A               	bcf	status, 5	;RP0=0, select bank0
  4900  0734  1283               	bcf	status, 6	;RP1=0, select bank0
  4901  0735  1303               	movwf	(printf@f)
  4902  0736  00AD               	movlw	high(((STR_35)|8000h))
  4903  0737  3099               	movwf	((printf@f))+1
  4904  0738  00AE               	fcall	_printf
  4905  0739  160A  158A  27E5  120A  118A  	line	475
  4906                           	
  4907                           l3680:	
  4908  073E                     ;ROKZ1.c: 475:                 printf(buffer4);
  4909                           	movlw	(low(main@buffer4|((0x0)<<8))&0ffh)
  4910  073E  30C8               	bcf	status, 5	;RP0=0, select bank0
  4911  073F  1283               	bcf	status, 6	;RP1=0, select bank0
  4912  0740  1303               	movwf	(printf@f)
  4913  0741  00AD               	movlw	(0x0)
  4914  0742  3000               	movwf	(printf@f+1)
  4915  0743  00AE               	fcall	_printf
  4916  0744  160A  158A  27E5  120A  118A  	line	476
  4917                           	
  4918                           l3682:	
  4919  0749                     ;ROKZ1.c: 476:                 printf("\r\r");
  4920                           	movlw	low(((STR_36)|8000h))
  4921  0749  30E0               	bcf	status, 5	;RP0=0, select bank0
  4922  074A  1283               	bcf	status, 6	;RP1=0, select bank0
  4923  074B  1303               	movwf	(printf@f)
  4924  074C  00AD               	movlw	high(((STR_36)|8000h))
  4925  074D  3099               	movwf	((printf@f))+1
  4926  074E  00AE               	fcall	_printf
  4927  074F  160A  158A  27E5  120A  118A  	line	478
  4928                           	
  4929                           l3684:	
  4930  0754                     ;ROKZ1.c: 478:                 Lcd_Set_Cursor(2,1);
  4931                           	clrf	(Lcd_Set_Cursor@b)
  4932  0754  01F4               	incf	(Lcd_Set_Cursor@b),f
  4933  0755  0AF4               	movlw	low(02h)
  4934  0756  3002               	fcall	_Lcd_Set_Cursor
  4935  0757  120A  118A  2013  120A  118A  	line	479
  4936                           	
  4937                           l3686:	
  4938  075C                     ;ROKZ1.c: 479:                 Lcd_Write_Char(k2);
  4939                           	bsf	status, 5	;RP0=1, select bank3
  4940  075C  1683               	bsf	status, 6	;RP1=1, select bank3
  4941  075D  1703               	movf	(main@k2)^0180h,w
  4942  075E  0838               	fcall	_Lcd_Write_Char
  4943  075F  160A  118A  206E  120A  118A  	line	480
  4944                           	
  4945                           l3688:	
  4946  0764                     ;ROKZ1.c: 480:                 Lcd_Set_Cursor(2,3);
  4947                           	movlw	low(03h)
  4948  0764  3003               	bcf	status, 5	;RP0=0, select bank0
  4949  0765  1283               	bcf	status, 6	;RP1=0, select bank0
  4950  0766  1303               	movwf	(??_main+0)+0
  4951  0767  00C0               	movf	(??_main+0)+0,w
  4952  0768  0840               	movwf	(Lcd_Set_Cursor@b)
  4953  0769  00F4               	movlw	low(02h)
  4954  076A  3002               	fcall	_Lcd_Set_Cursor
  4955  076B  120A  118A  2013  120A  118A  	line	481
  4956                           	
  4957                           l3690:	
  4958  0770                     ;ROKZ1.c: 481:                 Lcd_Write_Char('/');
  4959                           	movlw	low(02Fh)
  4960  0770  302F               	fcall	_Lcd_Write_Char
  4961  0771  160A  118A  206E  120A  118A  	line	482
  4962                           	
  4963                           l3692:	
  4964  0776                     ;ROKZ1.c: 482:                 Lcd_Set_Cursor(2,5);
  4965                           	movlw	low(05h)
  4966  0776  3005               	bcf	status, 5	;RP0=0, select bank0
  4967  0777  1283               	bcf	status, 6	;RP1=0, select bank0
  4968  0778  1303               	movwf	(??_main+0)+0
  4969  0779  00C0               	movf	(??_main+0)+0,w
  4970  077A  0840               	movwf	(Lcd_Set_Cursor@b)
  4971  077B  00F4               	movlw	low(02h)
  4972  077C  3002               	fcall	_Lcd_Set_Cursor
  4973  077D  120A  118A  2013  120A  118A  	line	483
  4974                           	
  4975                           l3694:	
  4976  0782                     ;ROKZ1.c: 483:                 Lcd_Write_Char(k4);
  4977                           	bsf	status, 5	;RP0=1, select bank3
  4978  0782  1683               	bsf	status, 6	;RP1=1, select bank3
  4979  0783  1703               	movf	(main@k4)^0180h,w
  4980  0784  083A               	fcall	_Lcd_Write_Char
  4981  0785  160A  118A  206E  120A  118A  	line	484
  4982                           	
  4983                           l3696:	
  4984  078A                     ;ROKZ1.c: 484:                 Lcd_Set_Cursor(2,7);
  4985                           	movlw	low(07h)
  4986  078A  3007               	bcf	status, 5	;RP0=0, select bank0
  4987  078B  1283               	bcf	status, 6	;RP1=0, select bank0
  4988  078C  1303               	movwf	(??_main+0)+0
  4989  078D  00C0               	movf	(??_main+0)+0,w
  4990  078E  0840               	movwf	(Lcd_Set_Cursor@b)
  4991  078F  00F4               	movlw	low(02h)
  4992  0790  3002               	fcall	_Lcd_Set_Cursor
  4993  0791  120A  118A  2013  120A  118A  	line	485
  4994                           	
  4995                           l3698:	
  4996  0796                     ;ROKZ1.c: 485:                 Lcd_Write_Char('=');
  4997                           	movlw	low(03Dh)
  4998  0796  303D               	fcall	_Lcd_Write_Char
  4999  0797  160A  118A  206E  120A  118A  	line	486
  5000                           	
  5001                           l3700:	
  5002  079C                     ;ROKZ1.c: 486:                 Lcd_Set_Cursor(2,9);
  5003                           	movlw	low(09h)
  5004  079C  3009               	bcf	status, 5	;RP0=0, select bank0
  5005  079D  1283               	bcf	status, 6	;RP1=0, select bank0
  5006  079E  1303               	movwf	(??_main+0)+0
  5007  079F  00C0               	movf	(??_main+0)+0,w
  5008  07A0  0840               	movwf	(Lcd_Set_Cursor@b)
  5009  07A1  00F4               	movlw	low(02h)
  5010  07A2  3002               	fcall	_Lcd_Set_Cursor
  5011  07A3  120A  118A  2013  120A  118A  	line	487
  5012                           	
  5013                           l3702:	
  5014  07A8                     ;ROKZ1.c: 487:                 Lcd_Write_String(buffer4);
  5015                           	movlw	(low(main@buffer4|((0x0)<<8))&0ffh)
  5016  07A8  30C8               	movwf	(Lcd_Write_String@a)
  5017  07A9  00F5               	movlw	(0x0)
  5018  07AA  3000               	movwf	(Lcd_Write_String@a+1)
  5019  07AB  00F6               	fcall	_Lcd_Write_String
  5020  07AC  160A  118A  20E8  120A  118A  	line	488
  5021                           	
  5022                           l3704:	
  5023  07B1                     ;ROKZ1.c: 488:                 _delay((unsigned long)((500)*(20000000/4000.0)));
  5024                           	opt asmopt_push
  5025                           opt asmopt_off
  5026                           movlw  13
  5027  07B1  300D               	bcf	status, 5	;RP0=0, select bank0
  5028  07B2  1283               	bcf	status, 6	;RP1=0, select bank0
  5029  07B3  1303               movwf	((??_main+0)+0+2),f
  5030  07B4  00C2               movlw	175
  5031  07B5  30AF               movwf	((??_main+0)+0+1),f
  5032  07B6  00C1               	movlw	181
  5033  07B7  30B5               movwf	((??_main+0)+0),f
  5034  07B8  00C0               	u4377:
  5035  07B9                     decfsz	((??_main+0)+0),f
  5036  07B9  0BC0               	goto	u4377
  5037  07BA  2FB9               	decfsz	((??_main+0)+0+1),f
  5038  07BB  0BC1               	goto	u4377
  5039  07BC  2FB9               	decfsz	((??_main+0)+0+2),f
  5040  07BD  0BC2               	goto	u4377
  5041  07BE  2FB9               	nop2
  5042  07BF  2FC0               opt asmopt_pop
  5043                           
  5044                           	line	489
  5045                           	
  5046                           l3706:	
  5047  07C0                     ;ROKZ1.c: 489:                 Lcd_Clear();
  5048                           	fcall	_Lcd_Clear
  5049  07C0  160A  158A  276E  120A  118A  	line	490
  5050                           ;ROKZ1.c: 490:                 break;
  5051                           	goto	l3712
  5052  07C5  2FDC               	line	491
  5053                           	
  5054                           l3708:	
  5055  07C6                     ;ROKZ1.c: 491:         }
  5056                           	goto	l3712
  5057  07C6  2FDC               	
  5058                           l134:	
  5059  07C7                     	
  5060                           l3710:	
  5061  07C7                     	; Switch on 2 bytes has been partitioned into a top level switch of size 1, and 1 sub-s
                                 witches
  5062                           ; Switch size 1, requested type "space"
  5063                           ; Number of cases is 1, Range of values is 0 to 0
  5064                           ; switch strategies available:
  5065                           ; Name         Instructions Cycles
  5066                           ; simple_byte            4     3 (average)
  5067                           ; direct_byte           11     8 (fixed)
  5068                           ; jumptable            260     6 (fixed)
  5069                           ;	Chosen strategy is simple_byte
  5070                           
  5071                           	bsf	status, 5	;RP0=1, select bank3
  5072  07C7  1683               	bsf	status, 6	;RP1=1, select bank3
  5073  07C8  1703               	movf (main@opcija+1)^0180h,w
  5074  07C9  0829               	opt asmopt_push
  5075                           	opt asmopt_off
  5076                           	xorlw	0^0	; case 0
  5077  07CA  3A00               	skipnz
  5078  07CB  1903               	goto	l3768
  5079  07CC  2FCE               	goto	l3712
  5080  07CD  2FDC               	opt asmopt_pop
  5081                           	
  5082                           l3768:	
  5083  07CE                     ; Switch size 1, requested type "space"
  5084                           ; Number of cases is 4, Range of values is 49 to 52
  5085                           ; switch strategies available:
  5086                           ; Name         Instructions Cycles
  5087                           ; simple_byte           13     7 (average)
  5088                           ; direct_byte           23    11 (fixed)
  5089                           ; jumptable            263     9 (fixed)
  5090                           ;	Chosen strategy is simple_byte
  5091                           
  5092                           	movf (main@opcija)^0180h,w
  5093  07CE  0828               	opt asmopt_push
  5094                           	opt asmopt_off
  5095                           	xorlw	49^0	; case 49
  5096  07CF  3A31               	skipnz
  5097  07D0  1903               	goto	l3252
  5098  07D1  2FEB               	xorlw	50^49	; case 50
  5099  07D2  3A03               	skipnz
  5100  07D3  1903               	goto	l3366
  5101  07D4  2929               	xorlw	51^50	; case 51
  5102  07D5  3A01               	skipnz
  5103  07D6  1903               	goto	l3482
  5104  07D7  2B2D               	xorlw	52^51	; case 52
  5105  07D8  3A07               	skipnz
  5106  07D9  1903               	goto	l3596
  5107  07DA  2D24               	goto	l3712
  5108  07DB  2FDC               	opt asmopt_pop
  5109                           
  5110                           	
  5111                           l138:	
  5112  07DC                     	line	493
  5113                           	
  5114                           l3712:	
  5115  07DC                     ;ROKZ1.c: 493:     }
  5116                           		movlw	5
  5117  07DC  3005               	bsf	status, 5	;RP0=1, select bank3
  5118  07DD  1683               	bsf	status, 6	;RP1=1, select bank3
  5119  07DE  1703               	xorwf	((main@opcija)^0180h),w
  5120  07DF  0628               iorwf	((main@opcija+1)^0180h),w
  5121  07E0  0429               	btfss	status,2
  5122  07E1  1D03               	goto	u4181
  5123  07E2  2FE4               	goto	u4180
  5124  07E3  2FE7               u4181:
  5125  07E4                     	goto	l3232
  5126  07E4  160A  118A  2D9E   u4180:
  5127  07E7                     	goto	l149
  5128  07E7  2FE8               	
  5129                           l148:	
  5130  07E8                     	line	495
  5131                           	
  5132                           l149:	
  5133  07E8                     	global	start
  5134                           	ljmp	start
  5135  07E8  120A  118A  2800   	opt stack 0
      + 07EB                     L1:	
  5136                           GLOBAL	__end_of_main
  5137                           	__end_of_main:
  5138  07EB                     	signat	_main,89
  5139                           	global	_sprintf
  5140                           
  5141 ;; *************** function _sprintf *****************
  5142 ;; Defined at:
  5143 ;;		line 13 in file "C:\Program Files (x86)\Microchip\xc8\v2.00\pic\sources\c90\common\sprintf.c"
  5144 ;; Parameters:    Size  Location     Type
  5145 ;;  wh              1    wreg     PTR unsigned char 
  5146 ;;		 -> main@buffer4(20), main@buffer3(20), main@buffer2(20), main@buffer1(20), 
  5147 ;;  f               2   13[BANK0 ] PTR const unsigned char 
  5148 ;;		 -> STR_34(6), STR_27(3), STR_20(3), STR_13(3), 
  5149 ;; Auto vars:     Size  Location     Type
  5150 ;;  wh              1   21[BANK0 ] PTR unsigned char 
  5151 ;;		 -> main@buffer4(20), main@buffer3(20), main@buffer2(20), main@buffer1(20), 
  5152 ;;  pb              2   22[BANK0 ] struct __prbuf
  5153 ;;  ap              1   20[BANK0 ] PTR void [1]
  5154 ;;		 -> ?_sprintf(2), ?_printf(2), 
  5155 ;; Return value:  Size  Location     Type
  5156 ;;                  2   13[BANK0 ] int 
  5157 ;; Registers used:
  5158 ;;		wreg, fsr0l, fsr0h, status,2, status,0, btemp+1, pclath, cstack
  5159 ;; Tracked objects:
  5160 ;;		On entry : 0/0
  5161 ;;		On exit  : 0/0
  5162 ;;		Unchanged: 0/0
  5163 ;; Data sizes:     COMMON   BANK0   BANK1   BANK3   BANK2
  5164 ;;      Params:         0       6       0       0       0
  5165 ;;      Locals:         0       4       0       0       0
  5166 ;;      Temps:          0       1       0       0       0
  5167 ;;      Totals:         0      11       0       0       0
  5168 ;;Total ram usage:       11 bytes
  5169 ;; Hardware stack levels used:    1
  5170 ;; Hardware stack levels required when called:    3
  5171 ;; This function calls:
  5172 ;;		__doprnt
  5173 ;; This function is called by:
  5174 ;;		_main
  5175 ;; This function uses a non-reentrant model
  5176 ;;
  5177                           psect	text1,local,class=CODE,delta=2,merge=1,group=2
  5178                           	file	"C:\Program Files (x86)\Microchip\xc8\v2.00\pic\sources\c90\common\sprintf.c"
  5179                           	line	13
  5180                           global __ptext1
  5181                           __ptext1:	;psect for function _sprintf
  5182  1001                     psect	text1
  5183                           	file	"C:\Program Files (x86)\Microchip\xc8\v2.00\pic\sources\c90\common\sprintf.c"
  5184                           	line	13
  5185                           	global	__size_of_sprintf
  5186                           	__size_of_sprintf	equ	__end_of_sprintf-_sprintf
  5187  0022                     	
  5188                           _sprintf:	
  5189  1001                     ;incstack = 0
  5190                           	opt	stack 4
  5191                           ; Regs used in _sprintf: [wreg-fsr0h+status,2+status,0+btemp+1+pclath+cstack]
  5192                           ;sprintf@wh stored from wreg
  5193                           	bcf	status, 5	;RP0=0, select bank0
  5194  1001  1283               	bcf	status, 6	;RP1=0, select bank0
  5195  1002  1303               	movwf	(sprintf@wh)
  5196  1003  00B5               	line	31
  5197                           	
  5198                           l2546:	
  5199  1004                     	movf	(sprintf@wh),w
  5200  1004  0835               	movwf	(??_sprintf+0)+0
  5201  1005  00B3               	movf	(??_sprintf+0)+0,w
  5202  1006  0833               	movwf	(sprintf@pb)
  5203  1007  00B6               	line	32
  5204                           	
  5205                           l2548:	
  5206  1008                     	clrf	(0+low(sprintf@pb|((0x0)<<8)+01h))
  5207  1008  01B7               	line	33
  5208                           	
  5209                           l2550:	
  5210  1009                     	movlw	(low(?_sprintf|((0x0)<<8)+02h))&0ffh
  5211  1009  302F               	movwf	(??_sprintf+0)+0
  5212  100A  00B3               	movf	(??_sprintf+0)+0,w
  5213  100B  0833               	movwf	(sprintf@ap)
  5214  100C  00B4               	line	34
  5215                           	
  5216                           l2552:	
  5217  100D                     		movf	(sprintf@f),w
  5218  100D  082D               	movwf	(__doprnt@f)
  5219  100E  00A0               movf	(sprintf@f+1),w
  5220  100F  082E               movwf	(__doprnt@f+1)
  5221  1010  00A1               
  5222                           	movlw	(low(sprintf@ap|((0x0)<<8)))&0ffh
  5223  1011  3034               	movwf	(??_sprintf+0)+0
  5224  1012  00B3               	movf	(??_sprintf+0)+0,w
  5225  1013  0833               	movwf	(__doprnt@ap)
  5226  1014  00A2               	movlw	(low(sprintf@pb|((0x0)<<8)))&0ffh
  5227  1015  3036               	fcall	__doprnt
  5228  1016  120A  158A  2036  160A  118A  	line	35
  5229                           	
  5230                           l2554:	
  5231  101B                     	bcf	status, 5	;RP0=0, select bank0
  5232  101B  1283               	bcf	status, 6	;RP1=0, select bank0
  5233  101C  1303               	movf	(sprintf@pb),w
  5234  101D  0836               	movwf	fsr0
  5235  101E  0084               	bcf	status, 7	;select IRP bank0
  5236  101F  1383               	clrf	indf
  5237  1020  0180               	goto	l716
  5238  1021  2822               	line	36
  5239                           	
  5240                           l2556:	
  5241  1022                     	line	38
  5242                           ;	Return value of _sprintf is never used
  5243                           	
  5244                           l716:	
  5245  1022                     	return
  5246  1022  0008               	opt stack 0
  5247                           GLOBAL	__end_of_sprintf
  5248                           	__end_of_sprintf:
  5249  1023                     	signat	_sprintf,4698
  5250                           	global	_printf
  5251                           
  5252 ;; *************** function _printf *****************
  5253 ;; Defined at:
  5254 ;;		line 13 in file "C:\Program Files (x86)\Microchip\xc8\v2.00\pic\sources\c90\common\printf.c"
  5255 ;; Parameters:    Size  Location     Type
  5256 ;;  f               2   13[BANK0 ] PTR const unsigned char 
  5257 ;;		 -> STR_36(3), STR_35(14), main@buffer4(20), STR_33(22), 
  5258 ;;		 -> STR_32(22), STR_30(27), STR_29(3), STR_28(14), 
  5259 ;;		 -> main@buffer3(20), STR_26(22), STR_25(22), STR_23(25), 
  5260 ;;		 -> STR_22(3), STR_21(13), main@buffer2(20), STR_19(22), 
  5261 ;;		 -> STR_18(22), STR_16(27), STR_15(3), STR_14(15), 
  5262 ;;		 -> main@buffer1(20), STR_12(22), STR_11(22), STR_9(25), 
  5263 ;;		 -> STR_8(3), STR_7(42), STR_6(14), STR_5(12), 
  5264 ;;		 -> STR_4(14), STR_3(13), STR_2(50), STR_1(49), 
  5265 ;; Auto vars:     Size  Location     Type
  5266 ;;  pb              2   17[BANK0 ] struct __prbuf
  5267 ;;  ap              1   16[BANK0 ] PTR void [1]
  5268 ;;		 -> ?_sprintf(2), ?_printf(2), 
  5269 ;; Return value:  Size  Location     Type
  5270 ;;                  2   13[BANK0 ] int 
  5271 ;; Registers used:
  5272 ;;		wreg, fsr0l, fsr0h, status,2, status,0, btemp+1, pclath, cstack
  5273 ;; Tracked objects:
  5274 ;;		On entry : 0/0
  5275 ;;		On exit  : 0/0
  5276 ;;		Unchanged: 0/0
  5277 ;; Data sizes:     COMMON   BANK0   BANK1   BANK3   BANK2
  5278 ;;      Params:         0       2       0       0       0
  5279 ;;      Locals:         0       3       0       0       0
  5280 ;;      Temps:          0       1       0       0       0
  5281 ;;      Totals:         0       6       0       0       0
  5282 ;;Total ram usage:        6 bytes
  5283 ;; Hardware stack levels used:    1
  5284 ;; Hardware stack levels required when called:    3
  5285 ;; This function calls:
  5286 ;;		__doprnt
  5287 ;; This function is called by:
  5288 ;;		_main
  5289 ;; This function uses a non-reentrant model
  5290 ;;
  5291                           psect	text2,local,class=CODE,delta=2,merge=1,group=2
  5292                           	file	"C:\Program Files (x86)\Microchip\xc8\v2.00\pic\sources\c90\common\printf.c"
  5293                           	line	13
  5294                           global __ptext2
  5295                           __ptext2:	;psect for function _printf
  5296  1FE5                     psect	text2
  5297                           	file	"C:\Program Files (x86)\Microchip\xc8\v2.00\pic\sources\c90\common\printf.c"
  5298                           	line	13
  5299                           	global	__size_of_printf
  5300                           	__size_of_printf	equ	__end_of_printf-_printf
  5301  001B                     	
  5302                           _printf:	
  5303  1FE5                     ;incstack = 0
  5304                           	opt	stack 4
  5305                           ; Regs used in _printf: [wreg-fsr0h+status,2+status,0+btemp+1+pclath+cstack]
  5306                           	line	23
  5307                           	
  5308                           l2536:	
  5309  1FE5                     	bcf	status, 5	;RP0=0, select bank0
  5310  1FE5  1283               	bcf	status, 6	;RP1=0, select bank0
  5311  1FE6  1303               	clrf	(printf@pb)
  5312  1FE7  01B1               	line	24
  5313                           	
  5314                           l2538:	
  5315  1FE8                     	movlw	(low((fp__putch-fpbase)))&0ffh
  5316  1FE8  3001               	movwf	(??_printf+0)+0
  5317  1FE9  00AF               	movf	(??_printf+0)+0,w
  5318  1FEA  082F               	movwf	(0+low(printf@pb|((0x0)<<8)+01h))
  5319  1FEB  00B2               	line	25
  5320                           	
  5321                           l2540:	
  5322  1FEC                     	movlw	(low(?_printf|((0x0)<<8)+02h))&0ffh
  5323  1FEC  302F               	movwf	(??_printf+0)+0
  5324  1FED  00AF               	movf	(??_printf+0)+0,w
  5325  1FEE  082F               	movwf	(printf@ap)
  5326  1FEF  00B0               	line	26
  5327                           	
  5328                           l2542:	
  5329  1FF0                     ;	Return value of _printf is never used
  5330                           		movf	(printf@f),w
  5331  1FF0  082D               	movwf	(__doprnt@f)
  5332  1FF1  00A0               movf	(printf@f+1),w
  5333  1FF2  082E               movwf	(__doprnt@f+1)
  5334  1FF3  00A1               
  5335                           	movlw	(low(printf@ap|((0x0)<<8)))&0ffh
  5336  1FF4  3030               	movwf	(??_printf+0)+0
  5337  1FF5  00AF               	movf	(??_printf+0)+0,w
  5338  1FF6  082F               	movwf	(__doprnt@ap)
  5339  1FF7  00A2               	movlw	(low(printf@pb|((0x0)<<8)))&0ffh
  5340  1FF8  3031               	fcall	__doprnt
  5341  1FF9  120A  158A  2036  160A  158A  	goto	l709
  5342  1FFE  2FFF               	
  5343                           l2544:	
  5344  1FFF                     	line	28
  5345                           	
  5346                           l709:	
  5347  1FFF                     	return
  5348  1FFF  0008               	opt stack 0
  5349                           GLOBAL	__end_of_printf
  5350                           	__end_of_printf:
  5351  2000                     	signat	_printf,602
  5352                           	global	__doprnt
  5353                           
  5354 ;; *************** function __doprnt *****************
  5355 ;; Defined at:
  5356 ;;		line 466 in file "C:\Program Files (x86)\Microchip\xc8\v2.00\pic\sources\c90\common\doprnt.c"
  5357 ;; Parameters:    Size  Location     Type
  5358 ;;  pb              1    wreg     PTR struct __prbuf
  5359 ;;		 -> sprintf@pb(2), printf@pb(2), 
  5360 ;;  f               2    0[BANK0 ] PTR const unsigned char 
  5361 ;;		 -> STR_36(3), STR_35(14), STR_34(6), main@buffer4(20), 
  5362 ;;		 -> STR_33(22), STR_32(22), STR_30(27), STR_29(3), 
  5363 ;;		 -> STR_28(14), STR_27(3), main@buffer3(20), STR_26(22), 
  5364 ;;		 -> STR_25(22), STR_23(25), STR_22(3), STR_21(13), 
  5365 ;;		 -> STR_20(3), main@buffer2(20), STR_19(22), STR_18(22), 
  5366 ;;		 -> STR_16(27), STR_15(3), STR_14(15), STR_13(3), 
  5367 ;;		 -> main@buffer1(20), STR_12(22), STR_11(22), STR_9(25), 
  5368 ;;		 -> STR_8(3), STR_7(42), STR_6(14), STR_5(12), 
  5369 ;;		 -> STR_4(14), STR_3(13), STR_2(50), STR_1(49), 
  5370 ;;  ap              1    2[BANK0 ] PTR PTR void 
  5371 ;;		 -> sprintf@ap(1), printf@ap(1), 
  5372 ;; Auto vars:     Size  Location     Type
  5373 ;;  pb              1   12[BANK0 ] PTR struct __prbuf
  5374 ;;		 -> sprintf@pb(2), printf@pb(2), 
  5375 ;;  tmpval          4    0        struct .
  5376 ;;  val             2    9[BANK0 ] unsigned int 
  5377 ;;  cp              2    0        PTR const unsigned char 
  5378 ;;  len             2    0        unsigned int 
  5379 ;;  c               1   11[BANK0 ] unsigned char 
  5380 ;;  prec            1    8[BANK0 ] char 
  5381 ;;  flag            1    7[BANK0 ] unsigned char 
  5382 ;; Return value:  Size  Location     Type
  5383 ;;                  2    0[BANK0 ] int 
  5384 ;; Registers used:
  5385 ;;		wreg, fsr0l, fsr0h, status,2, status,0, btemp+1, pclath, cstack
  5386 ;; Tracked objects:
  5387 ;;		On entry : 0/0
  5388 ;;		On exit  : 0/0
  5389 ;;		Unchanged: 0/0
  5390 ;; Data sizes:     COMMON   BANK0   BANK1   BANK3   BANK2
  5391 ;;      Params:         0       3       0       0       0
  5392 ;;      Locals:         0       6       0       0       0
  5393 ;;      Temps:          0       4       0       0       0
  5394 ;;      Totals:         0      13       0       0       0
  5395 ;;Total ram usage:       13 bytes
  5396 ;; Hardware stack levels used:    1
  5397 ;; Hardware stack levels required when called:    2
  5398 ;; This function calls:
  5399 ;;		Absolute function
  5400 ;;		___lwdiv
  5401 ;;		___lwmod
  5402 ;;		_putch
  5403 ;; This function is called by:
  5404 ;;		_printf
  5405 ;;		_sprintf
  5406 ;; This function uses a non-reentrant model
  5407 ;;
  5408                           psect	text3,local,class=CODE,delta=2,merge=1,group=0
  5409                           	file	"C:\Program Files (x86)\Microchip\xc8\v2.00\pic\sources\c90\common\doprnt.c"
  5410                           	line	466
  5411                           global __ptext3
  5412                           __ptext3:	;psect for function __doprnt
  5413  0836                     psect	text3
  5414                           	file	"C:\Program Files (x86)\Microchip\xc8\v2.00\pic\sources\c90\common\doprnt.c"
  5415                           	line	466
  5416                           	global	__size_of__doprnt
  5417                           	__size_of__doprnt	equ	__end_of__doprnt-__doprnt
  5418  0199                     	
  5419                           __doprnt:	
  5420  0836                     ;incstack = 0
  5421                           	opt	stack 4
  5422                           ; Regs used in __doprnt: [wreg-fsr0h+status,2+status,0+btemp+1+pclath+cstack]
  5423                           ;__doprnt@pb stored from wreg
  5424                           	bcf	status, 5	;RP0=0, select bank0
  5425  0836  1283               	bcf	status, 6	;RP1=0, select bank0
  5426  0837  1303               	movwf	(__doprnt@pb)
  5427  0838  00AC               	line	548
  5428                           	
  5429                           l2374:	
  5430  0839                     ;C:\Program Files (x86)\Microchip\xc8\v2.00\pic\sources\c90\common\doprnt.c: 466: _doprn
                                 t(struct __prbuf * pb, register const char * f, register va_list ap);C:\Program Files (x
                                 86)\Microchip\xc8\v2.00\pic\sources\c90\common\doprnt.c: 467: {;C:\Program Files (x86)\M
                                 icrochip\xc8\v2.00\pic\sources\c90\common\doprnt.c: 507:  char c;;C:\Program Files (x86)
                                 \Microchip\xc8\v2.00\pic\sources\c90\common\doprnt.c: 516:  signed char prec;;C:\Program
                                  Files (x86)\Microchip\xc8\v2.00\pic\sources\c90\common\doprnt.c: 520:  unsigned char fl
                                 ag;
  5431                           	goto	l2444
  5432  0839  29AF               	
  5433                           l239:	
  5434  083A                     	line	550
  5435                           	
  5436                           l2376:	
  5437  083A                     ;C:\Program Files (x86)\Microchip\xc8\v2.00\pic\sources\c90\common\doprnt.c: 550:   if(c
                                  != '%')
  5438                           		movlw	37
  5439  083A  3025               	xorwf	((__doprnt@c)),w
  5440  083B  062B               	btfsc	status,2
  5441  083C  1903               	goto	u2291
  5442  083D  283F               	goto	u2290
  5443  083E  2840               u2291:
  5444  083F                     	goto	l2386
  5445  083F  286A               u2290:
  5446  0840                     	goto	l2378
  5447  0840  2841               	line	553
  5448                           ;C:\Program Files (x86)\Microchip\xc8\v2.00\pic\sources\c90\common\doprnt.c: 552:   {;C:
                                 \Program Files (x86)\Microchip\xc8\v2.00\pic\sources\c90\common\doprnt.c: 553:    do { i
                                 f(pb->func) (pb->func(c)); else ((*pb->ptr++ = c)); } while(0);
  5449                           	
  5450                           l241:	
  5451  0841                     	
  5452                           l2378:	
  5453  0841                     	incf	(__doprnt@pb),w
  5454  0841  0A2C               	movwf	fsr0
  5455  0842  0084               	bcf	status, 7	;select IRP bank0
  5456  0843  1383               	movf	(indf),w
  5457  0844  0800               	btfsc	status,2
  5458  0845  1903               	goto	u2301
  5459  0846  2848               	goto	u2300
  5460  0847  2849               u2301:
  5461  0848                     	goto	l2382
  5462  0848  2856               u2300:
  5463  0849                     	
  5464                           l2380:	
  5465  0849                     	movf	(__doprnt@c),w
  5466  0849  082B               	movwf	(??__doprnt+0)+0
  5467  084A  00A3               	movf	(??__doprnt+0)+0,w
  5468  084B  0823               	movwf	(putch@a)
  5469  084C  00F1               	incf	(__doprnt@pb),w
  5470  084D  0A2C               	movwf	fsr0
  5471  084E  0084               	movf	indf,w
  5472  084F  0800               	fcall	fptable
  5473  0850  120A  118A  2003  120A  158A  	goto	l2444
  5474  0855  29AF               	
  5475                           l242:	
  5476  0856                     	
  5477                           l2382:	
  5478  0856                     	bcf	status, 5	;RP0=0, select bank0
  5479  0856  1283               	bcf	status, 6	;RP1=0, select bank0
  5480  0857  1303               	movf	(__doprnt@c),w
  5481  0858  082B               	movwf	(??__doprnt+0)+0
  5482  0859  00A3               	movf	(__doprnt@pb),w
  5483  085A  082C               	movwf	fsr0
  5484  085B  0084               	bcf	status, 7	;select IRP bank0
  5485  085C  1383               	movf	indf,w
  5486  085D  0800               	movwf	fsr0
  5487  085E  0084               	movf	(??__doprnt+0)+0,w
  5488  085F  0823               	movwf	indf
  5489  0860  0080               	
  5490                           l2384:	
  5491  0861                     	movlw	low(01h)
  5492  0861  3001               	movwf	(??__doprnt+0)+0
  5493  0862  00A3               	movf	(__doprnt@pb),w
  5494  0863  082C               	movwf	fsr0
  5495  0864  0084               	movf	(??__doprnt+0)+0,w
  5496  0865  0823               	addwf	indf,f
  5497  0866  0780               	goto	l2444
  5498  0867  29AF               	
  5499                           l243:	
  5500  0868                     	goto	l2444
  5501  0868  29AF               	
  5502                           l244:	
  5503  0869                     	line	554
  5504                           ;C:\Program Files (x86)\Microchip\xc8\v2.00\pic\sources\c90\common\doprnt.c: 554:    con
                                 tinue;
  5505                           	goto	l2444
  5506  0869  29AF               	line	555
  5507                           ;C:\Program Files (x86)\Microchip\xc8\v2.00\pic\sources\c90\common\doprnt.c: 555:   }
  5508                           	
  5509                           l240:	
  5510  086A                     	line	560
  5511                           	
  5512                           l2386:	
  5513  086A                     ;C:\Program Files (x86)\Microchip\xc8\v2.00\pic\sources\c90\common\doprnt.c: 560:   flag
                                  = 0;
  5514                           	clrf	(__doprnt@flag)
  5515  086A  01A7               	line	654
  5516                           ;C:\Program Files (x86)\Microchip\xc8\v2.00\pic\sources\c90\common\doprnt.c: 654:   swit
                                 ch(c = *f++) {
  5517                           	goto	l2398
  5518  086B  289A               	line	656
  5519                           ;C:\Program Files (x86)\Microchip\xc8\v2.00\pic\sources\c90\common\doprnt.c: 656:   case
                                  0:
  5520                           	
  5521                           l246:	
  5522  086C                     	line	657
  5523                           ;C:\Program Files (x86)\Microchip\xc8\v2.00\pic\sources\c90\common\doprnt.c: 657:    got
                                 o alldone;
  5524                           	goto	l2446
  5525  086C  29CB               	line	716
  5526                           ;C:\Program Files (x86)\Microchip\xc8\v2.00\pic\sources\c90\common\doprnt.c: 716:   case
                                  'd':
  5527                           	
  5528                           l248:	
  5529  086D                     	goto	l2400
  5530  086D  28BD               	line	717
  5531                           ;C:\Program Files (x86)\Microchip\xc8\v2.00\pic\sources\c90\common\doprnt.c: 717:   case
                                  'i':
  5532                           	
  5533                           l249:	
  5534  086E                     	line	718
  5535                           ;C:\Program Files (x86)\Microchip\xc8\v2.00\pic\sources\c90\common\doprnt.c: 718:    bre
                                 ak;
  5536                           	goto	l2400
  5537  086E  28BD               	line	821
  5538                           ;C:\Program Files (x86)\Microchip\xc8\v2.00\pic\sources\c90\common\doprnt.c: 821:   defa
                                 ult:
  5539                           	
  5540                           l251:	
  5541  086F                     	goto	l2388
  5542  086F  2870               	line	828
  5543                           ;C:\Program Files (x86)\Microchip\xc8\v2.00\pic\sources\c90\common\doprnt.c: 828:    do 
                                 { if(pb->func) (pb->func(c)); else ((*pb->ptr++ = c)); } while(0);
  5544                           	
  5545                           l252:	
  5546  0870                     	
  5547                           l2388:	
  5548  0870                     	incf	(__doprnt@pb),w
  5549  0870  0A2C               	movwf	fsr0
  5550  0871  0084               	bcf	status, 7	;select IRP bank0
  5551  0872  1383               	movf	(indf),w
  5552  0873  0800               	btfsc	status,2
  5553  0874  1903               	goto	u2311
  5554  0875  2877               	goto	u2310
  5555  0876  2878               u2311:
  5556  0877                     	goto	l2392
  5557  0877  2885               u2310:
  5558  0878                     	
  5559                           l2390:	
  5560  0878                     	movf	(__doprnt@c),w
  5561  0878  082B               	movwf	(??__doprnt+0)+0
  5562  0879  00A3               	movf	(??__doprnt+0)+0,w
  5563  087A  0823               	movwf	(putch@a)
  5564  087B  00F1               	incf	(__doprnt@pb),w
  5565  087C  0A2C               	movwf	fsr0
  5566  087D  0084               	movf	indf,w
  5567  087E  0800               	fcall	fptable
  5568  087F  120A  118A  2003  120A  158A  	goto	l2444
  5569  0884  29AF               	
  5570                           l253:	
  5571  0885                     	
  5572                           l2392:	
  5573  0885                     	bcf	status, 5	;RP0=0, select bank0
  5574  0885  1283               	bcf	status, 6	;RP1=0, select bank0
  5575  0886  1303               	movf	(__doprnt@c),w
  5576  0887  082B               	movwf	(??__doprnt+0)+0
  5577  0888  00A3               	movf	(__doprnt@pb),w
  5578  0889  082C               	movwf	fsr0
  5579  088A  0084               	bcf	status, 7	;select IRP bank0
  5580  088B  1383               	movf	indf,w
  5581  088C  0800               	movwf	fsr0
  5582  088D  0084               	movf	(??__doprnt+0)+0,w
  5583  088E  0823               	movwf	indf
  5584  088F  0080               	
  5585                           l2394:	
  5586  0890                     	movlw	low(01h)
  5587  0890  3001               	movwf	(??__doprnt+0)+0
  5588  0891  00A3               	movf	(__doprnt@pb),w
  5589  0892  082C               	movwf	fsr0
  5590  0893  0084               	movf	(??__doprnt+0)+0,w
  5591  0894  0823               	addwf	indf,f
  5592  0895  0780               	goto	l2444
  5593  0896  29AF               	
  5594                           l254:	
  5595  0897                     	goto	l2444
  5596  0897  29AF               	
  5597                           l255:	
  5598  0898                     	line	829
  5599                           ;C:\Program Files (x86)\Microchip\xc8\v2.00\pic\sources\c90\common\doprnt.c: 829:    con
                                 tinue;
  5600                           	goto	l2444
  5601  0898  29AF               	line	841
  5602                           	
  5603                           l2396:	
  5604  0899                     ;C:\Program Files (x86)\Microchip\xc8\v2.00\pic\sources\c90\common\doprnt.c: 841:   }
  5605                           	goto	l2400
  5606  0899  28BD               	
  5607                           l245:	
  5608  089A                     	
  5609                           l2398:	
  5610  089A                     	movf	(__doprnt@f+1),w
  5611  089A  0821               	movwf	(??__doprnt+0)+0+1
  5612  089B  00A4               	movf	(__doprnt@f),w
  5613  089C  0820               	movwf	(??__doprnt+0)+0
  5614  089D  00A3               	incf	(__doprnt@f),f
  5615  089E  0AA0               	skipnz
  5616  089F  1903               	incf	(__doprnt@f+1),f
  5617  08A0  0AA1               	movf	1+(??__doprnt+0)+0,w
  5618  08A1  0824               	movwf	btemp+1
  5619  08A2  00FF               	movf	0+(??__doprnt+0)+0,w
  5620  08A3  0823               	movwf	fsr0
  5621  08A4  0084               	fcall	stringtab
  5622  08A5  160A  158A  2000  120A  158A  	movwf	(__doprnt@c)
  5623  08AA  00AB               	movwf	(??__doprnt+2)+0
  5624  08AB  00A5               	clrf	(??__doprnt+2)+0+1
  5625  08AC  01A6               	; Switch on 2 bytes has been partitioned into a top level switch of size 1, and 1 sub-s
                                 witches
  5626                           ; Switch size 1, requested type "space"
  5627                           ; Number of cases is 1, Range of values is 0 to 0
  5628                           ; switch strategies available:
  5629                           ; Name         Instructions Cycles
  5630                           ; simple_byte            4     3 (average)
  5631                           ; direct_byte           11     8 (fixed)
  5632                           ; jumptable            260     6 (fixed)
  5633                           ;	Chosen strategy is simple_byte
  5634                           
  5635                           	movf 1+(??__doprnt+2)+0,w
  5636  08AD  0826               	opt asmopt_push
  5637                           	opt asmopt_off
  5638                           	xorlw	0^0	; case 0
  5639  08AE  3A00               	skipnz
  5640  08AF  1903               	goto	l3770
  5641  08B0  28B2               	goto	l2388
  5642  08B1  2870               	opt asmopt_pop
  5643                           	
  5644                           l3770:	
  5645  08B2                     ; Switch size 1, requested type "space"
  5646                           ; Number of cases is 3, Range of values is 0 to 105
  5647                           ; switch strategies available:
  5648                           ; Name         Instructions Cycles
  5649                           ; simple_byte           10     6 (average)
  5650                           ; jumptable            260     6 (fixed)
  5651                           ;	Chosen strategy is simple_byte
  5652                           
  5653                           	movf 0+(??__doprnt+2)+0,w
  5654  08B2  0825               	opt asmopt_push
  5655                           	opt asmopt_off
  5656                           	xorlw	0^0	; case 0
  5657  08B3  3A00               	skipnz
  5658  08B4  1903               	goto	l2446
  5659  08B5  29CB               	xorlw	100^0	; case 100
  5660  08B6  3A64               	skipnz
  5661  08B7  1903               	goto	l2400
  5662  08B8  28BD               	xorlw	105^100	; case 105
  5663  08B9  3A0D               	skipnz
  5664  08BA  1903               	goto	l2400
  5665  08BB  28BD               	goto	l2388
  5666  08BC  2870               	opt asmopt_pop
  5667                           
  5668                           	
  5669                           l250:	
  5670  08BD                     	line	1278
  5671                           	
  5672                           l2400:	
  5673  08BD                     ;C:\Program Files (x86)\Microchip\xc8\v2.00\pic\sources\c90\common\doprnt.c: 1272:   {;C
                                 :\Program Files (x86)\Microchip\xc8\v2.00\pic\sources\c90\common\doprnt.c: 1278:     val
                                  = (int)(*(int *)__va_arg((*(int **)ap), (int)0));
  5674                           	movf	(__doprnt@ap),w
  5675  08BD  0822               	movwf	fsr0
  5676  08BE  0084               	bcf	status, 7	;select IRP bank0
  5677  08BF  1383               	movf	indf,w
  5678  08C0  0800               	movwf	((??__doprnt+0)+0)
  5679  08C1  00A3               	movlw	02h
  5680  08C2  3002               	addwf	indf,f
  5681  08C3  0780               	movf	((??__doprnt+0)+0),w
  5682  08C4  0823               	movwf	fsr0
  5683  08C5  0084               	movf	indf,w
  5684  08C6  0800               	movwf	(__doprnt@val)
  5685  08C7  00A9               	incf	fsr0,f
  5686  08C8  0A84               	movf	indf,w
  5687  08C9  0800               	movwf	(__doprnt@val+1)
  5688  08CA  00AA               	line	1280
  5689                           	
  5690                           l2402:	
  5691  08CB                     ;C:\Program Files (x86)\Microchip\xc8\v2.00\pic\sources\c90\common\doprnt.c: 1280:    if
                                 ((int)val < 0) {
  5692                           	btfss	(__doprnt@val+1),7
  5693  08CB  1FAA               	goto	u2321
  5694  08CC  28CE               	goto	u2320
  5695  08CD  28CF               u2321:
  5696  08CE                     	goto	l2408
  5697  08CE  28D9               u2320:
  5698  08CF                     	line	1281
  5699                           	
  5700                           l2404:	
  5701  08CF                     ;C:\Program Files (x86)\Microchip\xc8\v2.00\pic\sources\c90\common\doprnt.c: 1281:     f
                                 lag |= 0x03;
  5702                           	movlw	low(03h)
  5703  08CF  3003               	movwf	(??__doprnt+0)+0
  5704  08D0  00A3               	movf	(??__doprnt+0)+0,w
  5705  08D1  0823               	iorwf	(__doprnt@flag),f
  5706  08D2  04A7               	line	1282
  5707                           	
  5708                           l2406:	
  5709  08D3                     ;C:\Program Files (x86)\Microchip\xc8\v2.00\pic\sources\c90\common\doprnt.c: 1282:     v
                                 al = -val;
  5710                           	comf	(__doprnt@val),f
  5711  08D3  09A9               	comf	(__doprnt@val+1),f
  5712  08D4  09AA               	incf	(__doprnt@val),f
  5713  08D5  0AA9               	skipnz
  5714  08D6  1903               	incf	(__doprnt@val+1),f
  5715  08D7  0AAA               	goto	l2408
  5716  08D8  28D9               	line	1283
  5717                           ;C:\Program Files (x86)\Microchip\xc8\v2.00\pic\sources\c90\common\doprnt.c: 1283:    }

  5718                           	
  5719                           l256:	
  5720  08D9                     	line	1324
  5721                           	
  5722                           l2408:	
  5723  08D9                     ;C:\Program Files (x86)\Microchip\xc8\v2.00\pic\sources\c90\common\doprnt.c: 1285:   };C
                                 :\Program Files (x86)\Microchip\xc8\v2.00\pic\sources\c90\common\doprnt.c: 1324:    for(
                                 c = 1 ; c != sizeof dpowers/sizeof dpowers[0] ; c++)
  5724                           	clrf	(__doprnt@c)
  5725  08D9  01AB               	incf	(__doprnt@c),f
  5726  08DA  0AAB               	
  5727                           l2410:	
  5728  08DB                     		movlw	5
  5729  08DB  3005               	xorwf	((__doprnt@c)),w
  5730  08DC  062B               	btfss	status,2
  5731  08DD  1D03               	goto	u2331
  5732  08DE  28E0               	goto	u2330
  5733  08DF  28E1               u2331:
  5734  08E0                     	goto	l2414
  5735  08E0  28E3               u2330:
  5736  08E1                     	goto	l2420
  5737  08E1  290F               	
  5738                           l2412:	
  5739  08E2                     	goto	l2420
  5740  08E2  290F               	
  5741                           l257:	
  5742  08E3                     	line	1325
  5743                           	
  5744                           l2414:	
  5745  08E3                     ;C:\Program Files (x86)\Microchip\xc8\v2.00\pic\sources\c90\common\doprnt.c: 1325:     i
                                 f(val < dpowers[c])
  5746                           	movf	(__doprnt@c),w
  5747  08E3  082B               	movwf	(??__doprnt+0)+0
  5748  08E4  00A3               	addwf	(??__doprnt+0)+0,w
  5749  08E5  0723               	addlw	low(((_dpowers)|8000h))
  5750  08E6  3E12               	movwf	fsr0
  5751  08E7  0084               	movlw	high(((_dpowers)|8000h))
  5752  08E8  3098               	skipnc
  5753  08E9  1803               	addlw	1
  5754  08EA  3E01               	movwf	btemp+1
  5755  08EB  00FF               	fcall	stringtab
  5756  08EC  160A  158A  2000  120A  158A  	movwf	(??__doprnt+1)+0
  5757  08F1  00A4               	fcall	stringtab
  5758  08F2  160A  158A  2000  120A  158A  	movwf	(??__doprnt+1)+0+1
  5759  08F7  00A5               	movf	1+(??__doprnt+1)+0,w
  5760  08F8  0825               	subwf	(__doprnt@val+1),w
  5761  08F9  022A               	skipz
  5762  08FA  1D03               	goto	u2345
  5763  08FB  28FE               	movf	0+(??__doprnt+1)+0,w
  5764  08FC  0824               	subwf	(__doprnt@val),w
  5765  08FD  0229               u2345:
  5766  08FE                     	skipnc
  5767  08FE  1803               	goto	u2341
  5768  08FF  2901               	goto	u2340
  5769  0900  2902               u2341:
  5770  0901                     	goto	l2418
  5771  0901  2904               u2340:
  5772  0902                     	goto	l2420
  5773  0902  290F               	line	1326
  5774                           	
  5775                           l2416:	
  5776  0903                     ;C:\Program Files (x86)\Microchip\xc8\v2.00\pic\sources\c90\common\doprnt.c: 1326:      
                                 break;
  5777                           	goto	l2420
  5778  0903  290F               	
  5779                           l259:	
  5780  0904                     	
  5781                           l2418:	
  5782  0904                     	movlw	low(01h)
  5783  0904  3001               	movwf	(??__doprnt+0)+0
  5784  0905  00A3               	movf	(??__doprnt+0)+0,w
  5785  0906  0823               	addwf	(__doprnt@c),f
  5786  0907  07AB               		movlw	5
  5787  0908  3005               	xorwf	((__doprnt@c)),w
  5788  0909  062B               	btfss	status,2
  5789  090A  1D03               	goto	u2351
  5790  090B  290D               	goto	u2350
  5791  090C  290E               u2351:
  5792  090D                     	goto	l2414
  5793  090D  28E3               u2350:
  5794  090E                     	goto	l2420
  5795  090E  290F               	
  5796                           l258:	
  5797  090F                     	line	1457
  5798                           	
  5799                           l2420:	
  5800  090F                     ;C:\Program Files (x86)\Microchip\xc8\v2.00\pic\sources\c90\common\doprnt.c: 1441:   {;C
                                 :\Program Files (x86)\Microchip\xc8\v2.00\pic\sources\c90\common\doprnt.c: 1457:    if(f
                                 lag & 0x03)
  5801                           	movf	(__doprnt@flag),w
  5802  090F  0827               	andlw	03h
  5803  0910  3903               	btfsc	status,2
  5804  0911  1903               	goto	u2361
  5805  0912  2914               	goto	u2360
  5806  0913  2915               u2361:
  5807  0914                     	goto	l2430
  5808  0914  293F               u2360:
  5809  0915                     	goto	l2422
  5810  0915  2916               	line	1458
  5811                           ;C:\Program Files (x86)\Microchip\xc8\v2.00\pic\sources\c90\common\doprnt.c: 1458:     d
                                 o { if(pb->func) (pb->func('-')); else ((*pb->ptr++ = '-')); } while(0);
  5812                           	
  5813                           l261:	
  5814  0916                     	
  5815                           l2422:	
  5816  0916                     	incf	(__doprnt@pb),w
  5817  0916  0A2C               	movwf	fsr0
  5818  0917  0084               	bcf	status, 7	;select IRP bank0
  5819  0918  1383               	movf	(indf),w
  5820  0919  0800               	btfsc	status,2
  5821  091A  1903               	goto	u2371
  5822  091B  291D               	goto	u2370
  5823  091C  291E               u2371:
  5824  091D                     	goto	l2426
  5825  091D  292B               u2370:
  5826  091E                     	
  5827                           l2424:	
  5828  091E                     	movlw	low(02Dh)
  5829  091E  302D               	movwf	(??__doprnt+0)+0
  5830  091F  00A3               	movf	(??__doprnt+0)+0,w
  5831  0920  0823               	movwf	(putch@a)
  5832  0921  00F1               	incf	(__doprnt@pb),w
  5833  0922  0A2C               	movwf	fsr0
  5834  0923  0084               	movf	indf,w
  5835  0924  0800               	fcall	fptable
  5836  0925  120A  118A  2003  120A  158A  	goto	l2430
  5837  092A  293F               	
  5838                           l262:	
  5839  092B                     	
  5840                           l2426:	
  5841  092B                     	movlw	low(02Dh)
  5842  092B  302D               	bcf	status, 5	;RP0=0, select bank0
  5843  092C  1283               	bcf	status, 6	;RP1=0, select bank0
  5844  092D  1303               	movwf	(??__doprnt+0)+0
  5845  092E  00A3               	movf	(__doprnt@pb),w
  5846  092F  082C               	movwf	fsr0
  5847  0930  0084               	bcf	status, 7	;select IRP bank0
  5848  0931  1383               	movf	indf,w
  5849  0932  0800               	movwf	fsr0
  5850  0933  0084               	movf	(??__doprnt+0)+0,w
  5851  0934  0823               	movwf	indf
  5852  0935  0080               	
  5853                           l2428:	
  5854  0936                     	movlw	low(01h)
  5855  0936  3001               	movwf	(??__doprnt+0)+0
  5856  0937  00A3               	movf	(__doprnt@pb),w
  5857  0938  082C               	movwf	fsr0
  5858  0939  0084               	movf	(??__doprnt+0)+0,w
  5859  093A  0823               	addwf	indf,f
  5860  093B  0780               	goto	l2430
  5861  093C  293F               	
  5862                           l263:	
  5863  093D                     	goto	l2430
  5864  093D  293F               	
  5865                           l264:	
  5866  093E                     	goto	l2430
  5867  093E  293F               	
  5868                           l260:	
  5869  093F                     	line	1491
  5870                           	
  5871                           l2430:	
  5872  093F                     ;C:\Program Files (x86)\Microchip\xc8\v2.00\pic\sources\c90\common\doprnt.c: 1488:   };C
                                 :\Program Files (x86)\Microchip\xc8\v2.00\pic\sources\c90\common\doprnt.c: 1491:   prec 
                                 = c;
  5873                           	bcf	status, 5	;RP0=0, select bank0
  5874  093F  1283               	bcf	status, 6	;RP1=0, select bank0
  5875  0940  1303               	movf	(__doprnt@c),w
  5876  0941  082B               	movwf	(??__doprnt+0)+0
  5877  0942  00A3               	movf	(??__doprnt+0)+0,w
  5878  0943  0823               	movwf	(__doprnt@prec)
  5879  0944  00A8               	line	1493
  5880                           ;C:\Program Files (x86)\Microchip\xc8\v2.00\pic\sources\c90\common\doprnt.c: 1493:   whi
                                 le(prec--) {
  5881                           	goto	l2442
  5882  0945  29A2               	
  5883                           l266:	
  5884  0946                     	line	1508
  5885                           	
  5886                           l2432:	
  5887  0946                     ;C:\Program Files (x86)\Microchip\xc8\v2.00\pic\sources\c90\common\doprnt.c: 1497:    {;
                                 C:\Program Files (x86)\Microchip\xc8\v2.00\pic\sources\c90\common\doprnt.c: 1508:     c 
                                 = (val / dpowers[prec]) % 10 + '0';
  5888                           	movlw	0Ah
  5889  0946  300A               	movwf	(___lwmod@divisor)
  5890  0947  00F8               	movlw	0
  5891  0948  3000               	movwf	((___lwmod@divisor))+1
  5892  0949  00F9               	movf	(__doprnt@prec),w
  5893  094A  0828               	movwf	(??__doprnt+0)+0
  5894  094B  00A3               	addwf	(??__doprnt+0)+0,w
  5895  094C  0723               	addlw	low(((_dpowers)|8000h))
  5896  094D  3E12               	movwf	fsr0
  5897  094E  0084               	movlw	high(((_dpowers)|8000h))
  5898  094F  3098               	skipnc
  5899  0950  1803               	addlw	1
  5900  0951  3E01               	movwf	btemp+1
  5901  0952  00FF               	fcall	stringtab
  5902  0953  160A  158A  2000  120A  158A  	movwf	(___lwdiv@divisor)
  5903  0958  00F0               	fcall	stringtab
  5904  0959  160A  158A  2000  120A  158A  	movwf	(___lwdiv@divisor+1)
  5905  095E  00F1               	movf	(__doprnt@val+1),w
  5906  095F  082A               	movwf	(___lwdiv@dividend+1)
  5907  0960  00F3               	movf	(__doprnt@val),w
  5908  0961  0829               	movwf	(___lwdiv@dividend)
  5909  0962  00F2               	fcall	___lwdiv
  5910  0963  160A  118A  212C  120A  158A  	movf	(1+(?___lwdiv)),w
  5911  0968  0871               	movwf	(___lwmod@dividend+1)
  5912  0969  00FB               	movf	(0+(?___lwdiv)),w
  5913  096A  0870               	movwf	(___lwmod@dividend)
  5914  096B  00FA               	fcall	___lwmod
  5915  096C  160A  118A  20A7  120A  158A  	movf	(0+(?___lwmod)),w
  5916  0971  0878               	addlw	030h
  5917  0972  3E30               	bcf	status, 5	;RP0=0, select bank0
  5918  0973  1283               	bcf	status, 6	;RP1=0, select bank0
  5919  0974  1303               	movwf	(??__doprnt+1)+0
  5920  0975  00A4               	movf	(??__doprnt+1)+0,w
  5921  0976  0824               	movwf	(__doprnt@c)
  5922  0977  00AB               	goto	l2434
  5923  0978  2979               	line	1543
  5924                           ;C:\Program Files (x86)\Microchip\xc8\v2.00\pic\sources\c90\common\doprnt.c: 1542:    };
                                 C:\Program Files (x86)\Microchip\xc8\v2.00\pic\sources\c90\common\doprnt.c: 1543:    do 
                                 { if(pb->func) (pb->func(c)); else ((*pb->ptr++ = c)); } while(0);
  5925                           	
  5926                           l267:	
  5927  0979                     	
  5928                           l2434:	
  5929  0979                     	incf	(__doprnt@pb),w
  5930  0979  0A2C               	movwf	fsr0
  5931  097A  0084               	bcf	status, 7	;select IRP bank0
  5932  097B  1383               	movf	(indf),w
  5933  097C  0800               	btfsc	status,2
  5934  097D  1903               	goto	u2381
  5935  097E  2980               	goto	u2380
  5936  097F  2981               u2381:
  5937  0980                     	goto	l2438
  5938  0980  298E               u2380:
  5939  0981                     	
  5940                           l2436:	
  5941  0981                     	movf	(__doprnt@c),w
  5942  0981  082B               	movwf	(??__doprnt+0)+0
  5943  0982  00A3               	movf	(??__doprnt+0)+0,w
  5944  0983  0823               	movwf	(putch@a)
  5945  0984  00F1               	incf	(__doprnt@pb),w
  5946  0985  0A2C               	movwf	fsr0
  5947  0986  0084               	movf	indf,w
  5948  0987  0800               	fcall	fptable
  5949  0988  120A  118A  2003  120A  158A  	goto	l2442
  5950  098D  29A2               	
  5951                           l268:	
  5952  098E                     	
  5953                           l2438:	
  5954  098E                     	bcf	status, 5	;RP0=0, select bank0
  5955  098E  1283               	bcf	status, 6	;RP1=0, select bank0
  5956  098F  1303               	movf	(__doprnt@c),w
  5957  0990  082B               	movwf	(??__doprnt+0)+0
  5958  0991  00A3               	movf	(__doprnt@pb),w
  5959  0992  082C               	movwf	fsr0
  5960  0993  0084               	bcf	status, 7	;select IRP bank0
  5961  0994  1383               	movf	indf,w
  5962  0995  0800               	movwf	fsr0
  5963  0996  0084               	movf	(??__doprnt+0)+0,w
  5964  0997  0823               	movwf	indf
  5965  0998  0080               	
  5966                           l2440:	
  5967  0999                     	movlw	low(01h)
  5968  0999  3001               	movwf	(??__doprnt+0)+0
  5969  099A  00A3               	movf	(__doprnt@pb),w
  5970  099B  082C               	movwf	fsr0
  5971  099C  0084               	movf	(??__doprnt+0)+0,w
  5972  099D  0823               	addwf	indf,f
  5973  099E  0780               	goto	l2442
  5974  099F  29A2               	
  5975                           l269:	
  5976  09A0                     	goto	l2442
  5977  09A0  29A2               	
  5978                           l270:	
  5979  09A1                     	goto	l2442
  5980  09A1  29A2               	line	1544
  5981                           ;C:\Program Files (x86)\Microchip\xc8\v2.00\pic\sources\c90\common\doprnt.c: 1544:   }
  5982                           	
  5983                           l265:	
  5984  09A2                     	line	1493
  5985                           	
  5986                           l2442:	
  5987  09A2                     ;C:\Program Files (x86)\Microchip\xc8\v2.00\pic\sources\c90\common\doprnt.c: 1493:   whi
                                 le(prec--) {
  5988                           	movlw	low(-1)
  5989  09A2  30FF               	bcf	status, 5	;RP0=0, select bank0
  5990  09A3  1283               	bcf	status, 6	;RP1=0, select bank0
  5991  09A4  1303               	movwf	(??__doprnt+0)+0
  5992  09A5  00A3               	movf	(??__doprnt+0)+0,w
  5993  09A6  0823               	addwf	(__doprnt@prec),f
  5994  09A7  07A8               		incf	(((__doprnt@prec))),w
  5995  09A8  0A28               	btfss	status,2
  5996  09A9  1D03               	goto	u2391
  5997  09AA  29AC               	goto	u2390
  5998  09AB  29AD               u2391:
  5999  09AC                     	goto	l2432
  6000  09AC  2946               u2390:
  6001  09AD                     	goto	l2444
  6002  09AD  29AF               	
  6003                           l271:	
  6004  09AE                     	goto	l2444
  6005  09AE  29AF               	line	1552
  6006                           ;C:\Program Files (x86)\Microchip\xc8\v2.00\pic\sources\c90\common\doprnt.c: 1552:  }
  6007                           	
  6008                           l238:	
  6009  09AF                     	line	548
  6010                           	
  6011                           l2444:	
  6012  09AF                     ;C:\Program Files (x86)\Microchip\xc8\v2.00\pic\sources\c90\common\doprnt.c: 548:  while
                                 ((c = *f++)) {
  6013                           	bcf	status, 5	;RP0=0, select bank0
  6014  09AF  1283               	bcf	status, 6	;RP1=0, select bank0
  6015  09B0  1303               	movf	(__doprnt@f+1),w
  6016  09B1  0821               	movwf	(??__doprnt+0)+0+1
  6017  09B2  00A4               	movf	(__doprnt@f),w
  6018  09B3  0820               	movwf	(??__doprnt+0)+0
  6019  09B4  00A3               	incf	(__doprnt@f),f
  6020  09B5  0AA0               	skipnz
  6021  09B6  1903               	incf	(__doprnt@f+1),f
  6022  09B7  0AA1               	movf	1+(??__doprnt+0)+0,w
  6023  09B8  0824               	movwf	btemp+1
  6024  09B9  00FF               	movf	0+(??__doprnt+0)+0,w
  6025  09BA  0823               	movwf	fsr0
  6026  09BB  0084               	fcall	stringtab
  6027  09BC  160A  158A  2000  120A  158A  	movwf	(??__doprnt+2)+0
  6028  09C1  00A5               	movf	(??__doprnt+2)+0,w
  6029  09C2  0825               	movwf	(__doprnt@c)
  6030  09C3  00AB               	movf	(((__doprnt@c))),w
  6031  09C4  082B               	btfss	status,2
  6032  09C5  1D03               	goto	u2401
  6033  09C6  29C8               	goto	u2400
  6034  09C7  29C9               u2401:
  6035  09C8                     	goto	l2376
  6036  09C8  283A               u2400:
  6037  09C9                     	goto	l2446
  6038  09C9  29CB               	
  6039                           l272:	
  6040  09CA                     	goto	l2446
  6041  09CA  29CB               	line	1554
  6042                           ;C:\Program Files (x86)\Microchip\xc8\v2.00\pic\sources\c90\common\doprnt.c: 1554: alldo
                                 ne:
  6043                           	
  6044                           l247:	
  6045  09CB                     	line	1559
  6046                           	
  6047                           l2446:	
  6048  09CB                     ;C:\Program Files (x86)\Microchip\xc8\v2.00\pic\sources\c90\common\doprnt.c: 1559:  retu
                                 rn 0;
  6049                           	clrf	(?__doprnt)
  6050  09CB  01A0               	clrf	(?__doprnt+1)
  6051  09CC  01A1               	goto	l273
  6052  09CD  29CE               	
  6053                           l2448:	
  6054  09CE                     	line	1560
  6055                           	
  6056                           l273:	
  6057  09CE                     	return
  6058  09CE  0008               	opt stack 0
  6059                           GLOBAL	__end_of__doprnt
  6060                           	__end_of__doprnt:
  6061  09CF                     	signat	__doprnt,12410
  6062                           	global	_putch
  6063                           
  6064 ;; *************** function _putch *****************
  6065 ;; Defined at:
  6066 ;;		line 71 in file "ROKZ1.c"
  6067 ;; Parameters:    Size  Location     Type
  6068 ;;  a               1    1[COMMON] unsigned char 
  6069 ;; Auto vars:     Size  Location     Type
  6070 ;;		None
  6071 ;; Return value:  Size  Location     Type
  6072 ;;                  1    wreg      void 
  6073 ;; Registers used:
  6074 ;;		wreg, status,2, status,0, pclath, cstack
  6075 ;; Tracked objects:
  6076 ;;		On entry : 0/0
  6077 ;;		On exit  : 0/0
  6078 ;;		Unchanged: 0/0
  6079 ;; Data sizes:     COMMON   BANK0   BANK1   BANK3   BANK2
  6080 ;;      Params:         1       0       0       0       0
  6081 ;;      Locals:         0       0       0       0       0
  6082 ;;      Temps:          0       0       0       0       0
  6083 ;;      Totals:         1       0       0       0       0
  6084 ;;Total ram usage:        1 bytes
  6085 ;; Hardware stack levels used:    1
  6086 ;; Hardware stack levels required when called:    1
  6087 ;; This function calls:
  6088 ;;		_UART_Send_Char
  6089 ;; This function is called by:
  6090 ;;		_printf
  6091 ;;		__doprnt
  6092 ;; This function uses a non-reentrant model
  6093 ;;
  6094                           psect	text4,local,class=CODE,delta=2,merge=1,group=0
  6095                           	file	"ROKZ1.c"
  6096                           	line	71
  6097                           global __ptext4
  6098                           __ptext4:	;psect for function _putch
  6099  000C                     psect	text4
  6100                           	file	"ROKZ1.c"
  6101                           	line	71
  6102                           	global	__size_of_putch
  6103                           	__size_of_putch	equ	__end_of_putch-_putch
  6104  0007                     	
  6105                           _putch:	
  6106  000C                     ;incstack = 0
  6107                           	opt	stack 4
  6108                           ; Regs used in _putch: [wreg+status,2+status,0+pclath+cstack]
  6109                           	line	72
  6110                           	
  6111                           l2284:	
  6112  000C                     ;ROKZ1.c: 72:     UART_Send_Char(a);
  6113                           	movf	(putch@a),w
  6114  000C  0871               	fcall	_UART_Send_Char
  6115  000D  120A  158A  2000  120A  118A  	line	73
  6116                           	
  6117                           l89:	
  6118  0012                     	return
  6119  0012  0008               	opt stack 0
  6120                           GLOBAL	__end_of_putch
  6121                           	__end_of_putch:
  6122  0013                     	signat	_putch,4217
  6123                           	global	_UART_Send_Char
  6124                           
  6125 ;; *************** function _UART_Send_Char *****************
  6126 ;; Defined at:
  6127 ;;		line 57 in file "ROKZ1.c"
  6128 ;; Parameters:    Size  Location     Type
  6129 ;;  a               1    wreg     unsigned char 
  6130 ;; Auto vars:     Size  Location     Type
  6131 ;;  a               1    0[COMMON] unsigned char 
  6132 ;; Return value:  Size  Location     Type
  6133 ;;                  1    wreg      void 
  6134 ;; Registers used:
  6135 ;;		wreg
  6136 ;; Tracked objects:
  6137 ;;		On entry : 0/0
  6138 ;;		On exit  : 0/0
  6139 ;;		Unchanged: 0/0
  6140 ;; Data sizes:     COMMON   BANK0   BANK1   BANK3   BANK2
  6141 ;;      Params:         0       0       0       0       0
  6142 ;;      Locals:         1       0       0       0       0
  6143 ;;      Temps:          0       0       0       0       0
  6144 ;;      Totals:         1       0       0       0       0
  6145 ;;Total ram usage:        1 bytes
  6146 ;; Hardware stack levels used:    1
  6147 ;; This function calls:
  6148 ;;		Nothing
  6149 ;; This function is called by:
  6150 ;;		_putch
  6151 ;;		_main
  6152 ;; This function uses a non-reentrant model
  6153 ;;
  6154                           psect	text5,local,class=CODE,delta=2,merge=1,group=0
  6155                           	line	57
  6156                           global __ptext5
  6157                           __ptext5:	;psect for function _UART_Send_Char
  6158  0800                     psect	text5
  6159                           	file	"ROKZ1.c"
  6160                           	line	57
  6161                           	global	__size_of_UART_Send_Char
  6162                           	__size_of_UART_Send_Char	equ	__end_of_UART_Send_Char-_UART_Send_Char
  6163  000C                     	
  6164                           _UART_Send_Char:	
  6165  0800                     ;incstack = 0
  6166                           	opt	stack 4
  6167                           ; Regs used in _UART_Send_Char: [wreg]
  6168                           ;UART_Send_Char@a stored from wreg
  6169                           	movwf	(UART_Send_Char@a)
  6170  0800  00F0               	line	58
  6171                           	
  6172                           l2280:	
  6173  0801                     ;ROKZ1.c: 58:     while(!TXIF);
  6174                           	goto	l76
  6175  0801  2802               	
  6176                           l77:	
  6177  0802                     	
  6178                           l76:	
  6179  0802                     	bcf	status, 5	;RP0=0, select bank0
  6180  0802  1283               	bcf	status, 6	;RP1=0, select bank0
  6181  0803  1303               	btfss	(100/8),(100)&7	;volatile
  6182  0804  1E0C               	goto	u2101
  6183  0805  2807               	goto	u2100
  6184  0806  2808               u2101:
  6185  0807                     	goto	l76
  6186  0807  2802               u2100:
  6187  0808                     	goto	l2282
  6188  0808  2809               	
  6189                           l78:	
  6190  0809                     	line	59
  6191                           	
  6192                           l2282:	
  6193  0809                     ;ROKZ1.c: 59:     TXREG=a;
  6194                           	movf	(UART_Send_Char@a),w
  6195  0809  0870               	movwf	(25)	;volatile
  6196  080A  0099               	line	60
  6197                           	
  6198                           l79:	
  6199  080B                     	return
  6200  080B  0008               	opt stack 0
  6201                           GLOBAL	__end_of_UART_Send_Char
  6202                           	__end_of_UART_Send_Char:
  6203  080C                     	signat	_UART_Send_Char,4217
  6204                           	global	___lwmod
  6205                           
  6206 ;; *************** function ___lwmod *****************
  6207 ;; Defined at:
  6208 ;;		line 5 in file "C:\Program Files (x86)\Microchip\xc8\v2.00\pic\sources\c90\common\lwmod.c"
  6209 ;; Parameters:    Size  Location     Type
  6210 ;;  divisor         2    8[COMMON] unsigned int 
  6211 ;;  dividend        2   10[COMMON] unsigned int 
  6212 ;; Auto vars:     Size  Location     Type
  6213 ;;  counter         1   13[COMMON] unsigned char 
  6214 ;; Return value:  Size  Location     Type
  6215 ;;                  2    8[COMMON] unsigned int 
  6216 ;; Registers used:
  6217 ;;		wreg, status,2, status,0
  6218 ;; Tracked objects:
  6219 ;;		On entry : 0/0
  6220 ;;		On exit  : 0/0
  6221 ;;		Unchanged: 0/0
  6222 ;; Data sizes:     COMMON   BANK0   BANK1   BANK3   BANK2
  6223 ;;      Params:         4       0       0       0       0
  6224 ;;      Locals:         1       0       0       0       0
  6225 ;;      Temps:          1       0       0       0       0
  6226 ;;      Totals:         6       0       0       0       0
  6227 ;;Total ram usage:        6 bytes
  6228 ;; Hardware stack levels used:    1
  6229 ;; This function calls:
  6230 ;;		Nothing
  6231 ;; This function is called by:
  6232 ;;		__doprnt
  6233 ;; This function uses a non-reentrant model
  6234 ;;
  6235                           psect	text6,local,class=CODE,delta=2,merge=1,group=1
  6236                           	file	"C:\Program Files (x86)\Microchip\xc8\v2.00\pic\sources\c90\common\lwmod.c"
  6237                           	line	5
  6238                           global __ptext6
  6239                           __ptext6:	;psect for function ___lwmod
  6240  10A7                     psect	text6
  6241                           	file	"C:\Program Files (x86)\Microchip\xc8\v2.00\pic\sources\c90\common\lwmod.c"
  6242                           	line	5
  6243                           	global	__size_of___lwmod
  6244                           	__size_of___lwmod	equ	__end_of___lwmod-___lwmod
  6245  0041                     	
  6246                           ___lwmod:	
  6247  10A7                     ;incstack = 0
  6248                           	opt	stack 5
  6249                           ; Regs used in ___lwmod: [wreg+status,2+status,0]
  6250                           	line	12
  6251                           	
  6252                           l2322:	
  6253  10A7                     	movf	((___lwmod@divisor)),w
  6254  10A7  0878               iorwf	((___lwmod@divisor+1)),w
  6255  10A8  0479               	btfsc	status,2
  6256  10A9  1903               	goto	u2221
  6257  10AA  28AC               	goto	u2220
  6258  10AB  28AD               u2221:
  6259  10AC                     	goto	l2340
  6260  10AC  28E2               u2220:
  6261  10AD                     	line	13
  6262                           	
  6263                           l2324:	
  6264  10AD                     	clrf	(___lwmod@counter)
  6265  10AD  01FD               	incf	(___lwmod@counter),f
  6266  10AE  0AFD               	line	14
  6267                           	goto	l2330
  6268  10AF  28BC               	
  6269                           l554:	
  6270  10B0                     	line	15
  6271                           	
  6272                           l2326:	
  6273  10B0                     	movlw	01h
  6274  10B0  3001               	
  6275                           u2235:
  6276  10B1                     	clrc
  6277  10B1  1003               	rlf	(___lwmod@divisor),f
  6278  10B2  0DF8               	rlf	(___lwmod@divisor+1),f
  6279  10B3  0DF9               	addlw	-1
  6280  10B4  3EFF               	skipz
  6281  10B5  1D03               	goto	u2235
  6282  10B6  28B1               	line	16
  6283                           	
  6284                           l2328:	
  6285  10B7                     	movlw	low(01h)
  6286  10B7  3001               	movwf	(??___lwmod+0)+0
  6287  10B8  00FC               	movf	(??___lwmod+0)+0,w
  6288  10B9  087C               	addwf	(___lwmod@counter),f
  6289  10BA  07FD               	goto	l2330
  6290  10BB  28BC               	line	17
  6291                           	
  6292                           l553:	
  6293  10BC                     	line	14
  6294                           	
  6295                           l2330:	
  6296  10BC                     	btfss	(___lwmod@divisor+1),(15)&7
  6297  10BC  1FF9               	goto	u2241
  6298  10BD  28BF               	goto	u2240
  6299  10BE  28C0               u2241:
  6300  10BF                     	goto	l2326
  6301  10BF  28B0               u2240:
  6302  10C0                     	goto	l2332
  6303  10C0  28C2               	
  6304                           l555:	
  6305  10C1                     	goto	l2332
  6306  10C1  28C2               	line	18
  6307                           	
  6308                           l556:	
  6309  10C2                     	line	19
  6310                           	
  6311                           l2332:	
  6312  10C2                     	movf	(___lwmod@divisor+1),w
  6313  10C2  0879               	subwf	(___lwmod@dividend+1),w
  6314  10C3  027B               	skipz
  6315  10C4  1D03               	goto	u2255
  6316  10C5  28C8               	movf	(___lwmod@divisor),w
  6317  10C6  0878               	subwf	(___lwmod@dividend),w
  6318  10C7  027A               u2255:
  6319  10C8                     	skipc
  6320  10C8  1C03               	goto	u2251
  6321  10C9  28CB               	goto	u2250
  6322  10CA  28CC               u2251:
  6323  10CB                     	goto	l2336
  6324  10CB  28D3               u2250:
  6325  10CC                     	line	20
  6326                           	
  6327                           l2334:	
  6328  10CC                     	movf	(___lwmod@divisor),w
  6329  10CC  0878               	subwf	(___lwmod@dividend),f
  6330  10CD  02FA               	movf	(___lwmod@divisor+1),w
  6331  10CE  0879               	skipc
  6332  10CF  1C03               	decf	(___lwmod@dividend+1),f
  6333  10D0  03FB               	subwf	(___lwmod@dividend+1),f
  6334  10D1  02FB               	goto	l2336
  6335  10D2  28D3               	
  6336                           l557:	
  6337  10D3                     	line	21
  6338                           	
  6339                           l2336:	
  6340  10D3                     	movlw	01h
  6341  10D3  3001               	
  6342                           u2265:
  6343  10D4                     	clrc
  6344  10D4  1003               	rrf	(___lwmod@divisor+1),f
  6345  10D5  0CF9               	rrf	(___lwmod@divisor),f
  6346  10D6  0CF8               	addlw	-1
  6347  10D7  3EFF               	skipz
  6348  10D8  1D03               	goto	u2265
  6349  10D9  28D4               	line	22
  6350                           	
  6351                           l2338:	
  6352  10DA                     	movlw	01h
  6353  10DA  3001               	subwf	(___lwmod@counter),f
  6354  10DB  02FD               	btfss	status,2
  6355  10DC  1D03               	goto	u2271
  6356  10DD  28DF               	goto	u2270
  6357  10DE  28E0               u2271:
  6358  10DF                     	goto	l2332
  6359  10DF  28C2               u2270:
  6360  10E0                     	goto	l2340
  6361  10E0  28E2               	
  6362                           l558:	
  6363  10E1                     	goto	l2340
  6364  10E1  28E2               	line	23
  6365                           	
  6366                           l552:	
  6367  10E2                     	line	24
  6368                           	
  6369                           l2340:	
  6370  10E2                     	movf	(___lwmod@dividend+1),w
  6371  10E2  087B               	movwf	(?___lwmod+1)
  6372  10E3  00F9               	movf	(___lwmod@dividend),w
  6373  10E4  087A               	movwf	(?___lwmod)
  6374  10E5  00F8               	goto	l559
  6375  10E6  28E7               	
  6376                           l2342:	
  6377  10E7                     	line	25
  6378                           	
  6379                           l559:	
  6380  10E7                     	return
  6381  10E7  0008               	opt stack 0
  6382                           GLOBAL	__end_of___lwmod
  6383                           	__end_of___lwmod:
  6384  10E8                     	signat	___lwmod,8314
  6385                           	global	___lwdiv
  6386                           
  6387 ;; *************** function ___lwdiv *****************
  6388 ;; Defined at:
  6389 ;;		line 5 in file "C:\Program Files (x86)\Microchip\xc8\v2.00\pic\sources\c90\common\lwdiv.c"
  6390 ;; Parameters:    Size  Location     Type
  6391 ;;  divisor         2    0[COMMON] unsigned int 
  6392 ;;  dividend        2    2[COMMON] unsigned int 
  6393 ;; Auto vars:     Size  Location     Type
  6394 ;;  quotient        2    5[COMMON] unsigned int 
  6395 ;;  counter         1    7[COMMON] unsigned char 
  6396 ;; Return value:  Size  Location     Type
  6397 ;;                  2    0[COMMON] unsigned int 
  6398 ;; Registers used:
  6399 ;;		wreg, status,2, status,0
  6400 ;; Tracked objects:
  6401 ;;		On entry : 0/0
  6402 ;;		On exit  : 0/0
  6403 ;;		Unchanged: 0/0
  6404 ;; Data sizes:     COMMON   BANK0   BANK1   BANK3   BANK2
  6405 ;;      Params:         4       0       0       0       0
  6406 ;;      Locals:         3       0       0       0       0
  6407 ;;      Temps:          1       0       0       0       0
  6408 ;;      Totals:         8       0       0       0       0
  6409 ;;Total ram usage:        8 bytes
  6410 ;; Hardware stack levels used:    1
  6411 ;; This function calls:
  6412 ;;		Nothing
  6413 ;; This function is called by:
  6414 ;;		__doprnt
  6415 ;; This function uses a non-reentrant model
  6416 ;;
  6417                           psect	text7,local,class=CODE,delta=2,merge=1,group=1
  6418                           	file	"C:\Program Files (x86)\Microchip\xc8\v2.00\pic\sources\c90\common\lwdiv.c"
  6419                           	line	5
  6420                           global __ptext7
  6421                           __ptext7:	;psect for function ___lwdiv
  6422  112C                     psect	text7
  6423                           	file	"C:\Program Files (x86)\Microchip\xc8\v2.00\pic\sources\c90\common\lwdiv.c"
  6424                           	line	5
  6425                           	global	__size_of___lwdiv
  6426                           	__size_of___lwdiv	equ	__end_of___lwdiv-___lwdiv
  6427  004B                     	
  6428                           ___lwdiv:	
  6429  112C                     ;incstack = 0
  6430                           	opt	stack 5
  6431                           ; Regs used in ___lwdiv: [wreg+status,2+status,0]
  6432                           	line	13
  6433                           	
  6434                           l2296:	
  6435  112C                     	clrf	(___lwdiv@quotient)
  6436  112C  01F5               	clrf	(___lwdiv@quotient+1)
  6437  112D  01F6               	line	14
  6438                           	
  6439                           l2298:	
  6440  112E                     	movf	((___lwdiv@divisor)),w
  6441  112E  0870               iorwf	((___lwdiv@divisor+1)),w
  6442  112F  0471               	btfsc	status,2
  6443  1130  1903               	goto	u2151
  6444  1131  2933               	goto	u2150
  6445  1132  2934               u2151:
  6446  1133                     	goto	l2318
  6447  1133  2971               u2150:
  6448  1134                     	line	15
  6449                           	
  6450                           l2300:	
  6451  1134                     	clrf	(___lwdiv@counter)
  6452  1134  01F7               	incf	(___lwdiv@counter),f
  6453  1135  0AF7               	line	16
  6454                           	goto	l2306
  6455  1136  2943               	
  6456                           l544:	
  6457  1137                     	line	17
  6458                           	
  6459                           l2302:	
  6460  1137                     	movlw	01h
  6461  1137  3001               	
  6462                           u2165:
  6463  1138                     	clrc
  6464  1138  1003               	rlf	(___lwdiv@divisor),f
  6465  1139  0DF0               	rlf	(___lwdiv@divisor+1),f
  6466  113A  0DF1               	addlw	-1
  6467  113B  3EFF               	skipz
  6468  113C  1D03               	goto	u2165
  6469  113D  2938               	line	18
  6470                           	
  6471                           l2304:	
  6472  113E                     	movlw	low(01h)
  6473  113E  3001               	movwf	(??___lwdiv+0)+0
  6474  113F  00F4               	movf	(??___lwdiv+0)+0,w
  6475  1140  0874               	addwf	(___lwdiv@counter),f
  6476  1141  07F7               	goto	l2306
  6477  1142  2943               	line	19
  6478                           	
  6479                           l543:	
  6480  1143                     	line	16
  6481                           	
  6482                           l2306:	
  6483  1143                     	btfss	(___lwdiv@divisor+1),(15)&7
  6484  1143  1FF1               	goto	u2171
  6485  1144  2946               	goto	u2170
  6486  1145  2947               u2171:
  6487  1146                     	goto	l2302
  6488  1146  2937               u2170:
  6489  1147                     	goto	l2308
  6490  1147  2949               	
  6491                           l545:	
  6492  1148                     	goto	l2308
  6493  1148  2949               	line	20
  6494                           	
  6495                           l546:	
  6496  1149                     	line	21
  6497                           	
  6498                           l2308:	
  6499  1149                     	movlw	01h
  6500  1149  3001               	
  6501                           u2185:
  6502  114A                     	clrc
  6503  114A  1003               	rlf	(___lwdiv@quotient),f
  6504  114B  0DF5               	rlf	(___lwdiv@quotient+1),f
  6505  114C  0DF6               	addlw	-1
  6506  114D  3EFF               	skipz
  6507  114E  1D03               	goto	u2185
  6508  114F  294A               	line	22
  6509                           	movf	(___lwdiv@divisor+1),w
  6510  1150  0871               	subwf	(___lwdiv@dividend+1),w
  6511  1151  0273               	skipz
  6512  1152  1D03               	goto	u2195
  6513  1153  2956               	movf	(___lwdiv@divisor),w
  6514  1154  0870               	subwf	(___lwdiv@dividend),w
  6515  1155  0272               u2195:
  6516  1156                     	skipc
  6517  1156  1C03               	goto	u2191
  6518  1157  2959               	goto	u2190
  6519  1158  295A               u2191:
  6520  1159                     	goto	l2314
  6521  1159  2962               u2190:
  6522  115A                     	line	23
  6523                           	
  6524                           l2310:	
  6525  115A                     	movf	(___lwdiv@divisor),w
  6526  115A  0870               	subwf	(___lwdiv@dividend),f
  6527  115B  02F2               	movf	(___lwdiv@divisor+1),w
  6528  115C  0871               	skipc
  6529  115D  1C03               	decf	(___lwdiv@dividend+1),f
  6530  115E  03F3               	subwf	(___lwdiv@dividend+1),f
  6531  115F  02F3               	line	24
  6532                           	
  6533                           l2312:	
  6534  1160                     	bsf	(___lwdiv@quotient)+(0/8),(0)&7
  6535  1160  1475               	goto	l2314
  6536  1161  2962               	line	25
  6537                           	
  6538                           l547:	
  6539  1162                     	line	26
  6540                           	
  6541                           l2314:	
  6542  1162                     	movlw	01h
  6543  1162  3001               	
  6544                           u2205:
  6545  1163                     	clrc
  6546  1163  1003               	rrf	(___lwdiv@divisor+1),f
  6547  1164  0CF1               	rrf	(___lwdiv@divisor),f
  6548  1165  0CF0               	addlw	-1
  6549  1166  3EFF               	skipz
  6550  1167  1D03               	goto	u2205
  6551  1168  2963               	line	27
  6552                           	
  6553                           l2316:	
  6554  1169                     	movlw	01h
  6555  1169  3001               	subwf	(___lwdiv@counter),f
  6556  116A  02F7               	btfss	status,2
  6557  116B  1D03               	goto	u2211
  6558  116C  296E               	goto	u2210
  6559  116D  296F               u2211:
  6560  116E                     	goto	l2308
  6561  116E  2949               u2210:
  6562  116F                     	goto	l2318
  6563  116F  2971               	
  6564                           l548:	
  6565  1170                     	goto	l2318
  6566  1170  2971               	line	28
  6567                           	
  6568                           l542:	
  6569  1171                     	line	29
  6570                           	
  6571                           l2318:	
  6572  1171                     	movf	(___lwdiv@quotient+1),w
  6573  1171  0876               	movwf	(?___lwdiv+1)
  6574  1172  00F1               	movf	(___lwdiv@quotient),w
  6575  1173  0875               	movwf	(?___lwdiv)
  6576  1174  00F0               	goto	l549
  6577  1175  2976               	
  6578                           l2320:	
  6579  1176                     	line	30
  6580                           	
  6581                           l549:	
  6582  1176                     	return
  6583  1176  0008               	opt stack 0
  6584                           GLOBAL	__end_of___lwdiv
  6585                           	__end_of___lwdiv:
  6586  1177                     	signat	___lwdiv,8314
  6587                           	global	___xxtofl
  6588                           
  6589 ;; *************** function ___xxtofl *****************
  6590 ;; Defined at:
  6591 ;;		line 10 in file "C:\Program Files (x86)\Microchip\xc8\v2.00\pic\sources\c90\common\xxtofl.c"
  6592 ;; Parameters:    Size  Location     Type
  6593 ;;  sign            1    wreg     unsigned char 
  6594 ;;  val             4    0[COMMON] long 
  6595 ;; Auto vars:     Size  Location     Type
  6596 ;;  sign            1    8[COMMON] unsigned char 
  6597 ;;  arg             4   10[COMMON] unsigned long 
  6598 ;;  exp             1    9[COMMON] unsigned char 
  6599 ;; Return value:  Size  Location     Type
  6600 ;;                  4    0[COMMON] unsigned char 
  6601 ;; Registers used:
  6602 ;;		wreg, status,2, status,0
  6603 ;; Tracked objects:
  6604 ;;		On entry : 0/0
  6605 ;;		On exit  : 0/0
  6606 ;;		Unchanged: 0/0
  6607 ;; Data sizes:     COMMON   BANK0   BANK1   BANK3   BANK2
  6608 ;;      Params:         4       0       0       0       0
  6609 ;;      Locals:         6       0       0       0       0
  6610 ;;      Temps:          4       0       0       0       0
  6611 ;;      Totals:        14       0       0       0       0
  6612 ;;Total ram usage:       14 bytes
  6613 ;; Hardware stack levels used:    1
  6614 ;; This function calls:
  6615 ;;		Nothing
  6616 ;; This function is called by:
  6617 ;;		_main
  6618 ;; This function uses a non-reentrant model
  6619 ;;
  6620                           psect	text8,local,class=CODE,delta=2,merge=1,group=1
  6621                           	file	"C:\Program Files (x86)\Microchip\xc8\v2.00\pic\sources\c90\common\xxtofl.c"
  6622                           	line	10
  6623                           global __ptext8
  6624                           __ptext8:	;psect for function ___xxtofl
  6625  0067                     psect	text8
  6626                           	file	"C:\Program Files (x86)\Microchip\xc8\v2.00\pic\sources\c90\common\xxtofl.c"
  6627                           	line	10
  6628                           	global	__size_of___xxtofl
  6629                           	__size_of___xxtofl	equ	__end_of___xxtofl-___xxtofl
  6630  00C2                     	
  6631                           ___xxtofl:	
  6632  0067                     ;incstack = 0
  6633                           	opt	stack 7
  6634                           ; Regs used in ___xxtofl: [wreg+status,2+status,0]
  6635                           ;___xxtofl@sign stored from wreg
  6636                           	movwf	(___xxtofl@sign)
  6637  0067  00F8               	line	15
  6638                           	
  6639                           l3166:	
  6640  0068                     	movf	((___xxtofl@sign)),w
  6641  0068  0878               	btfsc	status,2
  6642  0069  1903               	goto	u3991
  6643  006A  286C               	goto	u3990
  6644  006B  286D               u3991:
  6645  006C                     	goto	l3172
  6646  006C  2881               u3990:
  6647  006D                     	
  6648                           l3168:	
  6649  006D                     	btfss	(___xxtofl@val+3),7
  6650  006D  1FF3               	goto	u4001
  6651  006E  2870               	goto	u4000
  6652  006F  2871               u4001:
  6653  0070                     	goto	l3172
  6654  0070  2881               u4000:
  6655  0071                     	line	16
  6656                           	
  6657                           l3170:	
  6658  0071                     	comf	(___xxtofl@val)+0,w
  6659  0071  0970               	movwf	(___xxtofl@arg)
  6660  0072  00FA               	comf	(___xxtofl@val)+1,w
  6661  0073  0971               	movwf	(___xxtofl@arg+1)
  6662  0074  00FB               	comf	(___xxtofl@val)+2,w
  6663  0075  0972               	movwf	(___xxtofl@arg+2)
  6664  0076  00FC               	comf	(___xxtofl@val)+3,w
  6665  0077  0973               	movwf	(___xxtofl@arg+3)
  6666  0078  00FD               	incf	(___xxtofl@arg),f
  6667  0079  0AFA               	skipnz
  6668  007A  1903               	incf	(___xxtofl@arg+1),f
  6669  007B  0AFB               	skipnz
  6670  007C  1903               	incf	(___xxtofl@arg+2),f
  6671  007D  0AFC               	skipnz
  6672  007E  1903               	incf	(___xxtofl@arg+3),f
  6673  007F  0AFD               	line	17
  6674                           	goto	l685
  6675  0080  2889               	line	18
  6676                           	
  6677                           l684:	
  6678  0081                     	line	19
  6679                           	
  6680                           l3172:	
  6681  0081                     	movf	(___xxtofl@val+3),w
  6682  0081  0873               	movwf	(___xxtofl@arg+3)
  6683  0082  00FD               	movf	(___xxtofl@val+2),w
  6684  0083  0872               	movwf	(___xxtofl@arg+2)
  6685  0084  00FC               	movf	(___xxtofl@val+1),w
  6686  0085  0871               	movwf	(___xxtofl@arg+1)
  6687  0086  00FB               	movf	(___xxtofl@val),w
  6688  0087  0870               	movwf	(___xxtofl@arg)
  6689  0088  00FA               
  6690                           	line	20
  6691                           	
  6692                           l685:	
  6693  0089                     	line	21
  6694                           	movf	(___xxtofl@val+3),w
  6695  0089  0873               	iorwf	(___xxtofl@val+2),w
  6696  008A  0472               	iorwf	(___xxtofl@val+1),w
  6697  008B  0471               	iorwf	(___xxtofl@val),w
  6698  008C  0470               	skipz
  6699  008D  1D03               	goto	u4011
  6700  008E  2890               	goto	u4010
  6701  008F  2891               u4011:
  6702  0090                     	goto	l3178
  6703  0090  289B               u4010:
  6704  0091                     	line	22
  6705                           	
  6706                           l3174:	
  6707  0091                     	movlw	0x0
  6708  0091  3000               	movwf	(?___xxtofl+3)
  6709  0092  00F3               	movlw	0x0
  6710  0093  3000               	movwf	(?___xxtofl+2)
  6711  0094  00F2               	movlw	0x0
  6712  0095  3000               	movwf	(?___xxtofl+1)
  6713  0096  00F1               	movlw	0x0
  6714  0097  3000               	movwf	(?___xxtofl)
  6715  0098  00F0               
  6716                           	goto	l687
  6717  0099  2928               	
  6718                           l3176:	
  6719  009A                     	goto	l687
  6720  009A  2928               	
  6721                           l686:	
  6722  009B                     	line	23
  6723                           	
  6724                           l3178:	
  6725  009B                     	movlw	low(096h)
  6726  009B  3096               	movwf	(??___xxtofl+0)+0
  6727  009C  00F4               	movf	(??___xxtofl+0)+0,w
  6728  009D  0874               	movwf	(___xxtofl@exp)
  6729  009E  00F9               	line	24
  6730                           	goto	l3182
  6731  009F  28AE               	
  6732                           l689:	
  6733  00A0                     	line	25
  6734                           	
  6735                           l3180:	
  6736  00A0                     	movlw	low(01h)
  6737  00A0  3001               	movwf	(??___xxtofl+0)+0
  6738  00A1  00F4               	movf	(??___xxtofl+0)+0,w
  6739  00A2  0874               	addwf	(___xxtofl@exp),f
  6740  00A3  07F9               	line	26
  6741                           	movlw	01h
  6742  00A4  3001               u4025:
  6743  00A5                     	clrc
  6744  00A5  1003               	rrf	(___xxtofl@arg+3),f
  6745  00A6  0CFD               	rrf	(___xxtofl@arg+2),f
  6746  00A7  0CFC               	rrf	(___xxtofl@arg+1),f
  6747  00A8  0CFB               	rrf	(___xxtofl@arg),f
  6748  00A9  0CFA               	addlw	-1
  6749  00AA  3EFF               	skipz
  6750  00AB  1D03               	goto	u4025
  6751  00AC  28A5               
  6752                           	goto	l3182
  6753  00AD  28AE               	line	27
  6754                           	
  6755                           l688:	
  6756  00AE                     	line	24
  6757                           	
  6758                           l3182:	
  6759  00AE                     	movlw	high highword(0FE000000h)
  6760  00AE  30FE               	andwf	(___xxtofl@arg+3),w
  6761  00AF  057D               	btfss	status,2
  6762  00B0  1D03               	goto	u4031
  6763  00B1  28B3               	goto	u4030
  6764  00B2  28B4               u4031:
  6765  00B3                     	goto	l3180
  6766  00B3  28A0               u4030:
  6767  00B4                     	goto	l691
  6768  00B4  28D1               	
  6769                           l690:	
  6770  00B5                     	line	28
  6771                           	goto	l691
  6772  00B5  28D1               	
  6773                           l692:	
  6774  00B6                     	line	29
  6775                           	
  6776                           l3184:	
  6777  00B6                     	movlw	low(01h)
  6778  00B6  3001               	movwf	(??___xxtofl+0)+0
  6779  00B7  00F4               	movf	(??___xxtofl+0)+0,w
  6780  00B8  0874               	addwf	(___xxtofl@exp),f
  6781  00B9  07F9               	line	30
  6782                           	
  6783                           l3186:	
  6784  00BA                     	movlw	01h
  6785  00BA  3001               	addwf	(___xxtofl@arg),f
  6786  00BB  07FA               	movlw	0
  6787  00BC  3000               	skipnc
  6788  00BD  1803               movlw 1
  6789  00BE  3001               	addwf	(___xxtofl@arg+1),f
  6790  00BF  07FB               	movlw	0
  6791  00C0  3000               	skipnc
  6792  00C1  1803               movlw 1
  6793  00C2  3001               	addwf	(___xxtofl@arg+2),f
  6794  00C3  07FC               	movlw	0
  6795  00C4  3000               	skipnc
  6796  00C5  1803               movlw 1
  6797  00C6  3001               	addwf	(___xxtofl@arg+3),f
  6798  00C7  07FD               	line	31
  6799                           	
  6800                           l3188:	
  6801  00C8                     	movlw	01h
  6802  00C8  3001               u4045:
  6803  00C9                     	clrc
  6804  00C9  1003               	rrf	(___xxtofl@arg+3),f
  6805  00CA  0CFD               	rrf	(___xxtofl@arg+2),f
  6806  00CB  0CFC               	rrf	(___xxtofl@arg+1),f
  6807  00CC  0CFB               	rrf	(___xxtofl@arg),f
  6808  00CD  0CFA               	addlw	-1
  6809  00CE  3EFF               	skipz
  6810  00CF  1D03               	goto	u4045
  6811  00D0  28C9               
  6812                           	line	32
  6813                           	
  6814                           l691:	
  6815  00D1                     	line	28
  6816                           	movlw	high highword(0FF000000h)
  6817  00D1  30FF               	andwf	(___xxtofl@arg+3),w
  6818  00D2  057D               	btfss	status,2
  6819  00D3  1D03               	goto	u4051
  6820  00D4  28D6               	goto	u4050
  6821  00D5  28D7               u4051:
  6822  00D6                     	goto	l3184
  6823  00D6  28B6               u4050:
  6824  00D7                     	goto	l3192
  6825  00D7  28E5               	
  6826                           l693:	
  6827  00D8                     	line	33
  6828                           	goto	l3192
  6829  00D8  28E5               	
  6830                           l695:	
  6831  00D9                     	line	34
  6832                           	
  6833                           l3190:	
  6834  00D9                     	movlw	01h
  6835  00D9  3001               	subwf	(___xxtofl@exp),f
  6836  00DA  02F9               	line	35
  6837                           	movlw	01h
  6838  00DB  3001               	movwf	(??___xxtofl+0)+0
  6839  00DC  00F4               u4065:
  6840  00DD                     	clrc
  6841  00DD  1003               	rlf	(___xxtofl@arg),f
  6842  00DE  0DFA               	rlf	(___xxtofl@arg+1),f
  6843  00DF  0DFB               	rlf	(___xxtofl@arg+2),f
  6844  00E0  0DFC               	rlf	(___xxtofl@arg+3),f
  6845  00E1  0DFD               	decfsz	(??___xxtofl+0)+0
  6846  00E2  0BF4               	goto	u4065
  6847  00E3  28DD               	goto	l3192
  6848  00E4  28E5               	line	36
  6849                           	
  6850                           l694:	
  6851  00E5                     	line	33
  6852                           	
  6853                           l3192:	
  6854  00E5                     	btfsc	(___xxtofl@arg+2),(23)&7
  6855  00E5  1BFC               	goto	u4071
  6856  00E6  28E8               	goto	u4070
  6857  00E7  28E9               u4071:
  6858  00E8                     	goto	l698
  6859  00E8  28F0               u4070:
  6860  00E9                     	
  6861                           l3194:	
  6862  00E9                     	movlw	low(02h)
  6863  00E9  3002               	subwf	(___xxtofl@exp),w
  6864  00EA  0279               	skipnc
  6865  00EB  1803               	goto	u4081
  6866  00EC  28EE               	goto	u4080
  6867  00ED  28EF               u4081:
  6868  00EE                     	goto	l3190
  6869  00EE  28D9               u4080:
  6870  00EF                     	goto	l698
  6871  00EF  28F0               	
  6872                           l697:	
  6873  00F0                     	
  6874                           l698:	
  6875  00F0                     	line	37
  6876                           	btfsc	(___xxtofl@exp),(0)&7
  6877  00F0  1879               	goto	u4091
  6878  00F1  28F3               	goto	u4090
  6879  00F2  28F4               u4091:
  6880  00F3                     	goto	l699
  6881  00F3  28FC               u4090:
  6882  00F4                     	line	38
  6883                           	
  6884                           l3196:	
  6885  00F4                     	movlw	0FFh
  6886  00F4  30FF               	andwf	(___xxtofl@arg),f
  6887  00F5  05FA               	movlw	0FFh
  6888  00F6  30FF               	andwf	(___xxtofl@arg+1),f
  6889  00F7  05FB               	movlw	07Fh
  6890  00F8  307F               	andwf	(___xxtofl@arg+2),f
  6891  00F9  05FC               	movlw	0FFh
  6892  00FA  30FF               	andwf	(___xxtofl@arg+3),f
  6893  00FB  05FD               	
  6894                           l699:	
  6895  00FC                     	line	39
  6896                           	clrc
  6897  00FC  1003               	rrf	(___xxtofl@exp),f
  6898  00FD  0CF9               
  6899                           	line	40
  6900                           	
  6901                           l3198:	
  6902  00FE                     	movf	(___xxtofl@exp),w
  6903  00FE  0879               	movwf	(??___xxtofl+0)+0
  6904  00FF  00F4               	clrf	(??___xxtofl+0)+0+1
  6905  0100  01F5               	clrf	(??___xxtofl+0)+0+2
  6906  0101  01F6               	clrf	(??___xxtofl+0)+0+3
  6907  0102  01F7               	movlw	018h
  6908  0103  3018               u4105:
  6909  0104                     	clrc
  6910  0104  1003               	rlf	(??___xxtofl+0)+0,f
  6911  0105  0DF4               	rlf	(??___xxtofl+0)+1,f
  6912  0106  0DF5               	rlf	(??___xxtofl+0)+2,f
  6913  0107  0DF6               	rlf	(??___xxtofl+0)+3,f
  6914  0108  0DF7               u4100:
  6915  0109                     	addlw	-1
  6916  0109  3EFF               	skipz
  6917  010A  1D03               	goto	u4105
  6918  010B  2904               	movf	0+(??___xxtofl+0)+0,w
  6919  010C  0874               	iorwf	(___xxtofl@arg),f
  6920  010D  04FA               	movf	1+(??___xxtofl+0)+0,w
  6921  010E  0875               	iorwf	(___xxtofl@arg+1),f
  6922  010F  04FB               	movf	2+(??___xxtofl+0)+0,w
  6923  0110  0876               	iorwf	(___xxtofl@arg+2),f
  6924  0111  04FC               	movf	3+(??___xxtofl+0)+0,w
  6925  0112  0877               	iorwf	(___xxtofl@arg+3),f
  6926  0113  04FD               	line	41
  6927                           	
  6928                           l3200:	
  6929  0114                     	movf	((___xxtofl@sign)),w
  6930  0114  0878               	btfsc	status,2
  6931  0115  1903               	goto	u4111
  6932  0116  2918               	goto	u4110
  6933  0117  2919               u4111:
  6934  0118                     	goto	l3206
  6935  0118  291F               u4110:
  6936  0119                     	
  6937                           l3202:	
  6938  0119                     	btfss	(___xxtofl@val+3),7
  6939  0119  1FF3               	goto	u4121
  6940  011A  291C               	goto	u4120
  6941  011B  291D               u4121:
  6942  011C                     	goto	l3206
  6943  011C  291F               u4120:
  6944  011D                     	line	42
  6945                           	
  6946                           l3204:	
  6947  011D                     	bsf	(___xxtofl@arg)+(31/8),(31)&7
  6948  011D  17FD               	goto	l3206
  6949  011E  291F               	
  6950                           l700:	
  6951  011F                     	line	43
  6952                           	
  6953                           l3206:	
  6954  011F                     	movf	(___xxtofl@arg+3),w
  6955  011F  087D               	movwf	(?___xxtofl+3)
  6956  0120  00F3               	movf	(___xxtofl@arg+2),w
  6957  0121  087C               	movwf	(?___xxtofl+2)
  6958  0122  00F2               	movf	(___xxtofl@arg+1),w
  6959  0123  087B               	movwf	(?___xxtofl+1)
  6960  0124  00F1               	movf	(___xxtofl@arg),w
  6961  0125  087A               	movwf	(?___xxtofl)
  6962  0126  00F0               
  6963                           	goto	l687
  6964  0127  2928               	
  6965                           l3208:	
  6966  0128                     	line	44
  6967                           	
  6968                           l687:	
  6969  0128                     	return
  6970  0128  0008               	opt stack 0
  6971                           GLOBAL	__end_of___xxtofl
  6972                           	__end_of___xxtofl:
  6973  0129                     	signat	___xxtofl,8316
  6974                           	global	___wmul
  6975                           
  6976 ;; *************** function ___wmul *****************
  6977 ;; Defined at:
  6978 ;;		line 15 in file "C:\Program Files (x86)\Microchip\xc8\v2.00\pic\sources\c90\common\Umul16.c"
  6979 ;; Parameters:    Size  Location     Type
  6980 ;;  multiplier      2    0[COMMON] unsigned int 
  6981 ;;  multiplicand    2    2[COMMON] unsigned int 
  6982 ;; Auto vars:     Size  Location     Type
  6983 ;;  product         2    4[COMMON] unsigned int 
  6984 ;; Return value:  Size  Location     Type
  6985 ;;                  2    0[COMMON] unsigned int 
  6986 ;; Registers used:
  6987 ;;		wreg, status,2, status,0
  6988 ;; Tracked objects:
  6989 ;;		On entry : 0/0
  6990 ;;		On exit  : 0/0
  6991 ;;		Unchanged: 0/0
  6992 ;; Data sizes:     COMMON   BANK0   BANK1   BANK3   BANK2
  6993 ;;      Params:         4       0       0       0       0
  6994 ;;      Locals:         2       0       0       0       0
  6995 ;;      Temps:          0       0       0       0       0
  6996 ;;      Totals:         6       0       0       0       0
  6997 ;;Total ram usage:        6 bytes
  6998 ;; Hardware stack levels used:    1
  6999 ;; This function calls:
  7000 ;;		Nothing
  7001 ;; This function is called by:
  7002 ;;		_main
  7003 ;; This function uses a non-reentrant model
  7004 ;;
  7005                           psect	text9,local,class=CODE,delta=2,merge=1,group=1
  7006                           	file	"C:\Program Files (x86)\Microchip\xc8\v2.00\pic\sources\c90\common\Umul16.c"
  7007                           	line	15
  7008                           global __ptext9
  7009                           __ptext9:	;psect for function ___wmul
  7010  1046                     psect	text9
  7011                           	file	"C:\Program Files (x86)\Microchip\xc8\v2.00\pic\sources\c90\common\Umul16.c"
  7012                           	line	15
  7013                           	global	__size_of___wmul
  7014                           	__size_of___wmul	equ	__end_of___wmul-___wmul
  7015  0028                     	
  7016                           ___wmul:	
  7017  1046                     ;incstack = 0
  7018                           	opt	stack 7
  7019                           ; Regs used in ___wmul: [wreg+status,2+status,0]
  7020                           	line	43
  7021                           	
  7022                           l2558:	
  7023  1046                     	clrf	(___wmul@product)
  7024  1046  01F4               	clrf	(___wmul@product+1)
  7025  1047  01F5               	goto	l2560
  7026  1048  2849               	line	44
  7027                           	
  7028                           l276:	
  7029  1049                     	line	45
  7030                           	
  7031                           l2560:	
  7032  1049                     	btfss	(___wmul@multiplier),(0)&7
  7033  1049  1C70               	goto	u2531
  7034  104A  284C               	goto	u2530
  7035  104B  284D               u2531:
  7036  104C                     	goto	l277
  7037  104C  2853               u2530:
  7038  104D                     	line	46
  7039                           	
  7040                           l2562:	
  7041  104D                     	movf	(___wmul@multiplicand),w
  7042  104D  0872               	addwf	(___wmul@product),f
  7043  104E  07F4               	skipnc
  7044  104F  1803               	incf	(___wmul@product+1),f
  7045  1050  0AF5               	movf	(___wmul@multiplicand+1),w
  7046  1051  0873               	addwf	(___wmul@product+1),f
  7047  1052  07F5               	
  7048                           l277:	
  7049  1053                     	line	47
  7050                           	movlw	01h
  7051  1053  3001               	
  7052                           u2545:
  7053  1054                     	clrc
  7054  1054  1003               	rlf	(___wmul@multiplicand),f
  7055  1055  0DF2               	rlf	(___wmul@multiplicand+1),f
  7056  1056  0DF3               	addlw	-1
  7057  1057  3EFF               	skipz
  7058  1058  1D03               	goto	u2545
  7059  1059  2854               	line	48
  7060                           	
  7061                           l2564:	
  7062  105A                     	movlw	01h
  7063  105A  3001               	
  7064                           u2555:
  7065  105B                     	clrc
  7066  105B  1003               	rrf	(___wmul@multiplier+1),f
  7067  105C  0CF1               	rrf	(___wmul@multiplier),f
  7068  105D  0CF0               	addlw	-1
  7069  105E  3EFF               	skipz
  7070  105F  1D03               	goto	u2555
  7071  1060  285B               	line	49
  7072                           	
  7073                           l2566:	
  7074  1061                     	movf	((___wmul@multiplier)),w
  7075  1061  0870               iorwf	((___wmul@multiplier+1)),w
  7076  1062  0471               	btfss	status,2
  7077  1063  1D03               	goto	u2561
  7078  1064  2866               	goto	u2560
  7079  1065  2867               u2561:
  7080  1066                     	goto	l2560
  7081  1066  2849               u2560:
  7082  1067                     	goto	l2568
  7083  1067  2868               	
  7084                           l278:	
  7085  1068                     	line	52
  7086                           	
  7087                           l2568:	
  7088  1068                     	movf	(___wmul@product+1),w
  7089  1068  0875               	movwf	(?___wmul+1)
  7090  1069  00F1               	movf	(___wmul@product),w
  7091  106A  0874               	movwf	(?___wmul)
  7092  106B  00F0               	goto	l279
  7093  106C  286D               	
  7094                           l2570:	
  7095  106D                     	line	53
  7096                           	
  7097                           l279:	
  7098  106D                     	return
  7099  106D  0008               	opt stack 0
  7100                           GLOBAL	__end_of___wmul
  7101                           	__end_of___wmul:
  7102  106E                     	signat	___wmul,8314
  7103                           	global	___fltol
  7104                           
  7105 ;; *************** function ___fltol *****************
  7106 ;; Defined at:
  7107 ;;		line 43 in file "C:\Program Files (x86)\Microchip\xc8\v2.00\pic\sources\c90\common\fltol.c"
  7108 ;; Parameters:    Size  Location     Type
  7109 ;;  f1              4   21[BANK0 ] unsigned int 
  7110 ;; Auto vars:     Size  Location     Type
  7111 ;;  exp1            1   31[BANK0 ] unsigned char 
  7112 ;;  sign1           1   30[BANK0 ] unsigned char 
  7113 ;; Return value:  Size  Location     Type
  7114 ;;                  4   21[BANK0 ] long 
  7115 ;; Registers used:
  7116 ;;		wreg, status,2, status,0
  7117 ;; Tracked objects:
  7118 ;;		On entry : 0/0
  7119 ;;		On exit  : 0/0
  7120 ;;		Unchanged: 0/0
  7121 ;; Data sizes:     COMMON   BANK0   BANK1   BANK3   BANK2
  7122 ;;      Params:         0       4       0       0       0
  7123 ;;      Locals:         0       2       0       0       0
  7124 ;;      Temps:          0       5       0       0       0
  7125 ;;      Totals:         0      11       0       0       0
  7126 ;;Total ram usage:       11 bytes
  7127 ;; Hardware stack levels used:    1
  7128 ;; This function calls:
  7129 ;;		Nothing
  7130 ;; This function is called by:
  7131 ;;		_main
  7132 ;; This function uses a non-reentrant model
  7133 ;;
  7134                           psect	text10,local,class=CODE,delta=2,merge=1,group=1
  7135                           	file	"C:\Program Files (x86)\Microchip\xc8\v2.00\pic\sources\c90\common\fltol.c"
  7136                           	line	43
  7137                           global __ptext10
  7138                           __ptext10:	;psect for function ___fltol
  7139  12A9                     psect	text10
  7140                           	file	"C:\Program Files (x86)\Microchip\xc8\v2.00\pic\sources\c90\common\fltol.c"
  7141                           	line	43
  7142                           	global	__size_of___fltol
  7143                           	__size_of___fltol	equ	__end_of___fltol-___fltol
  7144  009C                     	
  7145                           ___fltol:	
  7146  12A9                     ;incstack = 0
  7147                           	opt	stack 7
  7148                           ; Regs used in ___fltol: [wreg+status,2+status,0]
  7149                           	line	47
  7150                           	
  7151                           l2654:	
  7152  12A9                     	bcf	status, 5	;RP0=0, select bank0
  7153  12A9  1283               	bcf	status, 6	;RP1=0, select bank0
  7154  12AA  1303               	movf	(___fltol@f1),w
  7155  12AB  0835               	movwf	(??___fltol+0)+0
  7156  12AC  00B9               	movf	(___fltol@f1+1),w
  7157  12AD  0836               	movwf	((??___fltol+0)+0+1)
  7158  12AE  00BA               	movf	(___fltol@f1+2),w
  7159  12AF  0837               	movwf	((??___fltol+0)+0+2)
  7160  12B0  00BB               	movf	(___fltol@f1+3),w
  7161  12B1  0838               	movwf	((??___fltol+0)+0+3)
  7162  12B2  00BC               	clrc
  7163  12B3  1003               	rlf	(??___fltol+0)+2,w
  7164  12B4  0D3B               	rlf	(??___fltol+0)+3,w
  7165  12B5  0D3C               	movwf	(??___fltol+4)+0
  7166  12B6  00BD               	movf	(??___fltol+4)+0,w
  7167  12B7  083D               	movwf	(___fltol@exp1)
  7168  12B8  00BF               	movf	(((___fltol@exp1))),w
  7169  12B9  083F               	btfss	status,2
  7170  12BA  1D03               	goto	u2761
  7171  12BB  2ABD               	goto	u2760
  7172  12BC  2ABE               u2761:
  7173  12BD                     	goto	l2660
  7174  12BD  2AC8               u2760:
  7175  12BE                     	line	48
  7176                           	
  7177                           l2656:	
  7178  12BE                     	movlw	high highword(0)
  7179  12BE  3000               	movwf	(?___fltol+3)
  7180  12BF  00B8               	movlw	low highword(0)
  7181  12C0  3000               	movwf	(?___fltol+2)
  7182  12C1  00B7               	movlw	high(0)
  7183  12C2  3000               	movwf	(?___fltol+1)
  7184  12C3  00B6               	movlw	low(0)
  7185  12C4  3000               	movwf	(?___fltol)
  7186  12C5  00B5               
  7187                           	goto	l463
  7188  12C6  2B44               	
  7189                           l2658:	
  7190  12C7                     	goto	l463
  7191  12C7  2B44               	
  7192                           l462:	
  7193  12C8                     	line	49
  7194                           	
  7195                           l2660:	
  7196  12C8                     	movf	(___fltol@f1),w
  7197  12C8  0835               	movwf	(??___fltol+0)+0
  7198  12C9  00B9               	movf	(___fltol@f1+1),w
  7199  12CA  0836               	movwf	((??___fltol+0)+0+1)
  7200  12CB  00BA               	movf	(___fltol@f1+2),w
  7201  12CC  0837               	movwf	((??___fltol+0)+0+2)
  7202  12CD  00BB               	movf	(___fltol@f1+3),w
  7203  12CE  0838               	movwf	((??___fltol+0)+0+3)
  7204  12CF  00BC               	movlw	01Fh
  7205  12D0  301F               u2775:
  7206  12D1                     	clrc
  7207  12D1  1003               	rrf	(??___fltol+0)+3,f
  7208  12D2  0CBC               	rrf	(??___fltol+0)+2,f
  7209  12D3  0CBB               	rrf	(??___fltol+0)+1,f
  7210  12D4  0CBA               	rrf	(??___fltol+0)+0,f
  7211  12D5  0CB9               u2770:
  7212  12D6                     	addlw	-1
  7213  12D6  3EFF               	skipz
  7214  12D7  1D03               	goto	u2775
  7215  12D8  2AD1               	movf	0+(??___fltol+0)+0,w
  7216  12D9  0839               	movwf	(??___fltol+4)+0
  7217  12DA  00BD               	movf	(??___fltol+4)+0,w
  7218  12DB  083D               	movwf	(___fltol@sign1)
  7219  12DC  00BE               	line	50
  7220                           	
  7221                           l2662:	
  7222  12DD                     	bsf	(___fltol@f1)+(23/8),(23)&7
  7223  12DD  17B7               	line	51
  7224                           	
  7225                           l2664:	
  7226  12DE                     	movlw	0FFh
  7227  12DE  30FF               	andwf	(___fltol@f1),f
  7228  12DF  05B5               	movlw	0FFh
  7229  12E0  30FF               	andwf	(___fltol@f1+1),f
  7230  12E1  05B6               	movlw	0FFh
  7231  12E2  30FF               	andwf	(___fltol@f1+2),f
  7232  12E3  05B7               	movlw	0
  7233  12E4  3000               	andwf	(___fltol@f1+3),f
  7234  12E5  05B8               	line	52
  7235                           	
  7236                           l2666:	
  7237  12E6                     	movlw	096h
  7238  12E6  3096               	subwf	(___fltol@exp1),f
  7239  12E7  02BF               	line	53
  7240                           	
  7241                           l2668:	
  7242  12E8                     	btfss	(___fltol@exp1),7
  7243  12E8  1FBF               	goto	u2781
  7244  12E9  2AEB               	goto	u2780
  7245  12EA  2AEC               u2781:
  7246  12EB                     	goto	l2678
  7247  12EB  2B11               u2780:
  7248  12EC                     	line	54
  7249                           	
  7250                           l2670:	
  7251  12EC                     	movf	(___fltol@exp1),w
  7252  12EC  083F               	xorlw	80h
  7253  12ED  3A80               	addlw	-((-23)^80h)
  7254  12EE  3E97               	skipnc
  7255  12EF  1803               	goto	u2791
  7256  12F0  2AF2               	goto	u2790
  7257  12F1  2AF3               u2791:
  7258  12F2                     	goto	l2676
  7259  12F2  2AFE               u2790:
  7260  12F3                     	line	55
  7261                           	
  7262                           l2672:	
  7263  12F3                     	movlw	high highword(0)
  7264  12F3  3000               	movwf	(?___fltol+3)
  7265  12F4  00B8               	movlw	low highword(0)
  7266  12F5  3000               	movwf	(?___fltol+2)
  7267  12F6  00B7               	movlw	high(0)
  7268  12F7  3000               	movwf	(?___fltol+1)
  7269  12F8  00B6               	movlw	low(0)
  7270  12F9  3000               	movwf	(?___fltol)
  7271  12FA  00B5               
  7272                           	goto	l463
  7273  12FB  2B44               	
  7274                           l2674:	
  7275  12FC                     	goto	l463
  7276  12FC  2B44               	
  7277                           l465:	
  7278  12FD                     	goto	l2676
  7279  12FD  2AFE               	line	56
  7280                           	
  7281                           l466:	
  7282  12FE                     	line	57
  7283                           	
  7284                           l2676:	
  7285  12FE                     	movlw	01h
  7286  12FE  3001               u2805:
  7287  12FF                     	clrc
  7288  12FF  1003               	rrf	(___fltol@f1+3),f
  7289  1300  0CB8               	rrf	(___fltol@f1+2),f
  7290  1301  0CB7               	rrf	(___fltol@f1+1),f
  7291  1302  0CB6               	rrf	(___fltol@f1),f
  7292  1303  0CB5               	addlw	-1
  7293  1304  3EFF               	skipz
  7294  1305  1D03               	goto	u2805
  7295  1306  2AFF               
  7296                           	line	58
  7297                           	movlw	low(01h)
  7298  1307  3001               	movwf	(??___fltol+0)+0
  7299  1308  00B9               	movf	(??___fltol+0)+0,w
  7300  1309  0839               	addwf	(___fltol@exp1),f
  7301  130A  07BF               	btfss	status,2
  7302  130B  1D03               	goto	u2811
  7303  130C  2B0E               	goto	u2810
  7304  130D  2B0F               u2811:
  7305  130E                     	goto	l2676
  7306  130E  2AFE               u2810:
  7307  130F                     	goto	l2686
  7308  130F  2B34               	
  7309                           l467:	
  7310  1310                     	line	59
  7311                           	goto	l2686
  7312  1310  2B34               	
  7313                           l464:	
  7314  1311                     	line	60
  7315                           	
  7316                           l2678:	
  7317  1311                     	movlw	low(020h)
  7318  1311  3020               	subwf	(___fltol@exp1),w
  7319  1312  023F               	skipc
  7320  1313  1C03               	goto	u2821
  7321  1314  2B16               	goto	u2820
  7322  1315  2B17               u2821:
  7323  1316                     	goto	l470
  7324  1316  2B2D               u2820:
  7325  1317                     	line	61
  7326                           	
  7327                           l2680:	
  7328  1317                     	movlw	high highword(0)
  7329  1317  3000               	movwf	(?___fltol+3)
  7330  1318  00B8               	movlw	low highword(0)
  7331  1319  3000               	movwf	(?___fltol+2)
  7332  131A  00B7               	movlw	high(0)
  7333  131B  3000               	movwf	(?___fltol+1)
  7334  131C  00B6               	movlw	low(0)
  7335  131D  3000               	movwf	(?___fltol)
  7336  131E  00B5               
  7337                           	goto	l463
  7338  131F  2B44               	
  7339                           l2682:	
  7340  1320                     	goto	l463
  7341  1320  2B44               	
  7342                           l469:	
  7343  1321                     	line	62
  7344                           	goto	l470
  7345  1321  2B2D               	
  7346                           l471:	
  7347  1322                     	line	63
  7348                           	
  7349                           l2684:	
  7350  1322                     	movlw	01h
  7351  1322  3001               	movwf	(??___fltol+0)+0
  7352  1323  00B9               u2835:
  7353  1324                     	clrc
  7354  1324  1003               	rlf	(___fltol@f1),f
  7355  1325  0DB5               	rlf	(___fltol@f1+1),f
  7356  1326  0DB6               	rlf	(___fltol@f1+2),f
  7357  1327  0DB7               	rlf	(___fltol@f1+3),f
  7358  1328  0DB8               	decfsz	(??___fltol+0)+0
  7359  1329  0BB9               	goto	u2835
  7360  132A  2B24               	line	64
  7361                           	movlw	01h
  7362  132B  3001               	subwf	(___fltol@exp1),f
  7363  132C  02BF               	line	65
  7364                           	
  7365                           l470:	
  7366  132D                     	line	62
  7367                           	movf	((___fltol@exp1)),w
  7368  132D  083F               	btfss	status,2
  7369  132E  1D03               	goto	u2841
  7370  132F  2B31               	goto	u2840
  7371  1330  2B32               u2841:
  7372  1331                     	goto	l2684
  7373  1331  2B22               u2840:
  7374  1332                     	goto	l2686
  7375  1332  2B34               	
  7376                           l472:	
  7377  1333                     	goto	l2686
  7378  1333  2B34               	line	66
  7379                           	
  7380                           l468:	
  7381  1334                     	line	67
  7382                           	
  7383                           l2686:	
  7384  1334                     	movf	((___fltol@sign1)),w
  7385  1334  083E               	btfsc	status,2
  7386  1335  1903               	goto	u2851
  7387  1336  2B38               	goto	u2850
  7388  1337  2B39               u2851:
  7389  1338                     	goto	l473
  7390  1338  2B44               u2850:
  7391  1339                     	line	68
  7392                           	
  7393                           l2688:	
  7394  1339                     	comf	(___fltol@f1),f
  7395  1339  09B5               	comf	(___fltol@f1+1),f
  7396  133A  09B6               	comf	(___fltol@f1+2),f
  7397  133B  09B7               	comf	(___fltol@f1+3),f
  7398  133C  09B8               	incf	(___fltol@f1),f
  7399  133D  0AB5               	skipnz
  7400  133E  1903               	incf	(___fltol@f1+1),f
  7401  133F  0AB6               	skipnz
  7402  1340  1903               	incf	(___fltol@f1+2),f
  7403  1341  0AB7               	skipnz
  7404  1342  1903               	incf	(___fltol@f1+3),f
  7405  1343  0AB8               	
  7406                           l473:	
  7407  1344                     	line	69
  7408                           	line	70
  7409                           	
  7410                           l463:	
  7411  1344                     	return
  7412  1344  0008               	opt stack 0
  7413                           GLOBAL	__end_of___fltol
  7414                           	__end_of___fltol:
  7415  1345                     	signat	___fltol,4220
  7416                           	global	___flmul
  7417                           
  7418 ;; *************** function ___flmul *****************
  7419 ;; Defined at:
  7420 ;;		line 8 in file "C:\Program Files (x86)\Microchip\xc8\v2.00\pic\sources\c90\common\sprcmul.c"
  7421 ;; Parameters:    Size  Location     Type
  7422 ;;  b               4    0[BANK0 ] long 
  7423 ;;  a               4    4[BANK0 ] long 
  7424 ;; Auto vars:     Size  Location     Type
  7425 ;;  prod            4   15[BANK0 ] struct .
  7426 ;;  grs             4    9[BANK0 ] unsigned long 
  7427 ;;  temp            2   19[BANK0 ] struct .
  7428 ;;  bexp            1   14[BANK0 ] unsigned char 
  7429 ;;  aexp            1   13[BANK0 ] unsigned char 
  7430 ;;  sign            1    8[BANK0 ] unsigned char 
  7431 ;; Return value:  Size  Location     Type
  7432 ;;                  4    0[BANK0 ] unsigned char 
  7433 ;; Registers used:
  7434 ;;		wreg, status,2, status,0, btemp+1, pclath, cstack
  7435 ;; Tracked objects:
  7436 ;;		On entry : 0/0
  7437 ;;		On exit  : 0/0
  7438 ;;		Unchanged: 0/0
  7439 ;; Data sizes:     COMMON   BANK0   BANK1   BANK3   BANK2
  7440 ;;      Params:         0       8       0       0       0
  7441 ;;      Locals:         0      13       0       0       0
  7442 ;;      Temps:          5       0       0       0       0
  7443 ;;      Totals:         5      21       0       0       0
  7444 ;;Total ram usage:       26 bytes
  7445 ;; Hardware stack levels used:    1
  7446 ;; Hardware stack levels required when called:    1
  7447 ;; This function calls:
  7448 ;;		__Umul8_16
  7449 ;; This function is called by:
  7450 ;;		_main
  7451 ;; This function uses a non-reentrant model
  7452 ;;
  7453                           psect	text11,local,class=CODE,delta=2,merge=1,group=1
  7454                           	file	"C:\Program Files (x86)\Microchip\xc8\v2.00\pic\sources\c90\common\sprcmul.c"
  7455                           	line	8
  7456                           global __ptext11
  7457                           __ptext11:	;psect for function ___flmul
  7458  0C8B                     psect	text11
  7459                           	file	"C:\Program Files (x86)\Microchip\xc8\v2.00\pic\sources\c90\common\sprcmul.c"
  7460                           	line	8
  7461                           	global	__size_of___flmul
  7462                           	__size_of___flmul	equ	__end_of___flmul-___flmul
  7463  0375                     	
  7464                           ___flmul:	
  7465  0C8B                     ;incstack = 0
  7466                           	opt	stack 6
  7467                           ; Regs used in ___flmul: [wreg+status,2+status,0+btemp+1+pclath+cstack]
  7468                           	line	17
  7469                           	
  7470                           l3026:	
  7471  0C8B                     	bcf	status, 5	;RP0=0, select bank0
  7472  0C8B  1283               	bcf	status, 6	;RP1=0, select bank0
  7473  0C8C  1303               	movf	0+(___flmul@b)+03h,w
  7474  0C8D  0823               	andlw	080h
  7475  0C8E  3980               	movwf	(??___flmul+0)+0
  7476  0C8F  00F9               	movf	(??___flmul+0)+0,w
  7477  0C90  0879               	movwf	(___flmul@sign)
  7478  0C91  00A8               	line	18
  7479                           	
  7480                           l3028:	
  7481  0C92                     	movf	0+(___flmul@b)+03h,w
  7482  0C92  0823               	movwf	(??___flmul+0)+0
  7483  0C93  00F9               	addwf	(??___flmul+0)+0,w
  7484  0C94  0779               	movwf	(??___flmul+1)+0
  7485  0C95  00FA               	movf	(??___flmul+1)+0,w
  7486  0C96  087A               	movwf	(___flmul@bexp)
  7487  0C97  00AE               	line	19
  7488                           	
  7489                           l3030:	
  7490  0C98                     	btfss	0+(___flmul@b)+02h,(7)&7
  7491  0C98  1FA2               	goto	u3621
  7492  0C99  2C9B               	goto	u3620
  7493  0C9A  2C9C               u3621:
  7494  0C9B                     	goto	l3034
  7495  0C9B  2C9E               u3620:
  7496  0C9C                     	line	20
  7497                           	
  7498                           l3032:	
  7499  0C9C                     	bsf	(___flmul@bexp)+(0/8),(0)&7
  7500  0C9C  142E               	goto	l3034
  7501  0C9D  2C9E               	line	21
  7502                           	
  7503                           l655:	
  7504  0C9E                     	line	24
  7505                           	
  7506                           l3034:	
  7507  0C9E                     	movf	((___flmul@bexp)),w
  7508  0C9E  082E               	btfsc	status,2
  7509  0C9F  1903               	goto	u3631
  7510  0CA0  2CA2               	goto	u3630
  7511  0CA1  2CA3               u3631:
  7512  0CA2                     	goto	l3042
  7513  0CA2  2CB3               u3630:
  7514  0CA3                     	line	26
  7515                           	
  7516                           l3036:	
  7517  0CA3                     		incf	((___flmul@bexp)),w
  7518  0CA3  0A2E               	btfss	status,2
  7519  0CA4  1D03               	goto	u3641
  7520  0CA5  2CA7               	goto	u3640
  7521  0CA6  2CA8               u3641:
  7522  0CA7                     	goto	l3040
  7523  0CA7  2CB1               u3640:
  7524  0CA8                     	line	28
  7525                           	
  7526                           l3038:	
  7527  0CA8                     	movlw	0x0
  7528  0CA8  3000               	movwf	(___flmul@b+3)
  7529  0CA9  00A3               	movlw	0x0
  7530  0CAA  3000               	movwf	(___flmul@b+2)
  7531  0CAB  00A2               	movlw	0x0
  7532  0CAC  3000               	movwf	(___flmul@b+1)
  7533  0CAD  00A1               	movlw	0x0
  7534  0CAE  3000               	movwf	(___flmul@b)
  7535  0CAF  00A0               
  7536                           	goto	l3040
  7537  0CB0  2CB1               	line	29
  7538                           	
  7539                           l657:	
  7540  0CB1                     	line	31
  7541                           	
  7542                           l3040:	
  7543  0CB1                     	bsf	(___flmul@b)+(23/8),(23)&7
  7544  0CB1  17A2               	line	33
  7545                           	goto	l3044
  7546  0CB2  2CBC               	line	34
  7547                           	
  7548                           l656:	
  7549  0CB3                     	line	36
  7550                           	
  7551                           l3042:	
  7552  0CB3                     	movlw	0x0
  7553  0CB3  3000               	movwf	(___flmul@b+3)
  7554  0CB4  00A3               	movlw	0x0
  7555  0CB5  3000               	movwf	(___flmul@b+2)
  7556  0CB6  00A2               	movlw	0x0
  7557  0CB7  3000               	movwf	(___flmul@b+1)
  7558  0CB8  00A1               	movlw	0x0
  7559  0CB9  3000               	movwf	(___flmul@b)
  7560  0CBA  00A0               
  7561                           	goto	l3044
  7562  0CBB  2CBC               	line	37
  7563                           	
  7564                           l658:	
  7565  0CBC                     	line	39
  7566                           	
  7567                           l3044:	
  7568  0CBC                     	movf	0+(___flmul@a)+03h,w
  7569  0CBC  0827               	andlw	080h
  7570  0CBD  3980               	movwf	(??___flmul+0)+0
  7571  0CBE  00F9               	movf	(??___flmul+0)+0,w
  7572  0CBF  0879               	xorwf	(___flmul@sign),f
  7573  0CC0  06A8               	line	40
  7574                           	
  7575                           l3046:	
  7576  0CC1                     	movf	0+(___flmul@a)+03h,w
  7577  0CC1  0827               	movwf	(??___flmul+0)+0
  7578  0CC2  00F9               	addwf	(??___flmul+0)+0,w
  7579  0CC3  0779               	movwf	(??___flmul+1)+0
  7580  0CC4  00FA               	movf	(??___flmul+1)+0,w
  7581  0CC5  087A               	movwf	(___flmul@aexp)
  7582  0CC6  00AD               	line	41
  7583                           	
  7584                           l3048:	
  7585  0CC7                     	btfss	0+(___flmul@a)+02h,(7)&7
  7586  0CC7  1FA6               	goto	u3651
  7587  0CC8  2CCA               	goto	u3650
  7588  0CC9  2CCB               u3651:
  7589  0CCA                     	goto	l3052
  7590  0CCA  2CCD               u3650:
  7591  0CCB                     	line	42
  7592                           	
  7593                           l3050:	
  7594  0CCB                     	bsf	(___flmul@aexp)+(0/8),(0)&7
  7595  0CCB  142D               	goto	l3052
  7596  0CCC  2CCD               	line	43
  7597                           	
  7598                           l659:	
  7599  0CCD                     	line	45
  7600                           	
  7601                           l3052:	
  7602  0CCD                     	movf	((___flmul@aexp)),w
  7603  0CCD  082D               	btfsc	status,2
  7604  0CCE  1903               	goto	u3661
  7605  0CCF  2CD1               	goto	u3660
  7606  0CD0  2CD2               u3661:
  7607  0CD1                     	goto	l3060
  7608  0CD1  2CE2               u3660:
  7609  0CD2                     	line	48
  7610                           	
  7611                           l3054:	
  7612  0CD2                     		incf	((___flmul@aexp)),w
  7613  0CD2  0A2D               	btfss	status,2
  7614  0CD3  1D03               	goto	u3671
  7615  0CD4  2CD6               	goto	u3670
  7616  0CD5  2CD7               u3671:
  7617  0CD6                     	goto	l3058
  7618  0CD6  2CE0               u3670:
  7619  0CD7                     	line	50
  7620                           	
  7621                           l3056:	
  7622  0CD7                     	movlw	0x0
  7623  0CD7  3000               	movwf	(___flmul@a+3)
  7624  0CD8  00A7               	movlw	0x0
  7625  0CD9  3000               	movwf	(___flmul@a+2)
  7626  0CDA  00A6               	movlw	0x0
  7627  0CDB  3000               	movwf	(___flmul@a+1)
  7628  0CDC  00A5               	movlw	0x0
  7629  0CDD  3000               	movwf	(___flmul@a)
  7630  0CDE  00A4               
  7631                           	goto	l3058
  7632  0CDF  2CE0               	line	51
  7633                           	
  7634                           l661:	
  7635  0CE0                     	line	53
  7636                           	
  7637                           l3058:	
  7638  0CE0                     	bsf	(___flmul@a)+(23/8),(23)&7
  7639  0CE0  17A6               	line	54
  7640                           	goto	l3062
  7641  0CE1  2CEB               	line	55
  7642                           	
  7643                           l660:	
  7644  0CE2                     	line	57
  7645                           	
  7646                           l3060:	
  7647  0CE2                     	movlw	0x0
  7648  0CE2  3000               	movwf	(___flmul@a+3)
  7649  0CE3  00A7               	movlw	0x0
  7650  0CE4  3000               	movwf	(___flmul@a+2)
  7651  0CE5  00A6               	movlw	0x0
  7652  0CE6  3000               	movwf	(___flmul@a+1)
  7653  0CE7  00A5               	movlw	0x0
  7654  0CE8  3000               	movwf	(___flmul@a)
  7655  0CE9  00A4               
  7656                           	goto	l3062
  7657  0CEA  2CEB               	line	58
  7658                           	
  7659                           l662:	
  7660  0CEB                     	line	65
  7661                           	
  7662                           l3062:	
  7663  0CEB                     	movf	((___flmul@aexp)),w
  7664  0CEB  082D               	btfsc	status,2
  7665  0CEC  1903               	goto	u3681
  7666  0CED  2CEF               	goto	u3680
  7667  0CEE  2CF0               u3681:
  7668  0CEF                     	goto	l3066
  7669  0CEF  2CF6               u3680:
  7670  0CF0                     	
  7671                           l3064:	
  7672  0CF0                     	movf	((___flmul@bexp)),w
  7673  0CF0  082E               	btfss	status,2
  7674  0CF1  1D03               	goto	u3691
  7675  0CF2  2CF4               	goto	u3690
  7676  0CF3  2CF5               u3691:
  7677  0CF4                     	goto	l3070
  7678  0CF4  2D00               u3690:
  7679  0CF5                     	goto	l3066
  7680  0CF5  2CF6               	
  7681                           l665:	
  7682  0CF6                     	line	66
  7683                           	
  7684                           l3066:	
  7685  0CF6                     	movlw	0x0
  7686  0CF6  3000               	movwf	(?___flmul+3)
  7687  0CF7  00A3               	movlw	0x0
  7688  0CF8  3000               	movwf	(?___flmul+2)
  7689  0CF9  00A2               	movlw	0x0
  7690  0CFA  3000               	movwf	(?___flmul+1)
  7691  0CFB  00A1               	movlw	0x0
  7692  0CFC  3000               	movwf	(?___flmul)
  7693  0CFD  00A0               
  7694                           	goto	l666
  7695  0CFE  2FFF               	
  7696                           l3068:	
  7697  0CFF                     	goto	l666
  7698  0CFF  2FFF               	line	67
  7699                           	
  7700                           l663:	
  7701  0D00                     	line	119
  7702                           	
  7703                           l3070:	
  7704  0D00                     	movf	(___flmul@b),w
  7705  0D00  0820               	movwf	(??___flmul+0)+0
  7706  0D01  00F9               	movf	(??___flmul+0)+0,w
  7707  0D02  0879               	movwf	(__Umul8_16@multiplicand)
  7708  0D03  00F0               	movf	0+(___flmul@a)+02h,w
  7709  0D04  0826               	fcall	__Umul8_16
  7710  0D05  120A  158A  200C  120A  158A  	movf	(1+(?__Umul8_16)),w
  7711  0D0A  0871               	bcf	status, 5	;RP0=0, select bank0
  7712  0D0B  1283               	bcf	status, 6	;RP1=0, select bank0
  7713  0D0C  1303               	movwf	(___flmul@temp+1)
  7714  0D0D  00B4               	movf	(0+(?__Umul8_16)),w
  7715  0D0E  0870               	movwf	(___flmul@temp)
  7716  0D0F  00B3               	line	120
  7717                           	
  7718                           l3072:	
  7719  0D10                     	movf	(___flmul@temp),w
  7720  0D10  0833               	movwf	(??___flmul+0)+0
  7721  0D11  00F9               	clrf	(??___flmul+0)+0+1
  7722  0D12  01FA               	clrf	(??___flmul+0)+0+2
  7723  0D13  01FB               	clrf	(??___flmul+0)+0+3
  7724  0D14  01FC               	movf	3+(??___flmul+0)+0,w
  7725  0D15  087C               	movwf	(___flmul@grs+3)
  7726  0D16  00AC               	movf	2+(??___flmul+0)+0,w
  7727  0D17  087B               	movwf	(___flmul@grs+2)
  7728  0D18  00AB               	movf	1+(??___flmul+0)+0,w
  7729  0D19  087A               	movwf	(___flmul@grs+1)
  7730  0D1A  00AA               	movf	0+(??___flmul+0)+0,w
  7731  0D1B  0879               	movwf	(___flmul@grs)
  7732  0D1C  00A9               
  7733                           	line	121
  7734                           	
  7735                           l3074:	
  7736  0D1D                     	movf	0+(___flmul@temp)+01h,w
  7737  0D1D  0834               	movwf	(??___flmul+0)+0
  7738  0D1E  00F9               	clrf	(??___flmul+0)+0+1
  7739  0D1F  01FA               	clrf	(??___flmul+0)+0+2
  7740  0D20  01FB               	clrf	(??___flmul+0)+0+3
  7741  0D21  01FC               	movf	3+(??___flmul+0)+0,w
  7742  0D22  087C               	movwf	(___flmul@prod+3)
  7743  0D23  00B2               	movf	2+(??___flmul+0)+0,w
  7744  0D24  087B               	movwf	(___flmul@prod+2)
  7745  0D25  00B1               	movf	1+(??___flmul+0)+0,w
  7746  0D26  087A               	movwf	(___flmul@prod+1)
  7747  0D27  00B0               	movf	0+(??___flmul+0)+0,w
  7748  0D28  0879               	movwf	(___flmul@prod)
  7749  0D29  00AF               
  7750                           	line	122
  7751                           	movf	0+(___flmul@b)+01h,w
  7752  0D2A  0821               	movwf	(??___flmul+0)+0
  7753  0D2B  00F9               	movf	(??___flmul+0)+0,w
  7754  0D2C  0879               	movwf	(__Umul8_16@multiplicand)
  7755  0D2D  00F0               	movf	0+(___flmul@a)+01h,w
  7756  0D2E  0825               	fcall	__Umul8_16
  7757  0D2F  120A  158A  200C  120A  158A  	movf	(1+(?__Umul8_16)),w
  7758  0D34  0871               	bcf	status, 5	;RP0=0, select bank0
  7759  0D35  1283               	bcf	status, 6	;RP1=0, select bank0
  7760  0D36  1303               	movwf	(___flmul@temp+1)
  7761  0D37  00B4               	movf	(0+(?__Umul8_16)),w
  7762  0D38  0870               	movwf	(___flmul@temp)
  7763  0D39  00B3               	line	123
  7764                           	
  7765                           l3076:	
  7766  0D3A                     	movf	(___flmul@temp),w
  7767  0D3A  0833               	movwf	(??___flmul+0)+0
  7768  0D3B  00F9               	clrf	(??___flmul+0)+0+1
  7769  0D3C  01FA               	clrf	(??___flmul+0)+0+2
  7770  0D3D  01FB               	clrf	(??___flmul+0)+0+3
  7771  0D3E  01FC               	movf	0+(??___flmul+0)+0,w
  7772  0D3F  0879               	addwf	(___flmul@grs),f
  7773  0D40  07A9               	movf	1+(??___flmul+0)+0,w
  7774  0D41  087A               	clrz
  7775  0D42  1103               	skipnc
  7776  0D43  1803               	addlw	1
  7777  0D44  3E01               	skipnz
  7778  0D45  1903               	goto	u3701
  7779  0D46  2D48               	addwf	(___flmul@grs+1),f
  7780  0D47  07AA               u3701:
  7781  0D48                     	movf	2+(??___flmul+0)+0,w
  7782  0D48  087B               	clrz
  7783  0D49  1103               	skipnc
  7784  0D4A  1803               	addlw	1
  7785  0D4B  3E01               	skipnz
  7786  0D4C  1903               	goto	u3702
  7787  0D4D  2D4F               	addwf	(___flmul@grs+2),f
  7788  0D4E  07AB               u3702:
  7789  0D4F                     	movf	3+(??___flmul+0)+0,w
  7790  0D4F  087C               	clrz
  7791  0D50  1103               	skipnc
  7792  0D51  1803               	addlw	1
  7793  0D52  3E01               	skipnz
  7794  0D53  1903               	goto	u3703
  7795  0D54  2D56               	addwf	(___flmul@grs+3),f
  7796  0D55  07AC               u3703:
  7797  0D56                     
  7798                           	line	124
  7799                           	
  7800                           l3078:	
  7801  0D56                     	movf	0+(___flmul@temp)+01h,w
  7802  0D56  0834               	movwf	(??___flmul+0)+0
  7803  0D57  00F9               	clrf	(??___flmul+0)+0+1
  7804  0D58  01FA               	clrf	(??___flmul+0)+0+2
  7805  0D59  01FB               	clrf	(??___flmul+0)+0+3
  7806  0D5A  01FC               	movf	0+(??___flmul+0)+0,w
  7807  0D5B  0879               	addwf	(___flmul@prod),f
  7808  0D5C  07AF               	movf	1+(??___flmul+0)+0,w
  7809  0D5D  087A               	clrz
  7810  0D5E  1103               	skipnc
  7811  0D5F  1803               	addlw	1
  7812  0D60  3E01               	skipnz
  7813  0D61  1903               	goto	u3711
  7814  0D62  2D64               	addwf	(___flmul@prod+1),f
  7815  0D63  07B0               u3711:
  7816  0D64                     	movf	2+(??___flmul+0)+0,w
  7817  0D64  087B               	clrz
  7818  0D65  1103               	skipnc
  7819  0D66  1803               	addlw	1
  7820  0D67  3E01               	skipnz
  7821  0D68  1903               	goto	u3712
  7822  0D69  2D6B               	addwf	(___flmul@prod+2),f
  7823  0D6A  07B1               u3712:
  7824  0D6B                     	movf	3+(??___flmul+0)+0,w
  7825  0D6B  087C               	clrz
  7826  0D6C  1103               	skipnc
  7827  0D6D  1803               	addlw	1
  7828  0D6E  3E01               	skipnz
  7829  0D6F  1903               	goto	u3713
  7830  0D70  2D72               	addwf	(___flmul@prod+3),f
  7831  0D71  07B2               u3713:
  7832  0D72                     
  7833                           	line	125
  7834                           	movf	0+(___flmul@b)+02h,w
  7835  0D72  0822               	movwf	(??___flmul+0)+0
  7836  0D73  00F9               	movf	(??___flmul+0)+0,w
  7837  0D74  0879               	movwf	(__Umul8_16@multiplicand)
  7838  0D75  00F0               	movf	(___flmul@a),w
  7839  0D76  0824               	fcall	__Umul8_16
  7840  0D77  120A  158A  200C  120A  158A  	movf	(1+(?__Umul8_16)),w
  7841  0D7C  0871               	bcf	status, 5	;RP0=0, select bank0
  7842  0D7D  1283               	bcf	status, 6	;RP1=0, select bank0
  7843  0D7E  1303               	movwf	(___flmul@temp+1)
  7844  0D7F  00B4               	movf	(0+(?__Umul8_16)),w
  7845  0D80  0870               	movwf	(___flmul@temp)
  7846  0D81  00B3               	line	126
  7847                           	
  7848                           l3080:	
  7849  0D82                     	movf	(___flmul@temp),w
  7850  0D82  0833               	movwf	(??___flmul+0)+0
  7851  0D83  00F9               	clrf	(??___flmul+0)+0+1
  7852  0D84  01FA               	clrf	(??___flmul+0)+0+2
  7853  0D85  01FB               	clrf	(??___flmul+0)+0+3
  7854  0D86  01FC               	movf	0+(??___flmul+0)+0,w
  7855  0D87  0879               	addwf	(___flmul@grs),f
  7856  0D88  07A9               	movf	1+(??___flmul+0)+0,w
  7857  0D89  087A               	clrz
  7858  0D8A  1103               	skipnc
  7859  0D8B  1803               	addlw	1
  7860  0D8C  3E01               	skipnz
  7861  0D8D  1903               	goto	u3721
  7862  0D8E  2D90               	addwf	(___flmul@grs+1),f
  7863  0D8F  07AA               u3721:
  7864  0D90                     	movf	2+(??___flmul+0)+0,w
  7865  0D90  087B               	clrz
  7866  0D91  1103               	skipnc
  7867  0D92  1803               	addlw	1
  7868  0D93  3E01               	skipnz
  7869  0D94  1903               	goto	u3722
  7870  0D95  2D97               	addwf	(___flmul@grs+2),f
  7871  0D96  07AB               u3722:
  7872  0D97                     	movf	3+(??___flmul+0)+0,w
  7873  0D97  087C               	clrz
  7874  0D98  1103               	skipnc
  7875  0D99  1803               	addlw	1
  7876  0D9A  3E01               	skipnz
  7877  0D9B  1903               	goto	u3723
  7878  0D9C  2D9E               	addwf	(___flmul@grs+3),f
  7879  0D9D  07AC               u3723:
  7880  0D9E                     
  7881                           	line	127
  7882                           	
  7883                           l3082:	
  7884  0D9E                     	movf	0+(___flmul@temp)+01h,w
  7885  0D9E  0834               	movwf	(??___flmul+0)+0
  7886  0D9F  00F9               	clrf	(??___flmul+0)+0+1
  7887  0DA0  01FA               	clrf	(??___flmul+0)+0+2
  7888  0DA1  01FB               	clrf	(??___flmul+0)+0+3
  7889  0DA2  01FC               	movf	0+(??___flmul+0)+0,w
  7890  0DA3  0879               	addwf	(___flmul@prod),f
  7891  0DA4  07AF               	movf	1+(??___flmul+0)+0,w
  7892  0DA5  087A               	clrz
  7893  0DA6  1103               	skipnc
  7894  0DA7  1803               	addlw	1
  7895  0DA8  3E01               	skipnz
  7896  0DA9  1903               	goto	u3731
  7897  0DAA  2DAC               	addwf	(___flmul@prod+1),f
  7898  0DAB  07B0               u3731:
  7899  0DAC                     	movf	2+(??___flmul+0)+0,w
  7900  0DAC  087B               	clrz
  7901  0DAD  1103               	skipnc
  7902  0DAE  1803               	addlw	1
  7903  0DAF  3E01               	skipnz
  7904  0DB0  1903               	goto	u3732
  7905  0DB1  2DB3               	addwf	(___flmul@prod+2),f
  7906  0DB2  07B1               u3732:
  7907  0DB3                     	movf	3+(??___flmul+0)+0,w
  7908  0DB3  087C               	clrz
  7909  0DB4  1103               	skipnc
  7910  0DB5  1803               	addlw	1
  7911  0DB6  3E01               	skipnz
  7912  0DB7  1903               	goto	u3733
  7913  0DB8  2DBA               	addwf	(___flmul@prod+3),f
  7914  0DB9  07B2               u3733:
  7915  0DBA                     
  7916                           	line	128
  7917                           	
  7918                           l3084:	
  7919  0DBA                     	movlw	08h
  7920  0DBA  3008               	movwf	(??___flmul+0)+0
  7921  0DBB  00F9               u3745:
  7922  0DBC                     	clrc
  7923  0DBC  1003               	rlf	(___flmul@grs),f
  7924  0DBD  0DA9               	rlf	(___flmul@grs+1),f
  7925  0DBE  0DAA               	rlf	(___flmul@grs+2),f
  7926  0DBF  0DAB               	rlf	(___flmul@grs+3),f
  7927  0DC0  0DAC               	decfsz	(??___flmul+0)+0
  7928  0DC1  0BF9               	goto	u3745
  7929  0DC2  2DBC               	line	129
  7930                           	
  7931                           l3086:	
  7932  0DC3                     	movf	0+(___flmul@b)+01h,w
  7933  0DC3  0821               	movwf	(??___flmul+0)+0
  7934  0DC4  00F9               	movf	(??___flmul+0)+0,w
  7935  0DC5  0879               	movwf	(__Umul8_16@multiplicand)
  7936  0DC6  00F0               	movf	(___flmul@a),w
  7937  0DC7  0824               	fcall	__Umul8_16
  7938  0DC8  120A  158A  200C  120A  158A  	movf	(1+(?__Umul8_16)),w
  7939  0DCD  0871               	bcf	status, 5	;RP0=0, select bank0
  7940  0DCE  1283               	bcf	status, 6	;RP1=0, select bank0
  7941  0DCF  1303               	movwf	(___flmul@temp+1)
  7942  0DD0  00B4               	movf	(0+(?__Umul8_16)),w
  7943  0DD1  0870               	movwf	(___flmul@temp)
  7944  0DD2  00B3               	line	130
  7945                           	
  7946                           l3088:	
  7947  0DD3                     	movf	(___flmul@temp),w
  7948  0DD3  0833               	movwf	((??___flmul+0)+0)
  7949  0DD4  00F9               	movf	(___flmul@temp+1),w
  7950  0DD5  0834               	movwf	((??___flmul+0)+0+1)
  7951  0DD6  00FA               	clrf	((??___flmul+0)+0+2)
  7952  0DD7  01FB               	clrf	((??___flmul+0)+0+3)
  7953  0DD8  01FC               	movf	0+(??___flmul+0)+0,w
  7954  0DD9  0879               	addwf	(___flmul@grs),f
  7955  0DDA  07A9               	movf	1+(??___flmul+0)+0,w
  7956  0DDB  087A               	clrz
  7957  0DDC  1103               	skipnc
  7958  0DDD  1803               	addlw	1
  7959  0DDE  3E01               	skipnz
  7960  0DDF  1903               	goto	u3751
  7961  0DE0  2DE2               	addwf	(___flmul@grs+1),f
  7962  0DE1  07AA               u3751:
  7963  0DE2                     	movf	2+(??___flmul+0)+0,w
  7964  0DE2  087B               	clrz
  7965  0DE3  1103               	skipnc
  7966  0DE4  1803               	addlw	1
  7967  0DE5  3E01               	skipnz
  7968  0DE6  1903               	goto	u3752
  7969  0DE7  2DE9               	addwf	(___flmul@grs+2),f
  7970  0DE8  07AB               u3752:
  7971  0DE9                     	movf	3+(??___flmul+0)+0,w
  7972  0DE9  087C               	clrz
  7973  0DEA  1103               	skipnc
  7974  0DEB  1803               	addlw	1
  7975  0DEC  3E01               	skipnz
  7976  0DED  1903               	goto	u3753
  7977  0DEE  2DF0               	addwf	(___flmul@grs+3),f
  7978  0DEF  07AC               u3753:
  7979  0DF0                     
  7980                           	line	131
  7981                           	
  7982                           l3090:	
  7983  0DF0                     	movf	(___flmul@b),w
  7984  0DF0  0820               	movwf	(??___flmul+0)+0
  7985  0DF1  00F9               	movf	(??___flmul+0)+0,w
  7986  0DF2  0879               	movwf	(__Umul8_16@multiplicand)
  7987  0DF3  00F0               	movf	0+(___flmul@a)+01h,w
  7988  0DF4  0825               	fcall	__Umul8_16
  7989  0DF5  120A  158A  200C  120A  158A  	movf	(1+(?__Umul8_16)),w
  7990  0DFA  0871               	bcf	status, 5	;RP0=0, select bank0
  7991  0DFB  1283               	bcf	status, 6	;RP1=0, select bank0
  7992  0DFC  1303               	movwf	(___flmul@temp+1)
  7993  0DFD  00B4               	movf	(0+(?__Umul8_16)),w
  7994  0DFE  0870               	movwf	(___flmul@temp)
  7995  0DFF  00B3               	line	132
  7996                           	
  7997                           l3092:	
  7998  0E00                     	movf	(___flmul@temp),w
  7999  0E00  0833               	movwf	((??___flmul+0)+0)
  8000  0E01  00F9               	movf	(___flmul@temp+1),w
  8001  0E02  0834               	movwf	((??___flmul+0)+0+1)
  8002  0E03  00FA               	clrf	((??___flmul+0)+0+2)
  8003  0E04  01FB               	clrf	((??___flmul+0)+0+3)
  8004  0E05  01FC               	movf	0+(??___flmul+0)+0,w
  8005  0E06  0879               	addwf	(___flmul@grs),f
  8006  0E07  07A9               	movf	1+(??___flmul+0)+0,w
  8007  0E08  087A               	clrz
  8008  0E09  1103               	skipnc
  8009  0E0A  1803               	addlw	1
  8010  0E0B  3E01               	skipnz
  8011  0E0C  1903               	goto	u3761
  8012  0E0D  2E0F               	addwf	(___flmul@grs+1),f
  8013  0E0E  07AA               u3761:
  8014  0E0F                     	movf	2+(??___flmul+0)+0,w
  8015  0E0F  087B               	clrz
  8016  0E10  1103               	skipnc
  8017  0E11  1803               	addlw	1
  8018  0E12  3E01               	skipnz
  8019  0E13  1903               	goto	u3762
  8020  0E14  2E16               	addwf	(___flmul@grs+2),f
  8021  0E15  07AB               u3762:
  8022  0E16                     	movf	3+(??___flmul+0)+0,w
  8023  0E16  087C               	clrz
  8024  0E17  1103               	skipnc
  8025  0E18  1803               	addlw	1
  8026  0E19  3E01               	skipnz
  8027  0E1A  1903               	goto	u3763
  8028  0E1B  2E1D               	addwf	(___flmul@grs+3),f
  8029  0E1C  07AC               u3763:
  8030  0E1D                     
  8031                           	line	133
  8032                           	
  8033                           l3094:	
  8034  0E1D                     	movlw	08h
  8035  0E1D  3008               	movwf	(??___flmul+0)+0
  8036  0E1E  00F9               u3775:
  8037  0E1F                     	clrc
  8038  0E1F  1003               	rlf	(___flmul@grs),f
  8039  0E20  0DA9               	rlf	(___flmul@grs+1),f
  8040  0E21  0DAA               	rlf	(___flmul@grs+2),f
  8041  0E22  0DAB               	rlf	(___flmul@grs+3),f
  8042  0E23  0DAC               	decfsz	(??___flmul+0)+0
  8043  0E24  0BF9               	goto	u3775
  8044  0E25  2E1F               	line	134
  8045                           	movf	(___flmul@b),w
  8046  0E26  0820               	movwf	(??___flmul+0)+0
  8047  0E27  00F9               	movf	(??___flmul+0)+0,w
  8048  0E28  0879               	movwf	(__Umul8_16@multiplicand)
  8049  0E29  00F0               	movf	(___flmul@a),w
  8050  0E2A  0824               	fcall	__Umul8_16
  8051  0E2B  120A  158A  200C  120A  158A  	movf	(1+(?__Umul8_16)),w
  8052  0E30  0871               	bcf	status, 5	;RP0=0, select bank0
  8053  0E31  1283               	bcf	status, 6	;RP1=0, select bank0
  8054  0E32  1303               	movwf	(___flmul@temp+1)
  8055  0E33  00B4               	movf	(0+(?__Umul8_16)),w
  8056  0E34  0870               	movwf	(___flmul@temp)
  8057  0E35  00B3               	line	135
  8058                           	
  8059                           l3096:	
  8060  0E36                     	movf	(___flmul@temp),w
  8061  0E36  0833               	movwf	((??___flmul+0)+0)
  8062  0E37  00F9               	movf	(___flmul@temp+1),w
  8063  0E38  0834               	movwf	((??___flmul+0)+0+1)
  8064  0E39  00FA               	clrf	((??___flmul+0)+0+2)
  8065  0E3A  01FB               	clrf	((??___flmul+0)+0+3)
  8066  0E3B  01FC               	movf	0+(??___flmul+0)+0,w
  8067  0E3C  0879               	addwf	(___flmul@grs),f
  8068  0E3D  07A9               	movf	1+(??___flmul+0)+0,w
  8069  0E3E  087A               	clrz
  8070  0E3F  1103               	skipnc
  8071  0E40  1803               	addlw	1
  8072  0E41  3E01               	skipnz
  8073  0E42  1903               	goto	u3781
  8074  0E43  2E45               	addwf	(___flmul@grs+1),f
  8075  0E44  07AA               u3781:
  8076  0E45                     	movf	2+(??___flmul+0)+0,w
  8077  0E45  087B               	clrz
  8078  0E46  1103               	skipnc
  8079  0E47  1803               	addlw	1
  8080  0E48  3E01               	skipnz
  8081  0E49  1903               	goto	u3782
  8082  0E4A  2E4C               	addwf	(___flmul@grs+2),f
  8083  0E4B  07AB               u3782:
  8084  0E4C                     	movf	3+(??___flmul+0)+0,w
  8085  0E4C  087C               	clrz
  8086  0E4D  1103               	skipnc
  8087  0E4E  1803               	addlw	1
  8088  0E4F  3E01               	skipnz
  8089  0E50  1903               	goto	u3783
  8090  0E51  2E53               	addwf	(___flmul@grs+3),f
  8091  0E52  07AC               u3783:
  8092  0E53                     
  8093                           	line	136
  8094                           	
  8095                           l3098:	
  8096  0E53                     	movf	0+(___flmul@b)+01h,w
  8097  0E53  0821               	movwf	(??___flmul+0)+0
  8098  0E54  00F9               	movf	(??___flmul+0)+0,w
  8099  0E55  0879               	movwf	(__Umul8_16@multiplicand)
  8100  0E56  00F0               	movf	0+(___flmul@a)+02h,w
  8101  0E57  0826               	fcall	__Umul8_16
  8102  0E58  120A  158A  200C  120A  158A  	movf	(1+(?__Umul8_16)),w
  8103  0E5D  0871               	bcf	status, 5	;RP0=0, select bank0
  8104  0E5E  1283               	bcf	status, 6	;RP1=0, select bank0
  8105  0E5F  1303               	movwf	(___flmul@temp+1)
  8106  0E60  00B4               	movf	(0+(?__Umul8_16)),w
  8107  0E61  0870               	movwf	(___flmul@temp)
  8108  0E62  00B3               	line	137
  8109                           	movf	(___flmul@temp),w
  8110  0E63  0833               	movwf	((??___flmul+0)+0)
  8111  0E64  00F9               	movf	(___flmul@temp+1),w
  8112  0E65  0834               	movwf	((??___flmul+0)+0+1)
  8113  0E66  00FA               	clrf	((??___flmul+0)+0+2)
  8114  0E67  01FB               	clrf	((??___flmul+0)+0+3)
  8115  0E68  01FC               	movf	0+(??___flmul+0)+0,w
  8116  0E69  0879               	addwf	(___flmul@prod),f
  8117  0E6A  07AF               	movf	1+(??___flmul+0)+0,w
  8118  0E6B  087A               	clrz
  8119  0E6C  1103               	skipnc
  8120  0E6D  1803               	addlw	1
  8121  0E6E  3E01               	skipnz
  8122  0E6F  1903               	goto	u3791
  8123  0E70  2E72               	addwf	(___flmul@prod+1),f
  8124  0E71  07B0               u3791:
  8125  0E72                     	movf	2+(??___flmul+0)+0,w
  8126  0E72  087B               	clrz
  8127  0E73  1103               	skipnc
  8128  0E74  1803               	addlw	1
  8129  0E75  3E01               	skipnz
  8130  0E76  1903               	goto	u3792
  8131  0E77  2E79               	addwf	(___flmul@prod+2),f
  8132  0E78  07B1               u3792:
  8133  0E79                     	movf	3+(??___flmul+0)+0,w
  8134  0E79  087C               	clrz
  8135  0E7A  1103               	skipnc
  8136  0E7B  1803               	addlw	1
  8137  0E7C  3E01               	skipnz
  8138  0E7D  1903               	goto	u3793
  8139  0E7E  2E80               	addwf	(___flmul@prod+3),f
  8140  0E7F  07B2               u3793:
  8141  0E80                     
  8142                           	line	138
  8143                           	
  8144                           l3100:	
  8145  0E80                     	movf	0+(___flmul@b)+02h,w
  8146  0E80  0822               	movwf	(??___flmul+0)+0
  8147  0E81  00F9               	movf	(??___flmul+0)+0,w
  8148  0E82  0879               	movwf	(__Umul8_16@multiplicand)
  8149  0E83  00F0               	movf	0+(___flmul@a)+01h,w
  8150  0E84  0825               	fcall	__Umul8_16
  8151  0E85  120A  158A  200C  120A  158A  	movf	(1+(?__Umul8_16)),w
  8152  0E8A  0871               	bcf	status, 5	;RP0=0, select bank0
  8153  0E8B  1283               	bcf	status, 6	;RP1=0, select bank0
  8154  0E8C  1303               	movwf	(___flmul@temp+1)
  8155  0E8D  00B4               	movf	(0+(?__Umul8_16)),w
  8156  0E8E  0870               	movwf	(___flmul@temp)
  8157  0E8F  00B3               	line	139
  8158                           	
  8159                           l3102:	
  8160  0E90                     	movf	(___flmul@temp),w
  8161  0E90  0833               	movwf	((??___flmul+0)+0)
  8162  0E91  00F9               	movf	(___flmul@temp+1),w
  8163  0E92  0834               	movwf	((??___flmul+0)+0+1)
  8164  0E93  00FA               	clrf	((??___flmul+0)+0+2)
  8165  0E94  01FB               	clrf	((??___flmul+0)+0+3)
  8166  0E95  01FC               	movf	0+(??___flmul+0)+0,w
  8167  0E96  0879               	addwf	(___flmul@prod),f
  8168  0E97  07AF               	movf	1+(??___flmul+0)+0,w
  8169  0E98  087A               	clrz
  8170  0E99  1103               	skipnc
  8171  0E9A  1803               	addlw	1
  8172  0E9B  3E01               	skipnz
  8173  0E9C  1903               	goto	u3801
  8174  0E9D  2E9F               	addwf	(___flmul@prod+1),f
  8175  0E9E  07B0               u3801:
  8176  0E9F                     	movf	2+(??___flmul+0)+0,w
  8177  0E9F  087B               	clrz
  8178  0EA0  1103               	skipnc
  8179  0EA1  1803               	addlw	1
  8180  0EA2  3E01               	skipnz
  8181  0EA3  1903               	goto	u3802
  8182  0EA4  2EA6               	addwf	(___flmul@prod+2),f
  8183  0EA5  07B1               u3802:
  8184  0EA6                     	movf	3+(??___flmul+0)+0,w
  8185  0EA6  087C               	clrz
  8186  0EA7  1103               	skipnc
  8187  0EA8  1803               	addlw	1
  8188  0EA9  3E01               	skipnz
  8189  0EAA  1903               	goto	u3803
  8190  0EAB  2EAD               	addwf	(___flmul@prod+3),f
  8191  0EAC  07B2               u3803:
  8192  0EAD                     
  8193                           	line	140
  8194                           	movf	0+(___flmul@b)+02h,w
  8195  0EAD  0822               	movwf	(??___flmul+0)+0
  8196  0EAE  00F9               	movf	(??___flmul+0)+0,w
  8197  0EAF  0879               	movwf	(__Umul8_16@multiplicand)
  8198  0EB0  00F0               	movf	0+(___flmul@a)+02h,w
  8199  0EB1  0826               	fcall	__Umul8_16
  8200  0EB2  120A  158A  200C  120A  158A  	movf	(1+(?__Umul8_16)),w
  8201  0EB7  0871               	bcf	status, 5	;RP0=0, select bank0
  8202  0EB8  1283               	bcf	status, 6	;RP1=0, select bank0
  8203  0EB9  1303               	movwf	(___flmul@temp+1)
  8204  0EBA  00B4               	movf	(0+(?__Umul8_16)),w
  8205  0EBB  0870               	movwf	(___flmul@temp)
  8206  0EBC  00B3               	line	141
  8207                           	
  8208                           l3104:	
  8209  0EBD                     	movf	(___flmul@temp),w
  8210  0EBD  0833               	movwf	((??___flmul+0)+0)
  8211  0EBE  00F9               	movf	(___flmul@temp+1),w
  8212  0EBF  0834               	movwf	((??___flmul+0)+0+1)
  8213  0EC0  00FA               	clrf	((??___flmul+0)+0+2)
  8214  0EC1  01FB               	clrf	((??___flmul+0)+0+3)
  8215  0EC2  01FC               	movlw	08h
  8216  0EC3  3008               u3815:
  8217  0EC4                     	clrc
  8218  0EC4  1003               	rlf	(??___flmul+0)+0,f
  8219  0EC5  0DF9               	rlf	(??___flmul+0)+1,f
  8220  0EC6  0DFA               	rlf	(??___flmul+0)+2,f
  8221  0EC7  0DFB               	rlf	(??___flmul+0)+3,f
  8222  0EC8  0DFC               u3810:
  8223  0EC9                     	addlw	-1
  8224  0EC9  3EFF               	skipz
  8225  0ECA  1D03               	goto	u3815
  8226  0ECB  2EC4               	movf	0+(??___flmul+0)+0,w
  8227  0ECC  0879               	addwf	(___flmul@prod),f
  8228  0ECD  07AF               	movf	1+(??___flmul+0)+0,w
  8229  0ECE  087A               	clrz
  8230  0ECF  1103               	skipnc
  8231  0ED0  1803               	addlw	1
  8232  0ED1  3E01               	skipnz
  8233  0ED2  1903               	goto	u3821
  8234  0ED3  2ED5               	addwf	(___flmul@prod+1),f
  8235  0ED4  07B0               u3821:
  8236  0ED5                     	movf	2+(??___flmul+0)+0,w
  8237  0ED5  087B               	clrz
  8238  0ED6  1103               	skipnc
  8239  0ED7  1803               	addlw	1
  8240  0ED8  3E01               	skipnz
  8241  0ED9  1903               	goto	u3822
  8242  0EDA  2EDC               	addwf	(___flmul@prod+2),f
  8243  0EDB  07B1               u3822:
  8244  0EDC                     	movf	3+(??___flmul+0)+0,w
  8245  0EDC  087C               	clrz
  8246  0EDD  1103               	skipnc
  8247  0EDE  1803               	addlw	1
  8248  0EDF  3E01               	skipnz
  8249  0EE0  1903               	goto	u3823
  8250  0EE1  2EE3               	addwf	(___flmul@prod+3),f
  8251  0EE2  07B2               u3823:
  8252  0EE3                     
  8253                           	line	145
  8254                           	
  8255                           l3106:	
  8256  0EE3                     	movf	(___flmul@grs),w
  8257  0EE3  0829               	movwf	(??___flmul+0)+0
  8258  0EE4  00F9               	movf	(___flmul@grs+1),w
  8259  0EE5  082A               	movwf	((??___flmul+0)+0+1)
  8260  0EE6  00FA               	movf	(___flmul@grs+2),w
  8261  0EE7  082B               	movwf	((??___flmul+0)+0+2)
  8262  0EE8  00FB               	movf	(___flmul@grs+3),w
  8263  0EE9  082C               	movwf	((??___flmul+0)+0+3)
  8264  0EEA  00FC               	movlw	018h
  8265  0EEB  3018               u3835:
  8266  0EEC                     	clrc
  8267  0EEC  1003               	rrf	(??___flmul+0)+3,f
  8268  0EED  0CFC               	rrf	(??___flmul+0)+2,f
  8269  0EEE  0CFB               	rrf	(??___flmul+0)+1,f
  8270  0EEF  0CFA               	rrf	(??___flmul+0)+0,f
  8271  0EF0  0CF9               u3830:
  8272  0EF1                     	addlw	-1
  8273  0EF1  3EFF               	skipz
  8274  0EF2  1D03               	goto	u3835
  8275  0EF3  2EEC               	movf	0+(??___flmul+0)+0,w
  8276  0EF4  0879               	addwf	(___flmul@prod),f
  8277  0EF5  07AF               	movf	1+(??___flmul+0)+0,w
  8278  0EF6  087A               	clrz
  8279  0EF7  1103               	skipnc
  8280  0EF8  1803               	addlw	1
  8281  0EF9  3E01               	skipnz
  8282  0EFA  1903               	goto	u3841
  8283  0EFB  2EFD               	addwf	(___flmul@prod+1),f
  8284  0EFC  07B0               u3841:
  8285  0EFD                     	movf	2+(??___flmul+0)+0,w
  8286  0EFD  087B               	clrz
  8287  0EFE  1103               	skipnc
  8288  0EFF  1803               	addlw	1
  8289  0F00  3E01               	skipnz
  8290  0F01  1903               	goto	u3842
  8291  0F02  2F04               	addwf	(___flmul@prod+2),f
  8292  0F03  07B1               u3842:
  8293  0F04                     	movf	3+(??___flmul+0)+0,w
  8294  0F04  087C               	clrz
  8295  0F05  1103               	skipnc
  8296  0F06  1803               	addlw	1
  8297  0F07  3E01               	skipnz
  8298  0F08  1903               	goto	u3843
  8299  0F09  2F0B               	addwf	(___flmul@prod+3),f
  8300  0F0A  07B2               u3843:
  8301  0F0B                     
  8302                           	line	146
  8303                           	
  8304                           l3108:	
  8305  0F0B                     	movlw	08h
  8306  0F0B  3008               	movwf	(??___flmul+0)+0
  8307  0F0C  00F9               u3855:
  8308  0F0D                     	clrc
  8309  0F0D  1003               	rlf	(___flmul@grs),f
  8310  0F0E  0DA9               	rlf	(___flmul@grs+1),f
  8311  0F0F  0DAA               	rlf	(___flmul@grs+2),f
  8312  0F10  0DAB               	rlf	(___flmul@grs+3),f
  8313  0F11  0DAC               	decfsz	(??___flmul+0)+0
  8314  0F12  0BF9               	goto	u3855
  8315  0F13  2F0D               	line	149
  8316                           	
  8317                           l3110:	
  8318  0F14                     	movf	(___flmul@bexp),w
  8319  0F14  082E               	addwf	(___flmul@aexp),w
  8320  0F15  072D               	movwf	(??___flmul+0)+0
  8321  0F16  00F9               	clrf	(??___flmul+0)+0+1
  8322  0F17  01FA               	rlf	1+(??___flmul+0)+0,f
  8323  0F18  0DFA               	
  8324                           	movf	0+(??___flmul+0)+0,w
  8325  0F19  0879               	addlw	low(-126)
  8326  0F1A  3E82               	movwf	(___flmul@temp)
  8327  0F1B  00B3               	movf	1+(??___flmul+0)+0,w
  8328  0F1C  087A               	skipnc
  8329  0F1D  1803               	addlw	1
  8330  0F1E  3E01               	addlw	high(-126)
  8331  0F1F  3EFF               	movwf	1+(___flmul@temp)
  8332  0F20  00B4               	line	152
  8333                           	goto	l3122
  8334  0F21  2F41               	
  8335                           l668:	
  8336  0F22                     	line	153
  8337                           	
  8338                           l3112:	
  8339  0F22                     	movlw	01h
  8340  0F22  3001               	movwf	(??___flmul+0)+0
  8341  0F23  00F9               u3865:
  8342  0F24                     	clrc
  8343  0F24  1003               	rlf	(___flmul@prod),f
  8344  0F25  0DAF               	rlf	(___flmul@prod+1),f
  8345  0F26  0DB0               	rlf	(___flmul@prod+2),f
  8346  0F27  0DB1               	rlf	(___flmul@prod+3),f
  8347  0F28  0DB2               	decfsz	(??___flmul+0)+0
  8348  0F29  0BF9               	goto	u3865
  8349  0F2A  2F24               	line	154
  8350                           	
  8351                           l3114:	
  8352  0F2B                     	btfss	(___flmul@grs+3),(31)&7
  8353  0F2B  1FAC               	goto	u3871
  8354  0F2C  2F2E               	goto	u3870
  8355  0F2D  2F2F               u3871:
  8356  0F2E                     	goto	l3118
  8357  0F2E  2F31               u3870:
  8358  0F2F                     	line	155
  8359                           	
  8360                           l3116:	
  8361  0F2F                     	bsf	(___flmul@prod)+(0/8),(0)&7
  8362  0F2F  142F               	goto	l3118
  8363  0F30  2F31               	line	156
  8364                           	
  8365                           l669:	
  8366  0F31                     	line	157
  8367                           	
  8368                           l3118:	
  8369  0F31                     	movlw	01h
  8370  0F31  3001               	movwf	(??___flmul+0)+0
  8371  0F32  00F9               u3885:
  8372  0F33                     	clrc
  8373  0F33  1003               	rlf	(___flmul@grs),f
  8374  0F34  0DA9               	rlf	(___flmul@grs+1),f
  8375  0F35  0DAA               	rlf	(___flmul@grs+2),f
  8376  0F36  0DAB               	rlf	(___flmul@grs+3),f
  8377  0F37  0DAC               	decfsz	(??___flmul+0)+0
  8378  0F38  0BF9               	goto	u3885
  8379  0F39  2F33               	line	158
  8380                           	
  8381                           l3120:	
  8382  0F3A                     	movlw	0FFh
  8383  0F3A  30FF               	addwf	(___flmul@temp),f
  8384  0F3B  07B3               	skipnc
  8385  0F3C  1803               	incf	(___flmul@temp+1),f
  8386  0F3D  0AB4               	movlw	0FFh
  8387  0F3E  30FF               	addwf	(___flmul@temp+1),f
  8388  0F3F  07B4               	goto	l3122
  8389  0F40  2F41               	line	159
  8390                           	
  8391                           l667:	
  8392  0F41                     	line	152
  8393                           	
  8394                           l3122:	
  8395  0F41                     	btfss	(___flmul@prod+2),(23)&7
  8396  0F41  1FB1               	goto	u3891
  8397  0F42  2F44               	goto	u3890
  8398  0F43  2F45               u3891:
  8399  0F44                     	goto	l3112
  8400  0F44  2F22               u3890:
  8401  0F45                     	goto	l3124
  8402  0F45  2F46               	
  8403                           l670:	
  8404  0F46                     	line	163
  8405                           	
  8406                           l3124:	
  8407  0F46                     	clrf	(___flmul@aexp)
  8408  0F46  01AD               	line	164
  8409                           	
  8410                           l3126:	
  8411  0F47                     	btfss	(___flmul@grs+3),(31)&7
  8412  0F47  1FAC               	goto	u3901
  8413  0F48  2F4A               	goto	u3900
  8414  0F49  2F4B               u3901:
  8415  0F4A                     	goto	l3134
  8416  0F4A  2F6B               u3900:
  8417  0F4B                     	line	165
  8418                           	
  8419                           l3128:	
  8420  0F4B                     	movlw	0FFh
  8421  0F4B  30FF               	andwf	(___flmul@grs),w
  8422  0F4C  0529               	movwf	(??___flmul+0)+0
  8423  0F4D  00F9               	movlw	0FFh
  8424  0F4E  30FF               	andwf	(___flmul@grs+1),w
  8425  0F4F  052A               	movwf	((??___flmul+0)+0+1)
  8426  0F50  00FA               	movlw	0FFh
  8427  0F51  30FF               	andwf	(___flmul@grs+2),w
  8428  0F52  052B               	movwf	((??___flmul+0)+0+2)
  8429  0F53  00FB               	movlw	07Fh
  8430  0F54  307F               	andwf	(___flmul@grs+3),w
  8431  0F55  052C               	movwf	((??___flmul+0)+0+3)
  8432  0F56  00FC               	movf	3+(??___flmul+0)+0,w
  8433  0F57  087C               	iorwf	2+(??___flmul+0)+0,w
  8434  0F58  047B               	iorwf	1+(??___flmul+0)+0,w
  8435  0F59  047A               	iorwf	0+(??___flmul+0)+0,w
  8436  0F5A  0479               	skipnz
  8437  0F5B  1903               	goto	u3911
  8438  0F5C  2F5E               	goto	u3910
  8439  0F5D  2F5F               u3911:
  8440  0F5E                     	goto	l672
  8441  0F5E  2F62               u3910:
  8442  0F5F                     	line	166
  8443                           	
  8444                           l3130:	
  8445  0F5F                     	clrf	(___flmul@aexp)
  8446  0F5F  01AD               	incf	(___flmul@aexp),f
  8447  0F60  0AAD               	line	167
  8448                           	goto	l3134
  8449  0F61  2F6B               	line	168
  8450                           	
  8451                           l672:	
  8452  0F62                     	line	169
  8453                           	btfss	(___flmul@prod),(0)&7
  8454  0F62  1C2F               	goto	u3921
  8455  0F63  2F65               	goto	u3920
  8456  0F64  2F66               u3921:
  8457  0F65                     	goto	l3134
  8458  0F65  2F6B               u3920:
  8459  0F66                     	line	170
  8460                           	
  8461                           l3132:	
  8462  0F66                     	clrf	(___flmul@aexp)
  8463  0F66  01AD               	incf	(___flmul@aexp),f
  8464  0F67  0AAD               	goto	l3134
  8465  0F68  2F6B               	line	171
  8466                           	
  8467                           l674:	
  8468  0F69                     	goto	l3134
  8469  0F69  2F6B               	line	172
  8470                           	
  8471                           l673:	
  8472  0F6A                     	goto	l3134
  8473  0F6A  2F6B               	line	173
  8474                           	
  8475                           l671:	
  8476  0F6B                     	line	174
  8477                           	
  8478                           l3134:	
  8479  0F6B                     	movf	((___flmul@aexp)),w
  8480  0F6B  082D               	btfsc	status,2
  8481  0F6C  1903               	goto	u3931
  8482  0F6D  2F6F               	goto	u3930
  8483  0F6E  2F70               u3931:
  8484  0F6F                     	goto	l3144
  8485  0F6F  2FA3               u3930:
  8486  0F70                     	line	175
  8487                           	
  8488                           l3136:	
  8489  0F70                     	movlw	01h
  8490  0F70  3001               	addwf	(___flmul@prod),f
  8491  0F71  07AF               	movlw	0
  8492  0F72  3000               	skipnc
  8493  0F73  1803               movlw 1
  8494  0F74  3001               	addwf	(___flmul@prod+1),f
  8495  0F75  07B0               	movlw	0
  8496  0F76  3000               	skipnc
  8497  0F77  1803               movlw 1
  8498  0F78  3001               	addwf	(___flmul@prod+2),f
  8499  0F79  07B1               	movlw	0
  8500  0F7A  3000               	skipnc
  8501  0F7B  1803               movlw 1
  8502  0F7C  3001               	addwf	(___flmul@prod+3),f
  8503  0F7D  07B2               	line	176
  8504                           	
  8505                           l3138:	
  8506  0F7E                     	btfss	(___flmul@prod+3),(24)&7
  8507  0F7E  1C32               	goto	u3941
  8508  0F7F  2F81               	goto	u3940
  8509  0F80  2F82               u3941:
  8510  0F81                     	goto	l3144
  8511  0F81  2FA3               u3940:
  8512  0F82                     	line	177
  8513                           	
  8514                           l3140:	
  8515  0F82                     	movf	(___flmul@prod),w
  8516  0F82  082F               	movwf	(??___flmul+0)+0
  8517  0F83  00F9               	movf	(___flmul@prod+1),w
  8518  0F84  0830               	movwf	((??___flmul+0)+0+1)
  8519  0F85  00FA               	movf	(___flmul@prod+2),w
  8520  0F86  0831               	movwf	((??___flmul+0)+0+2)
  8521  0F87  00FB               	movf	(___flmul@prod+3),w
  8522  0F88  0832               	movwf	((??___flmul+0)+0+3)
  8523  0F89  00FC               	movlw	01h
  8524  0F8A  3001               	movwf	(??___flmul+4)+0
  8525  0F8B  00FD               u3955:
  8526  0F8C                     	rlf	(??___flmul+0)+3,w
  8527  0F8C  0D7C               	rrf	(??___flmul+0)+3,f
  8528  0F8D  0CFC               	rrf	(??___flmul+0)+2,f
  8529  0F8E  0CFB               	rrf	(??___flmul+0)+1,f
  8530  0F8F  0CFA               	rrf	(??___flmul+0)+0,f
  8531  0F90  0CF9               u3950:
  8532  0F91                     	decfsz	(??___flmul+4)+0,f
  8533  0F91  0BFD               	goto	u3955
  8534  0F92  2F8C               	movf	3+(??___flmul+0)+0,w
  8535  0F93  087C               	movwf	(___flmul@prod+3)
  8536  0F94  00B2               	movf	2+(??___flmul+0)+0,w
  8537  0F95  087B               	movwf	(___flmul@prod+2)
  8538  0F96  00B1               	movf	1+(??___flmul+0)+0,w
  8539  0F97  087A               	movwf	(___flmul@prod+1)
  8540  0F98  00B0               	movf	0+(??___flmul+0)+0,w
  8541  0F99  0879               	movwf	(___flmul@prod)
  8542  0F9A  00AF               
  8543                           	line	178
  8544                           	
  8545                           l3142:	
  8546  0F9B                     	movlw	01h
  8547  0F9B  3001               	addwf	(___flmul@temp),f
  8548  0F9C  07B3               	skipnc
  8549  0F9D  1803               	incf	(___flmul@temp+1),f
  8550  0F9E  0AB4               	movlw	0
  8551  0F9F  3000               	addwf	(___flmul@temp+1),f
  8552  0FA0  07B4               	goto	l3144
  8553  0FA1  2FA3               	line	179
  8554                           	
  8555                           l676:	
  8556  0FA2                     	goto	l3144
  8557  0FA2  2FA3               	line	180
  8558                           	
  8559                           l675:	
  8560  0FA3                     	line	183
  8561                           	
  8562                           l3144:	
  8563  0FA3                     	movf	(___flmul@temp+1),w
  8564  0FA3  0834               	xorlw	80h
  8565  0FA4  3A80               	movwf	btemp+1
  8566  0FA5  00FF               	movlw	(0)^80h
  8567  0FA6  3080               	subwf	btemp+1,w
  8568  0FA7  027F               	skipz
  8569  0FA8  1D03               	goto	u3965
  8570  0FA9  2FAC               	movlw	0FFh
  8571  0FAA  30FF               	subwf	(___flmul@temp),w
  8572  0FAB  0233               u3965:
  8573  0FAC                     
  8574                           	skipc
  8575  0FAC  1C03               	goto	u3961
  8576  0FAD  2FAF               	goto	u3960
  8577  0FAE  2FB0               u3961:
  8578  0FAF                     	goto	l3148
  8579  0FAF  2FBB               u3960:
  8580  0FB0                     	line	184
  8581                           	
  8582                           l3146:	
  8583  0FB0                     	movlw	07Fh
  8584  0FB0  307F               	bcf	status, 5	;RP0=0, select bank0
  8585  0FB1  1283               	bcf	status, 6	;RP1=0, select bank0
  8586  0FB2  1303               	movwf	(___flmul@prod+3)
  8587  0FB3  00B2               	movlw	080h
  8588  0FB4  3080               	movwf	(___flmul@prod+2)
  8589  0FB5  00B1               	movlw	0
  8590  0FB6  3000               	movwf	(___flmul@prod+1)
  8591  0FB7  00B0               	movlw	0
  8592  0FB8  3000               	movwf	(___flmul@prod)
  8593  0FB9  00AF               
  8594                           	line	185
  8595                           	goto	l678
  8596  0FBA  2FF2               	line	187
  8597                           	
  8598                           l677:	
  8599  0FBB                     	
  8600                           l3148:	
  8601  0FBB                     	bcf	status, 5	;RP0=0, select bank0
  8602  0FBB  1283               	bcf	status, 6	;RP1=0, select bank0
  8603  0FBC  1303               	movf	(___flmul@temp+1),w
  8604  0FBD  0834               	xorlw	80h
  8605  0FBE  3A80               	movwf	btemp+1
  8606  0FBF  00FF               	movlw	(0)^80h
  8607  0FC0  3080               	subwf	btemp+1,w
  8608  0FC1  027F               	skipz
  8609  0FC2  1D03               	goto	u3975
  8610  0FC3  2FC6               	movlw	01h
  8611  0FC4  3001               	subwf	(___flmul@temp),w
  8612  0FC5  0233               u3975:
  8613  0FC6                     
  8614                           	skipnc
  8615  0FC6  1803               	goto	u3971
  8616  0FC7  2FC9               	goto	u3970
  8617  0FC8  2FCA               u3971:
  8618  0FC9                     	goto	l3154
  8619  0FC9  2FD6               u3970:
  8620  0FCA                     	line	188
  8621                           	
  8622                           l3150:	
  8623  0FCA                     	movlw	high highword(0)
  8624  0FCA  3000               	bcf	status, 5	;RP0=0, select bank0
  8625  0FCB  1283               	bcf	status, 6	;RP1=0, select bank0
  8626  0FCC  1303               	movwf	(___flmul@prod+3)
  8627  0FCD  00B2               	movlw	low highword(0)
  8628  0FCE  3000               	movwf	(___flmul@prod+2)
  8629  0FCF  00B1               	movlw	high(0)
  8630  0FD0  3000               	movwf	(___flmul@prod+1)
  8631  0FD1  00B0               	movlw	low(0)
  8632  0FD2  3000               	movwf	(___flmul@prod)
  8633  0FD3  00AF               
  8634                           	line	190
  8635                           	
  8636                           l3152:	
  8637  0FD4                     	clrf	(___flmul@sign)
  8638  0FD4  01A8               	line	191
  8639                           	goto	l678
  8640  0FD5  2FF2               	line	192
  8641                           	
  8642                           l679:	
  8643  0FD6                     	line	194
  8644                           	
  8645                           l3154:	
  8646  0FD6                     	bcf	status, 5	;RP0=0, select bank0
  8647  0FD6  1283               	bcf	status, 6	;RP1=0, select bank0
  8648  0FD7  1303               	movf	(___flmul@temp),w
  8649  0FD8  0833               	movwf	(??___flmul+0)+0
  8650  0FD9  00F9               	movf	(??___flmul+0)+0,w
  8651  0FDA  0879               	movwf	(___flmul@bexp)
  8652  0FDB  00AE               	line	195
  8653                           	movlw	0FFh
  8654  0FDC  30FF               	andwf	(___flmul@prod),f
  8655  0FDD  05AF               	movlw	0FFh
  8656  0FDE  30FF               	andwf	(___flmul@prod+1),f
  8657  0FDF  05B0               	movlw	07Fh
  8658  0FE0  307F               	andwf	(___flmul@prod+2),f
  8659  0FE1  05B1               	movlw	0
  8660  0FE2  3000               	andwf	(___flmul@prod+3),f
  8661  0FE3  05B2               	line	196
  8662                           	
  8663                           l3156:	
  8664  0FE4                     	btfss	(___flmul@bexp),(0)&7
  8665  0FE4  1C2E               	goto	u3981
  8666  0FE5  2FE7               	goto	u3980
  8667  0FE6  2FE8               u3981:
  8668  0FE7                     	goto	l3160
  8669  0FE7  2FEA               u3980:
  8670  0FE8                     	line	197
  8671                           	
  8672                           l3158:	
  8673  0FE8                     	bsf	0+(___flmul@prod)+02h+(7/8),(7)&7
  8674  0FE8  17B1               	goto	l3160
  8675  0FE9  2FEA               	line	198
  8676                           	
  8677                           l681:	
  8678  0FEA                     	line	199
  8679                           	
  8680                           l3160:	
  8681  0FEA                     	movf	(___flmul@bexp),w
  8682  0FEA  082E               	movwf	(??___flmul+0)+0
  8683  0FEB  00F9               	clrc
  8684  0FEC  1003               	rrf	(??___flmul+0)+0,w
  8685  0FED  0C79               	movwf	(??___flmul+1)+0
  8686  0FEE  00FA               	movf	(??___flmul+1)+0,w
  8687  0FEF  087A               	movwf	0+(___flmul@prod)+03h
  8688  0FF0  00B2               	goto	l678
  8689  0FF1  2FF2               	line	200
  8690                           	
  8691                           l680:	
  8692  0FF2                     	
  8693                           l678:	
  8694  0FF2                     	line	201
  8695                           	movf	(___flmul@sign),w
  8696  0FF2  0828               	movwf	(??___flmul+0)+0
  8697  0FF3  00F9               	movf	(??___flmul+0)+0,w
  8698  0FF4  0879               	iorwf	0+(___flmul@prod)+03h,f
  8699  0FF5  04B2               	line	203
  8700                           	
  8701                           l3162:	
  8702  0FF6                     	movf	(___flmul@prod+3),w
  8703  0FF6  0832               	movwf	(?___flmul+3)
  8704  0FF7  00A3               	movf	(___flmul@prod+2),w
  8705  0FF8  0831               	movwf	(?___flmul+2)
  8706  0FF9  00A2               	movf	(___flmul@prod+1),w
  8707  0FFA  0830               	movwf	(?___flmul+1)
  8708  0FFB  00A1               	movf	(___flmul@prod),w
  8709  0FFC  082F               	movwf	(?___flmul)
  8710  0FFD  00A0               
  8711                           	goto	l666
  8712  0FFE  2FFF               	
  8713                           l3164:	
  8714  0FFF                     	line	205
  8715                           	
  8716                           l666:	
  8717  0FFF                     	return
  8718  0FFF  0008               	opt stack 0
  8719                           GLOBAL	__end_of___flmul
  8720                           	__end_of___flmul:
  8721  1000                     	signat	___flmul,8316
  8722                           	global	__Umul8_16
  8723                           
  8724 ;; *************** function __Umul8_16 *****************
  8725 ;; Defined at:
  8726 ;;		line 4 in file "C:\Program Files (x86)\Microchip\xc8\v2.00\pic\sources\c90\common\Umul8_16.c"
  8727 ;; Parameters:    Size  Location     Type
  8728 ;;  multiplier      1    wreg     unsigned char 
  8729 ;;  multiplicand    1    0[COMMON] unsigned char 
  8730 ;; Auto vars:     Size  Location     Type
  8731 ;;  multiplier      1    8[COMMON] unsigned char 
  8732 ;;  word_mpld       2    6[COMMON] unsigned int 
  8733 ;;  product         2    4[COMMON] unsigned int 
  8734 ;; Return value:  Size  Location     Type
  8735 ;;                  2    0[COMMON] unsigned int 
  8736 ;; Registers used:
  8737 ;;		wreg, status,2, status,0
  8738 ;; Tracked objects:
  8739 ;;		On entry : 0/0
  8740 ;;		On exit  : 0/0
  8741 ;;		Unchanged: 0/0
  8742 ;; Data sizes:     COMMON   BANK0   BANK1   BANK3   BANK2
  8743 ;;      Params:         2       0       0       0       0
  8744 ;;      Locals:         5       0       0       0       0
  8745 ;;      Temps:          2       0       0       0       0
  8746 ;;      Totals:         9       0       0       0       0
  8747 ;;Total ram usage:        9 bytes
  8748 ;; Hardware stack levels used:    1
  8749 ;; This function calls:
  8750 ;;		Nothing
  8751 ;; This function is called by:
  8752 ;;		___flmul
  8753 ;; This function uses a non-reentrant model
  8754 ;;
  8755                           psect	text12,local,class=CODE,delta=2,merge=1,group=1
  8756                           	file	"C:\Program Files (x86)\Microchip\xc8\v2.00\pic\sources\c90\common\Umul8_16.c"
  8757                           	line	4
  8758                           global __ptext12
  8759                           __ptext12:	;psect for function __Umul8_16
  8760  080C                     psect	text12
  8761                           	file	"C:\Program Files (x86)\Microchip\xc8\v2.00\pic\sources\c90\common\Umul8_16.c"
  8762                           	line	4
  8763                           	global	__size_of__Umul8_16
  8764                           	__size_of__Umul8_16	equ	__end_of__Umul8_16-__Umul8_16
  8765  002A                     	
  8766                           __Umul8_16:	
  8767  080C                     ;incstack = 0
  8768                           	opt	stack 6
  8769                           ; Regs used in __Umul8_16: [wreg+status,2+status,0]
  8770                           ;__Umul8_16@multiplier stored from wreg
  8771                           	movwf	(__Umul8_16@multiplier)
  8772  080C  00F8               	line	5
  8773                           	
  8774                           l2456:	
  8775  080D                     	clrf	(__Umul8_16@product)
  8776  080D  01F4               	clrf	(__Umul8_16@product+1)
  8777  080E  01F5               	line	6
  8778                           	
  8779                           l2458:	
  8780  080F                     	movf	(__Umul8_16@multiplicand),w
  8781  080F  0870               	movwf	(??__Umul8_16+0)+0
  8782  0810  00F2               	clrf	(??__Umul8_16+0)+0+1
  8783  0811  01F3               	movf	0+(??__Umul8_16+0)+0,w
  8784  0812  0872               	movwf	(__Umul8_16@word_mpld)
  8785  0813  00F6               	movf	1+(??__Umul8_16+0)+0,w
  8786  0814  0873               	movwf	(__Umul8_16@word_mpld+1)
  8787  0815  00F7               	goto	l2460
  8788  0816  2817               	line	50
  8789                           	
  8790                           l719:	
  8791  0817                     	line	51
  8792                           	
  8793                           l2460:	
  8794  0817                     	btfss	(__Umul8_16@multiplier),(0)&7
  8795  0817  1C78               	goto	u2411
  8796  0818  281A               	goto	u2410
  8797  0819  281B               u2411:
  8798  081A                     	goto	l720
  8799  081A  2821               u2410:
  8800  081B                     	line	52
  8801                           	
  8802                           l2462:	
  8803  081B                     	movf	(__Umul8_16@word_mpld),w
  8804  081B  0876               	addwf	(__Umul8_16@product),f
  8805  081C  07F4               	skipnc
  8806  081D  1803               	incf	(__Umul8_16@product+1),f
  8807  081E  0AF5               	movf	(__Umul8_16@word_mpld+1),w
  8808  081F  0877               	addwf	(__Umul8_16@product+1),f
  8809  0820  07F5               	line	53
  8810                           	
  8811                           l720:	
  8812  0821                     	line	54
  8813                           	movlw	01h
  8814  0821  3001               	
  8815                           u2425:
  8816  0822                     	clrc
  8817  0822  1003               	rlf	(__Umul8_16@word_mpld),f
  8818  0823  0DF6               	rlf	(__Umul8_16@word_mpld+1),f
  8819  0824  0DF7               	addlw	-1
  8820  0825  3EFF               	skipz
  8821  0826  1D03               	goto	u2425
  8822  0827  2822               	line	55
  8823                           	clrc
  8824  0828  1003               	rrf	(__Umul8_16@multiplier),f
  8825  0829  0CF8               
  8826                           	line	56
  8827                           	
  8828                           l2464:	
  8829  082A                     	movf	((__Umul8_16@multiplier)),w
  8830  082A  0878               	btfss	status,2
  8831  082B  1D03               	goto	u2431
  8832  082C  282E               	goto	u2430
  8833  082D  282F               u2431:
  8834  082E                     	goto	l2460
  8835  082E  2817               u2430:
  8836  082F                     	goto	l2466
  8837  082F  2830               	
  8838                           l721:	
  8839  0830                     	line	59
  8840                           	
  8841                           l2466:	
  8842  0830                     	movf	(__Umul8_16@product+1),w
  8843  0830  0875               	movwf	(?__Umul8_16+1)
  8844  0831  00F1               	movf	(__Umul8_16@product),w
  8845  0832  0874               	movwf	(?__Umul8_16)
  8846  0833  00F0               	goto	l722
  8847  0834  2835               	
  8848                           l2468:	
  8849  0835                     	line	60
  8850                           	
  8851                           l722:	
  8852  0835                     	return
  8853  0835  0008               	opt stack 0
  8854                           GLOBAL	__end_of__Umul8_16
  8855                           	__end_of__Umul8_16:
  8856  0836                     	signat	__Umul8_16,8314
  8857                           	global	___fldiv
  8858                           
  8859 ;; *************** function ___fldiv *****************
  8860 ;; Defined at:
  8861 ;;		line 8 in file "C:\Program Files (x86)\Microchip\xc8\v2.00\pic\sources\c90\common\sprcdiv.c"
  8862 ;; Parameters:    Size  Location     Type
  8863 ;;  a               4    0[COMMON] unsigned int 
  8864 ;;  b               4    4[COMMON] unsigned int 
  8865 ;; Auto vars:     Size  Location     Type
  8866 ;;  grs             4    7[BANK0 ] unsigned long 
  8867 ;;  rem             4    0[BANK0 ] unsigned long 
  8868 ;;  new_exp         2    5[BANK0 ] int 
  8869 ;;  aexp            1   12[BANK0 ] unsigned char 
  8870 ;;  bexp            1   11[BANK0 ] unsigned char 
  8871 ;;  sign            1    4[BANK0 ] unsigned char 
  8872 ;; Return value:  Size  Location     Type
  8873 ;;                  4    0[COMMON] unsigned char 
  8874 ;; Registers used:
  8875 ;;		wreg, status,2, status,0, btemp+1
  8876 ;; Tracked objects:
  8877 ;;		On entry : 0/0
  8878 ;;		On exit  : 0/0
  8879 ;;		Unchanged: 0/0
  8880 ;; Data sizes:     COMMON   BANK0   BANK1   BANK3   BANK2
  8881 ;;      Params:         8       0       0       0       0
  8882 ;;      Locals:         0      13       0       0       0
  8883 ;;      Temps:          5       0       0       0       0
  8884 ;;      Totals:        13      13       0       0       0
  8885 ;;Total ram usage:       26 bytes
  8886 ;; Hardware stack levels used:    1
  8887 ;; This function calls:
  8888 ;;		Nothing
  8889 ;; This function is called by:
  8890 ;;		_main
  8891 ;; This function uses a non-reentrant model
  8892 ;;
  8893                           psect	text13,local,class=CODE,delta=2,merge=1,group=1
  8894                           	file	"C:\Program Files (x86)\Microchip\xc8\v2.00\pic\sources\c90\common\sprcdiv.c"
  8895                           	line	8
  8896                           global __ptext13
  8897                           __ptext13:	;psect for function ___fldiv
  8898  1345                     psect	text13
  8899                           	file	"C:\Program Files (x86)\Microchip\xc8\v2.00\pic\sources\c90\common\sprcdiv.c"
  8900                           	line	8
  8901                           	global	__size_of___fldiv
  8902                           	__size_of___fldiv	equ	__end_of___fldiv-___fldiv
  8903  020F                     	
  8904                           ___fldiv:	
  8905  1345                     ;incstack = 0
  8906                           	opt	stack 7
  8907                           ; Regs used in ___fldiv: [wreg+status,2+status,0+btemp+1]
  8908                           	line	26
  8909                           	
  8910                           l2884:	
  8911  1345                     	movf	0+(___fldiv@b)+03h,w
  8912  1345  0877               	andlw	080h
  8913  1346  3980               	movwf	(??___fldiv+0)+0
  8914  1347  00F8               	movf	(??___fldiv+0)+0,w
  8915  1348  0878               	bcf	status, 5	;RP0=0, select bank0
  8916  1349  1283               	bcf	status, 6	;RP1=0, select bank0
  8917  134A  1303               	movwf	(___fldiv@sign)
  8918  134B  00A4               	line	27
  8919                           	
  8920                           l2886:	
  8921  134C                     	movf	0+(___fldiv@b)+03h,w
  8922  134C  0877               	movwf	(??___fldiv+0)+0
  8923  134D  00F8               	addwf	(??___fldiv+0)+0,w
  8924  134E  0778               	movwf	(??___fldiv+1)+0
  8925  134F  00F9               	movf	(??___fldiv+1)+0,w
  8926  1350  0879               	movwf	(___fldiv@bexp)
  8927  1351  00AB               	line	28
  8928                           	
  8929                           l2888:	
  8930  1352                     	btfss	0+(___fldiv@b)+02h,(7)&7
  8931  1352  1FF6               	goto	u3321
  8932  1353  2B55               	goto	u3320
  8933  1354  2B56               u3321:
  8934  1355                     	goto	l2892
  8935  1355  2B58               u3320:
  8936  1356                     	line	29
  8937                           	
  8938                           l2890:	
  8939  1356                     	bsf	(___fldiv@bexp)+(0/8),(0)&7
  8940  1356  142B               	goto	l2892
  8941  1357  2B58               	line	30
  8942                           	
  8943                           l619:	
  8944  1358                     	line	33
  8945                           	
  8946                           l2892:	
  8947  1358                     	movf	((___fldiv@bexp)),w
  8948  1358  082B               	btfsc	status,2
  8949  1359  1903               	goto	u3331
  8950  135A  2B5C               	goto	u3330
  8951  135B  2B5D               u3331:
  8952  135C                     	goto	l2902
  8953  135C  2B6E               u3330:
  8954  135D                     	line	35
  8955                           	
  8956                           l2894:	
  8957  135D                     		incf	((___fldiv@bexp)),w
  8958  135D  0A2B               	btfss	status,2
  8959  135E  1D03               	goto	u3341
  8960  135F  2B61               	goto	u3340
  8961  1360  2B62               u3341:
  8962  1361                     	goto	l2898
  8963  1361  2B6B               u3340:
  8964  1362                     	line	37
  8965                           	
  8966                           l2896:	
  8967  1362                     	movlw	0x0
  8968  1362  3000               	movwf	(___fldiv@b+3)
  8969  1363  00F7               	movlw	0x0
  8970  1364  3000               	movwf	(___fldiv@b+2)
  8971  1365  00F6               	movlw	0x0
  8972  1366  3000               	movwf	(___fldiv@b+1)
  8973  1367  00F5               	movlw	0x0
  8974  1368  3000               	movwf	(___fldiv@b)
  8975  1369  00F4               
  8976                           	goto	l2898
  8977  136A  2B6B               	line	38
  8978                           	
  8979                           l621:	
  8980  136B                     	line	40
  8981                           	
  8982                           l2898:	
  8983  136B                     	bsf	(___fldiv@b)+(23/8),(23)&7
  8984  136B  17F6               	line	42
  8985                           	
  8986                           l2900:	
  8987  136C                     	clrf	0+(___fldiv@b)+03h
  8988  136C  01F7               	line	43
  8989                           	goto	l2904
  8990  136D  2B77               	line	44
  8991                           	
  8992                           l620:	
  8993  136E                     	line	46
  8994                           	
  8995                           l2902:	
  8996  136E                     	movlw	0x0
  8997  136E  3000               	movwf	(___fldiv@b+3)
  8998  136F  00F7               	movlw	0x0
  8999  1370  3000               	movwf	(___fldiv@b+2)
  9000  1371  00F6               	movlw	0x0
  9001  1372  3000               	movwf	(___fldiv@b+1)
  9002  1373  00F5               	movlw	0x0
  9003  1374  3000               	movwf	(___fldiv@b)
  9004  1375  00F4               
  9005                           	goto	l2904
  9006  1376  2B77               	line	47
  9007                           	
  9008                           l622:	
  9009  1377                     	line	49
  9010                           	
  9011                           l2904:	
  9012  1377                     	movf	0+(___fldiv@a)+03h,w
  9013  1377  0873               	andlw	080h
  9014  1378  3980               	movwf	(??___fldiv+0)+0
  9015  1379  00F8               	movf	(??___fldiv+0)+0,w
  9016  137A  0878               	xorwf	(___fldiv@sign),f
  9017  137B  06A4               	line	50
  9018                           	
  9019                           l2906:	
  9020  137C                     	movf	0+(___fldiv@a)+03h,w
  9021  137C  0873               	movwf	(??___fldiv+0)+0
  9022  137D  00F8               	addwf	(??___fldiv+0)+0,w
  9023  137E  0778               	movwf	(??___fldiv+1)+0
  9024  137F  00F9               	movf	(??___fldiv+1)+0,w
  9025  1380  0879               	movwf	(___fldiv@aexp)
  9026  1381  00AC               	line	51
  9027                           	
  9028                           l2908:	
  9029  1382                     	btfss	0+(___fldiv@a)+02h,(7)&7
  9030  1382  1FF2               	goto	u3351
  9031  1383  2B85               	goto	u3350
  9032  1384  2B86               u3351:
  9033  1385                     	goto	l2912
  9034  1385  2B88               u3350:
  9035  1386                     	line	52
  9036                           	
  9037                           l2910:	
  9038  1386                     	bsf	(___fldiv@aexp)+(0/8),(0)&7
  9039  1386  142C               	goto	l2912
  9040  1387  2B88               	line	53
  9041                           	
  9042                           l623:	
  9043  1388                     	line	56
  9044                           	
  9045                           l2912:	
  9046  1388                     	movf	((___fldiv@aexp)),w
  9047  1388  082C               	btfsc	status,2
  9048  1389  1903               	goto	u3361
  9049  138A  2B8C               	goto	u3360
  9050  138B  2B8D               u3361:
  9051  138C                     	goto	l2922
  9052  138C  2B9E               u3360:
  9053  138D                     	line	58
  9054                           	
  9055                           l2914:	
  9056  138D                     		incf	((___fldiv@aexp)),w
  9057  138D  0A2C               	btfss	status,2
  9058  138E  1D03               	goto	u3371
  9059  138F  2B91               	goto	u3370
  9060  1390  2B92               u3371:
  9061  1391                     	goto	l2918
  9062  1391  2B9B               u3370:
  9063  1392                     	line	60
  9064                           	
  9065                           l2916:	
  9066  1392                     	movlw	0x0
  9067  1392  3000               	movwf	(___fldiv@a+3)
  9068  1393  00F3               	movlw	0x0
  9069  1394  3000               	movwf	(___fldiv@a+2)
  9070  1395  00F2               	movlw	0x0
  9071  1396  3000               	movwf	(___fldiv@a+1)
  9072  1397  00F1               	movlw	0x0
  9073  1398  3000               	movwf	(___fldiv@a)
  9074  1399  00F0               
  9075                           	goto	l2918
  9076  139A  2B9B               	line	61
  9077                           	
  9078                           l625:	
  9079  139B                     	line	63
  9080                           	
  9081                           l2918:	
  9082  139B                     	bsf	(___fldiv@a)+(23/8),(23)&7
  9083  139B  17F2               	line	65
  9084                           	
  9085                           l2920:	
  9086  139C                     	clrf	0+(___fldiv@a)+03h
  9087  139C  01F3               	line	66
  9088                           	goto	l626
  9089  139D  2BA6               	line	67
  9090                           	
  9091                           l624:	
  9092  139E                     	line	69
  9093                           	
  9094                           l2922:	
  9095  139E                     	movlw	0x0
  9096  139E  3000               	movwf	(___fldiv@a+3)
  9097  139F  00F3               	movlw	0x0
  9098  13A0  3000               	movwf	(___fldiv@a+2)
  9099  13A1  00F2               	movlw	0x0
  9100  13A2  3000               	movwf	(___fldiv@a+1)
  9101  13A3  00F1               	movlw	0x0
  9102  13A4  3000               	movwf	(___fldiv@a)
  9103  13A5  00F0               
  9104                           	line	70
  9105                           	
  9106                           l626:	
  9107  13A6                     	line	75
  9108                           	movf	(___fldiv@a+3),w
  9109  13A6  0873               	iorwf	(___fldiv@a+2),w
  9110  13A7  0472               	iorwf	(___fldiv@a+1),w
  9111  13A8  0471               	iorwf	(___fldiv@a),w
  9112  13A9  0470               	skipz
  9113  13AA  1D03               	goto	u3381
  9114  13AB  2BAD               	goto	u3380
  9115  13AC  2BAE               u3381:
  9116  13AD                     	goto	l2932
  9117  13AD  2BC8               u3380:
  9118  13AE                     	line	76
  9119                           	
  9120                           l2924:	
  9121  13AE                     	movlw	high highword(0)
  9122  13AE  3000               	movwf	(___fldiv@b+3)
  9123  13AF  00F7               	movlw	low highword(0)
  9124  13B0  3000               	movwf	(___fldiv@b+2)
  9125  13B1  00F6               	movlw	high(0)
  9126  13B2  3000               	movwf	(___fldiv@b+1)
  9127  13B3  00F5               	movlw	low(0)
  9128  13B4  3000               	movwf	(___fldiv@b)
  9129  13B5  00F4               
  9130                           	line	77
  9131                           	movlw	080h
  9132  13B6  3080               	iorwf	0+(___fldiv@b)+02h,f
  9133  13B7  04F6               	movlw	07Fh
  9134  13B8  307F               	iorwf	1+(___fldiv@b)+02h,f
  9135  13B9  04F7               	line	78
  9136                           	
  9137                           l2926:	
  9138  13BA                     	movf	(___fldiv@sign),w
  9139  13BA  0824               	movwf	(??___fldiv+0)+0
  9140  13BB  00F8               	movf	(??___fldiv+0)+0,w
  9141  13BC  0878               	iorwf	0+(___fldiv@b)+03h,f
  9142  13BD  04F7               	line	79
  9143                           	
  9144                           l2928:	
  9145  13BE                     	movf	(___fldiv@b+3),w
  9146  13BE  0877               	movwf	(?___fldiv+3)
  9147  13BF  00F3               	movf	(___fldiv@b+2),w
  9148  13C0  0876               	movwf	(?___fldiv+2)
  9149  13C1  00F2               	movf	(___fldiv@b+1),w
  9150  13C2  0875               	movwf	(?___fldiv+1)
  9151  13C3  00F1               	movf	(___fldiv@b),w
  9152  13C4  0874               	movwf	(?___fldiv)
  9153  13C5  00F0               
  9154                           	goto	l628
  9155  13C6  2D53               	
  9156                           l2930:	
  9157  13C7                     	goto	l628
  9158  13C7  2D53               	line	80
  9159                           	
  9160                           l627:	
  9161  13C8                     	line	83
  9162                           	
  9163                           l2932:	
  9164  13C8                     	movf	((___fldiv@bexp)),w
  9165  13C8  082B               	btfss	status,2
  9166  13C9  1D03               	goto	u3391
  9167  13CA  2BCC               	goto	u3390
  9168  13CB  2BCD               u3391:
  9169  13CC                     	goto	l2938
  9170  13CC  2BDF               u3390:
  9171  13CD                     	line	84
  9172                           	
  9173                           l2934:	
  9174  13CD                     	movlw	high highword(0)
  9175  13CD  3000               	movwf	(___fldiv@b+3)
  9176  13CE  00F7               	movlw	low highword(0)
  9177  13CF  3000               	movwf	(___fldiv@b+2)
  9178  13D0  00F6               	movlw	high(0)
  9179  13D1  3000               	movwf	(___fldiv@b+1)
  9180  13D2  00F5               	movlw	low(0)
  9181  13D3  3000               	movwf	(___fldiv@b)
  9182  13D4  00F4               
  9183                           	line	85
  9184                           	movf	(___fldiv@b+3),w
  9185  13D5  0877               	movwf	(?___fldiv+3)
  9186  13D6  00F3               	movf	(___fldiv@b+2),w
  9187  13D7  0876               	movwf	(?___fldiv+2)
  9188  13D8  00F2               	movf	(___fldiv@b+1),w
  9189  13D9  0875               	movwf	(?___fldiv+1)
  9190  13DA  00F1               	movf	(___fldiv@b),w
  9191  13DB  0874               	movwf	(?___fldiv)
  9192  13DC  00F0               
  9193                           	goto	l628
  9194  13DD  2D53               	
  9195                           l2936:	
  9196  13DE                     	goto	l628
  9197  13DE  2D53               	line	86
  9198                           	
  9199                           l629:	
  9200  13DF                     	line	89
  9201                           	
  9202                           l2938:	
  9203  13DF                     	movf	(___fldiv@aexp),w
  9204  13DF  082C               	movwf	(??___fldiv+0)+0
  9205  13E0  00F8               	clrf	(??___fldiv+0)+0+1
  9206  13E1  01F9               	comf	(??___fldiv+0)+0,f
  9207  13E2  09F8               	comf	(??___fldiv+0)+1,f
  9208  13E3  09F9               	incf	(??___fldiv+0)+0,f
  9209  13E4  0AF8               	skipnz
  9210  13E5  1903               	incf	(??___fldiv+0)+1,f
  9211  13E6  0AF9               	movf	(___fldiv@bexp),w
  9212  13E7  082B               	addwf	0+(??___fldiv+0)+0,w
  9213  13E8  0778               	movwf	(??___fldiv+2)+0
  9214  13E9  00FA               	movf	1+(??___fldiv+0)+0,w
  9215  13EA  0879               	skipnc
  9216  13EB  1803               	incf	1+(??___fldiv+0)+0,w
  9217  13EC  0A79               	movwf	((??___fldiv+2)+0)+1
  9218  13ED  00FB               	movf	0+(??___fldiv+2)+0,w
  9219  13EE  087A               	addlw	low(07Fh)
  9220  13EF  3E7F               	movwf	(___fldiv@new_exp)
  9221  13F0  00A5               	movf	1+(??___fldiv+2)+0,w
  9222  13F1  087B               	skipnc
  9223  13F2  1803               	addlw	1
  9224  13F3  3E01               	addlw	high(07Fh)
  9225  13F4  3E00               	movwf	1+(___fldiv@new_exp)
  9226  13F5  00A6               	line	92
  9227                           	
  9228                           l2940:	
  9229  13F6                     	movf	(___fldiv@b+3),w
  9230  13F6  0877               	movwf	(___fldiv@rem+3)
  9231  13F7  00A3               	movf	(___fldiv@b+2),w
  9232  13F8  0876               	movwf	(___fldiv@rem+2)
  9233  13F9  00A2               	movf	(___fldiv@b+1),w
  9234  13FA  0875               	movwf	(___fldiv@rem+1)
  9235  13FB  00A1               	movf	(___fldiv@b),w
  9236  13FC  0874               	movwf	(___fldiv@rem)
  9237  13FD  00A0               
  9238                           	line	93
  9239                           	
  9240                           l2942:	
  9241  13FE                     	movlw	high highword(0)
  9242  13FE  3000               	movwf	(___fldiv@b+3)
  9243  13FF  00F7               	movlw	low highword(0)
  9244  1400  3000               	movwf	(___fldiv@b+2)
  9245  1401  00F6               	movlw	high(0)
  9246  1402  3000               	movwf	(___fldiv@b+1)
  9247  1403  00F5               	movlw	low(0)
  9248  1404  3000               	movwf	(___fldiv@b)
  9249  1405  00F4               
  9250                           	line	94
  9251                           	
  9252                           l2944:	
  9253  1406                     	movlw	high highword(0)
  9254  1406  3000               	movwf	(___fldiv@grs+3)
  9255  1407  00AA               	movlw	low highword(0)
  9256  1408  3000               	movwf	(___fldiv@grs+2)
  9257  1409  00A9               	movlw	high(0)
  9258  140A  3000               	movwf	(___fldiv@grs+1)
  9259  140B  00A8               	movlw	low(0)
  9260  140C  3000               	movwf	(___fldiv@grs)
  9261  140D  00A7               
  9262                           	line	96
  9263                           	
  9264                           l2946:	
  9265  140E                     	clrf	(___fldiv@aexp)
  9266  140E  01AC               	line	97
  9267                           	goto	l2966
  9268  140F  2C64               	
  9269                           l631:	
  9270  1410                     	line	100
  9271                           	
  9272                           l2948:	
  9273  1410                     	movf	((___fldiv@aexp)),w
  9274  1410  082C               	btfsc	status,2
  9275  1411  1903               	goto	u3401
  9276  1412  2C14               	goto	u3400
  9277  1413  2C15               u3401:
  9278  1414                     	goto	l2958
  9279  1414  2C37               u3400:
  9280  1415                     	line	101
  9281                           	
  9282                           l2950:	
  9283  1415                     	movlw	01h
  9284  1415  3001               	movwf	(??___fldiv+0)+0
  9285  1416  00F8               u3415:
  9286  1417                     	clrc
  9287  1417  1003               	rlf	(___fldiv@rem),f
  9288  1418  0DA0               	rlf	(___fldiv@rem+1),f
  9289  1419  0DA1               	rlf	(___fldiv@rem+2),f
  9290  141A  0DA2               	rlf	(___fldiv@rem+3),f
  9291  141B  0DA3               	decfsz	(??___fldiv+0)+0
  9292  141C  0BF8               	goto	u3415
  9293  141D  2C17               	line	102
  9294                           	movlw	01h
  9295  141E  3001               	movwf	(??___fldiv+0)+0
  9296  141F  00F8               u3425:
  9297  1420                     	clrc
  9298  1420  1003               	rlf	(___fldiv@b),f
  9299  1421  0DF4               	rlf	(___fldiv@b+1),f
  9300  1422  0DF5               	rlf	(___fldiv@b+2),f
  9301  1423  0DF6               	rlf	(___fldiv@b+3),f
  9302  1424  0DF7               	decfsz	(??___fldiv+0)+0
  9303  1425  0BF8               	goto	u3425
  9304  1426  2C20               	line	103
  9305                           	
  9306                           l2952:	
  9307  1427                     	btfss	(___fldiv@grs+3),(31)&7
  9308  1427  1FAA               	goto	u3431
  9309  1428  2C2A               	goto	u3430
  9310  1429  2C2B               u3431:
  9311  142A                     	goto	l2956
  9312  142A  2C2D               u3430:
  9313  142B                     	line	104
  9314                           	
  9315                           l2954:	
  9316  142B                     	bsf	(___fldiv@b)+(0/8),(0)&7
  9317  142B  1474               	goto	l2956
  9318  142C  2C2D               	line	105
  9319                           	
  9320                           l633:	
  9321  142D                     	line	106
  9322                           	
  9323                           l2956:	
  9324  142D                     	movlw	01h
  9325  142D  3001               	movwf	(??___fldiv+0)+0
  9326  142E  00F8               u3445:
  9327  142F                     	clrc
  9328  142F  1003               	rlf	(___fldiv@grs),f
  9329  1430  0DA7               	rlf	(___fldiv@grs+1),f
  9330  1431  0DA8               	rlf	(___fldiv@grs+2),f
  9331  1432  0DA9               	rlf	(___fldiv@grs+3),f
  9332  1433  0DAA               	decfsz	(??___fldiv+0)+0
  9333  1434  0BF8               	goto	u3445
  9334  1435  2C2F               	goto	l2958
  9335  1436  2C37               	line	107
  9336                           	
  9337                           l632:	
  9338  1437                     	line	112
  9339                           	
  9340                           l2958:	
  9341  1437                     	movf	(___fldiv@a+3),w
  9342  1437  0873               	subwf	(___fldiv@rem+3),w
  9343  1438  0223               	skipz
  9344  1439  1D03               	goto	u3455
  9345  143A  2C45               	movf	(___fldiv@a+2),w
  9346  143B  0872               	subwf	(___fldiv@rem+2),w
  9347  143C  0222               	skipz
  9348  143D  1D03               	goto	u3455
  9349  143E  2C45               	movf	(___fldiv@a+1),w
  9350  143F  0871               	subwf	(___fldiv@rem+1),w
  9351  1440  0221               	skipz
  9352  1441  1D03               	goto	u3455
  9353  1442  2C45               	movf	(___fldiv@a),w
  9354  1443  0870               	subwf	(___fldiv@rem),w
  9355  1444  0220               u3455:
  9356  1445                     	skipc
  9357  1445  1C03               	goto	u3451
  9358  1446  2C48               	goto	u3450
  9359  1447  2C49               u3451:
  9360  1448                     	goto	l2964
  9361  1448  2C5F               u3450:
  9362  1449                     	line	115
  9363                           	
  9364                           l2960:	
  9365  1449                     	bsf	(___fldiv@grs)+(30/8),(30)&7
  9366  1449  172A               	line	116
  9367                           	
  9368                           l2962:	
  9369  144A                     	movf	(___fldiv@a),w
  9370  144A  0870               	subwf	(___fldiv@rem),f
  9371  144B  02A0               	movf	(___fldiv@a+1),w
  9372  144C  0871               	skipc
  9373  144D  1C03               	incfsz	(___fldiv@a+1),w
  9374  144E  0F71               	goto	u3465
  9375  144F  2C51               	goto	u3466
  9376  1450  2C52               u3465:
  9377  1451                     	subwf	(___fldiv@rem+1),f
  9378  1451  02A1               u3466:
  9379  1452                     	movf	(___fldiv@a+2),w
  9380  1452  0872               	skipc
  9381  1453  1C03               	incfsz	(___fldiv@a+2),w
  9382  1454  0F72               	goto	u3467
  9383  1455  2C57               	goto	u3468
  9384  1456  2C58               u3467:
  9385  1457                     	subwf	(___fldiv@rem+2),f
  9386  1457  02A2               u3468:
  9387  1458                     	movf	(___fldiv@a+3),w
  9388  1458  0873               	skipc
  9389  1459  1C03               	incfsz	(___fldiv@a+3),w
  9390  145A  0F73               	goto	u3469
  9391  145B  2C5D               	goto	u3460
  9392  145C  2C5E               u3469:
  9393  145D                     	subwf	(___fldiv@rem+3),f
  9394  145D  02A3               u3460:
  9395  145E                     
  9396                           	goto	l2964
  9397  145E  2C5F               	line	117
  9398                           	
  9399                           l634:	
  9400  145F                     	line	118
  9401                           	
  9402                           l2964:	
  9403  145F                     	movlw	low(01h)
  9404  145F  3001               	movwf	(??___fldiv+0)+0
  9405  1460  00F8               	movf	(??___fldiv+0)+0,w
  9406  1461  0878               	addwf	(___fldiv@aexp),f
  9407  1462  07AC               	goto	l2966
  9408  1463  2C64               	line	119
  9409                           	
  9410                           l630:	
  9411  1464                     	line	97
  9412                           	
  9413                           l2966:	
  9414  1464                     	movlw	low(01Ah)
  9415  1464  301A               	subwf	(___fldiv@aexp),w
  9416  1465  022C               	skipc
  9417  1466  1C03               	goto	u3471
  9418  1467  2C69               	goto	u3470
  9419  1468  2C6A               u3471:
  9420  1469                     	goto	l2948
  9421  1469  2C10               u3470:
  9422  146A                     	goto	l2968
  9423  146A  2C6B               	
  9424                           l635:	
  9425  146B                     	line	122
  9426                           	
  9427                           l2968:	
  9428  146B                     	movf	(___fldiv@rem+3),w
  9429  146B  0823               	iorwf	(___fldiv@rem+2),w
  9430  146C  0422               	iorwf	(___fldiv@rem+1),w
  9431  146D  0421               	iorwf	(___fldiv@rem),w
  9432  146E  0420               	skipnz
  9433  146F  1903               	goto	u3481
  9434  1470  2C72               	goto	u3480
  9435  1471  2C73               u3481:
  9436  1472                     	goto	l2982
  9437  1472  2C95               u3480:
  9438  1473                     	line	123
  9439                           	
  9440                           l2970:	
  9441  1473                     	bsf	(___fldiv@grs)+(0/8),(0)&7
  9442  1473  1427               	goto	l2982
  9443  1474  2C95               	line	124
  9444                           	
  9445                           l636:	
  9446  1475                     	line	127
  9447                           	goto	l2982
  9448  1475  2C95               	
  9449                           l638:	
  9450  1476                     	line	128
  9451                           	
  9452                           l2972:	
  9453  1476                     	movlw	01h
  9454  1476  3001               	movwf	(??___fldiv+0)+0
  9455  1477  00F8               u3495:
  9456  1478                     	clrc
  9457  1478  1003               	rlf	(___fldiv@b),f
  9458  1479  0DF4               	rlf	(___fldiv@b+1),f
  9459  147A  0DF5               	rlf	(___fldiv@b+2),f
  9460  147B  0DF6               	rlf	(___fldiv@b+3),f
  9461  147C  0DF7               	decfsz	(??___fldiv+0)+0
  9462  147D  0BF8               	goto	u3495
  9463  147E  2C78               	line	129
  9464                           	
  9465                           l2974:	
  9466  147F                     	btfss	(___fldiv@grs+3),(31)&7
  9467  147F  1FAA               	goto	u3501
  9468  1480  2C82               	goto	u3500
  9469  1481  2C83               u3501:
  9470  1482                     	goto	l2978
  9471  1482  2C85               u3500:
  9472  1483                     	line	130
  9473                           	
  9474                           l2976:	
  9475  1483                     	bsf	(___fldiv@b)+(0/8),(0)&7
  9476  1483  1474               	goto	l2978
  9477  1484  2C85               	line	131
  9478                           	
  9479                           l639:	
  9480  1485                     	line	132
  9481                           	
  9482                           l2978:	
  9483  1485                     	movlw	01h
  9484  1485  3001               	movwf	(??___fldiv+0)+0
  9485  1486  00F8               u3515:
  9486  1487                     	clrc
  9487  1487  1003               	rlf	(___fldiv@grs),f
  9488  1488  0DA7               	rlf	(___fldiv@grs+1),f
  9489  1489  0DA8               	rlf	(___fldiv@grs+2),f
  9490  148A  0DA9               	rlf	(___fldiv@grs+3),f
  9491  148B  0DAA               	decfsz	(??___fldiv+0)+0
  9492  148C  0BF8               	goto	u3515
  9493  148D  2C87               	line	133
  9494                           	
  9495                           l2980:	
  9496  148E                     	movlw	0FFh
  9497  148E  30FF               	addwf	(___fldiv@new_exp),f
  9498  148F  07A5               	skipnc
  9499  1490  1803               	incf	(___fldiv@new_exp+1),f
  9500  1491  0AA6               	movlw	0FFh
  9501  1492  30FF               	addwf	(___fldiv@new_exp+1),f
  9502  1493  07A6               	goto	l2982
  9503  1494  2C95               	line	134
  9504                           	
  9505                           l637:	
  9506  1495                     	line	127
  9507                           	
  9508                           l2982:	
  9509  1495                     	btfss	(___fldiv@b+2),(23)&7
  9510  1495  1FF6               	goto	u3521
  9511  1496  2C98               	goto	u3520
  9512  1497  2C99               u3521:
  9513  1498                     	goto	l2972
  9514  1498  2C76               u3520:
  9515  1499                     	goto	l2984
  9516  1499  2C9A               	
  9517                           l640:	
  9518  149A                     	line	139
  9519                           	
  9520                           l2984:	
  9521  149A                     	clrf	(___fldiv@aexp)
  9522  149A  01AC               	line	140
  9523                           	
  9524                           l2986:	
  9525  149B                     	btfss	(___fldiv@grs+3),(31)&7
  9526  149B  1FAA               	goto	u3531
  9527  149C  2C9E               	goto	u3530
  9528  149D  2C9F               u3531:
  9529  149E                     	goto	l2994
  9530  149E  2CBF               u3530:
  9531  149F                     	line	141
  9532                           	
  9533                           l2988:	
  9534  149F                     	movlw	0FFh
  9535  149F  30FF               	andwf	(___fldiv@grs),w
  9536  14A0  0527               	movwf	(??___fldiv+0)+0
  9537  14A1  00F8               	movlw	0FFh
  9538  14A2  30FF               	andwf	(___fldiv@grs+1),w
  9539  14A3  0528               	movwf	((??___fldiv+0)+0+1)
  9540  14A4  00F9               	movlw	0FFh
  9541  14A5  30FF               	andwf	(___fldiv@grs+2),w
  9542  14A6  0529               	movwf	((??___fldiv+0)+0+2)
  9543  14A7  00FA               	movlw	07Fh
  9544  14A8  307F               	andwf	(___fldiv@grs+3),w
  9545  14A9  052A               	movwf	((??___fldiv+0)+0+3)
  9546  14AA  00FB               	movf	3+(??___fldiv+0)+0,w
  9547  14AB  087B               	iorwf	2+(??___fldiv+0)+0,w
  9548  14AC  047A               	iorwf	1+(??___fldiv+0)+0,w
  9549  14AD  0479               	iorwf	0+(??___fldiv+0)+0,w
  9550  14AE  0478               	skipnz
  9551  14AF  1903               	goto	u3541
  9552  14B0  2CB2               	goto	u3540
  9553  14B1  2CB3               u3541:
  9554  14B2                     	goto	l642
  9555  14B2  2CB6               u3540:
  9556  14B3                     	line	142
  9557                           	
  9558                           l2990:	
  9559  14B3                     	clrf	(___fldiv@aexp)
  9560  14B3  01AC               	incf	(___fldiv@aexp),f
  9561  14B4  0AAC               	line	143
  9562                           	goto	l2994
  9563  14B5  2CBF               	line	144
  9564                           	
  9565                           l642:	
  9566  14B6                     	line	145
  9567                           	btfss	(___fldiv@b),(0)&7
  9568  14B6  1C74               	goto	u3551
  9569  14B7  2CB9               	goto	u3550
  9570  14B8  2CBA               u3551:
  9571  14B9                     	goto	l2994
  9572  14B9  2CBF               u3550:
  9573  14BA                     	line	146
  9574                           	
  9575                           l2992:	
  9576  14BA                     	clrf	(___fldiv@aexp)
  9577  14BA  01AC               	incf	(___fldiv@aexp),f
  9578  14BB  0AAC               	goto	l2994
  9579  14BC  2CBF               	line	147
  9580                           	
  9581                           l644:	
  9582  14BD                     	goto	l2994
  9583  14BD  2CBF               	line	148
  9584                           	
  9585                           l643:	
  9586  14BE                     	goto	l2994
  9587  14BE  2CBF               	line	149
  9588                           	
  9589                           l641:	
  9590  14BF                     	line	150
  9591                           	
  9592                           l2994:	
  9593  14BF                     	movf	((___fldiv@aexp)),w
  9594  14BF  082C               	btfsc	status,2
  9595  14C0  1903               	goto	u3561
  9596  14C1  2CC3               	goto	u3560
  9597  14C2  2CC4               u3561:
  9598  14C3                     	goto	l3004
  9599  14C3  2CF7               u3560:
  9600  14C4                     	line	151
  9601                           	
  9602                           l2996:	
  9603  14C4                     	movlw	01h
  9604  14C4  3001               	addwf	(___fldiv@b),f
  9605  14C5  07F4               	movlw	0
  9606  14C6  3000               	skipnc
  9607  14C7  1803               movlw 1
  9608  14C8  3001               	addwf	(___fldiv@b+1),f
  9609  14C9  07F5               	movlw	0
  9610  14CA  3000               	skipnc
  9611  14CB  1803               movlw 1
  9612  14CC  3001               	addwf	(___fldiv@b+2),f
  9613  14CD  07F6               	movlw	0
  9614  14CE  3000               	skipnc
  9615  14CF  1803               movlw 1
  9616  14D0  3001               	addwf	(___fldiv@b+3),f
  9617  14D1  07F7               	line	152
  9618                           	
  9619                           l2998:	
  9620  14D2                     	btfss	(___fldiv@b+3),(24)&7
  9621  14D2  1C77               	goto	u3571
  9622  14D3  2CD5               	goto	u3570
  9623  14D4  2CD6               u3571:
  9624  14D5                     	goto	l3004
  9625  14D5  2CF7               u3570:
  9626  14D6                     	line	153
  9627                           	
  9628                           l3000:	
  9629  14D6                     	movf	(___fldiv@b),w
  9630  14D6  0874               	movwf	(??___fldiv+0)+0
  9631  14D7  00F8               	movf	(___fldiv@b+1),w
  9632  14D8  0875               	movwf	((??___fldiv+0)+0+1)
  9633  14D9  00F9               	movf	(___fldiv@b+2),w
  9634  14DA  0876               	movwf	((??___fldiv+0)+0+2)
  9635  14DB  00FA               	movf	(___fldiv@b+3),w
  9636  14DC  0877               	movwf	((??___fldiv+0)+0+3)
  9637  14DD  00FB               	movlw	01h
  9638  14DE  3001               	movwf	(??___fldiv+4)+0
  9639  14DF  00FC               u3585:
  9640  14E0                     	rlf	(??___fldiv+0)+3,w
  9641  14E0  0D7B               	rrf	(??___fldiv+0)+3,f
  9642  14E1  0CFB               	rrf	(??___fldiv+0)+2,f
  9643  14E2  0CFA               	rrf	(??___fldiv+0)+1,f
  9644  14E3  0CF9               	rrf	(??___fldiv+0)+0,f
  9645  14E4  0CF8               u3580:
  9646  14E5                     	decfsz	(??___fldiv+4)+0,f
  9647  14E5  0BFC               	goto	u3585
  9648  14E6  2CE0               	movf	3+(??___fldiv+0)+0,w
  9649  14E7  087B               	movwf	(___fldiv@b+3)
  9650  14E8  00F7               	movf	2+(??___fldiv+0)+0,w
  9651  14E9  087A               	movwf	(___fldiv@b+2)
  9652  14EA  00F6               	movf	1+(??___fldiv+0)+0,w
  9653  14EB  0879               	movwf	(___fldiv@b+1)
  9654  14EC  00F5               	movf	0+(??___fldiv+0)+0,w
  9655  14ED  0878               	movwf	(___fldiv@b)
  9656  14EE  00F4               
  9657                           	line	154
  9658                           	
  9659                           l3002:	
  9660  14EF                     	movlw	01h
  9661  14EF  3001               	addwf	(___fldiv@new_exp),f
  9662  14F0  07A5               	skipnc
  9663  14F1  1803               	incf	(___fldiv@new_exp+1),f
  9664  14F2  0AA6               	movlw	0
  9665  14F3  3000               	addwf	(___fldiv@new_exp+1),f
  9666  14F4  07A6               	goto	l3004
  9667  14F5  2CF7               	line	155
  9668                           	
  9669                           l646:	
  9670  14F6                     	goto	l3004
  9671  14F6  2CF7               	line	156
  9672                           	
  9673                           l645:	
  9674  14F7                     	line	159
  9675                           	
  9676                           l3004:	
  9677  14F7                     	movf	(___fldiv@new_exp+1),w
  9678  14F7  0826               	xorlw	80h
  9679  14F8  3A80               	movwf	btemp+1
  9680  14F9  00FF               	movlw	(0)^80h
  9681  14FA  3080               	subwf	btemp+1,w
  9682  14FB  027F               	skipz
  9683  14FC  1D03               	goto	u3595
  9684  14FD  2D00               	movlw	0FFh
  9685  14FE  30FF               	subwf	(___fldiv@new_exp),w
  9686  14FF  0225               u3595:
  9687  1500                     
  9688                           	skipc
  9689  1500  1C03               	goto	u3591
  9690  1501  2D03               	goto	u3590
  9691  1502  2D04               u3591:
  9692  1503                     	goto	l3008
  9693  1503  2D13               u3590:
  9694  1504                     	line	160
  9695                           	
  9696                           l3006:	
  9697  1504                     	movlw	0FFh
  9698  1504  30FF               	bcf	status, 5	;RP0=0, select bank0
  9699  1505  1283               	bcf	status, 6	;RP1=0, select bank0
  9700  1506  1303               	movwf	(___fldiv@new_exp)
  9701  1507  00A5               	movlw	0
  9702  1508  3000               	movwf	((___fldiv@new_exp))+1
  9703  1509  00A6               	line	161
  9704                           	movlw	high highword(0)
  9705  150A  3000               	movwf	(___fldiv@b+3)
  9706  150B  00F7               	movlw	low highword(0)
  9707  150C  3000               	movwf	(___fldiv@b+2)
  9708  150D  00F6               	movlw	high(0)
  9709  150E  3000               	movwf	(___fldiv@b+1)
  9710  150F  00F5               	movlw	low(0)
  9711  1510  3000               	movwf	(___fldiv@b)
  9712  1511  00F4               
  9713                           	goto	l3008
  9714  1512  2D13               	line	162
  9715                           	
  9716                           l647:	
  9717  1513                     	line	165
  9718                           	
  9719                           l3008:	
  9720  1513                     	bcf	status, 5	;RP0=0, select bank0
  9721  1513  1283               	bcf	status, 6	;RP1=0, select bank0
  9722  1514  1303               	movf	(___fldiv@new_exp+1),w
  9723  1515  0826               	xorlw	80h
  9724  1516  3A80               	movwf	btemp+1
  9725  1517  00FF               	movlw	(0)^80h
  9726  1518  3080               	subwf	btemp+1,w
  9727  1519  027F               	skipz
  9728  151A  1D03               	goto	u3605
  9729  151B  2D1E               	movlw	01h
  9730  151C  3001               	subwf	(___fldiv@new_exp),w
  9731  151D  0225               u3605:
  9732  151E                     
  9733                           	skipnc
  9734  151E  1803               	goto	u3601
  9735  151F  2D21               	goto	u3600
  9736  1520  2D22               u3601:
  9737  1521                     	goto	l648
  9738  1521  2D2F               u3600:
  9739  1522                     	line	166
  9740                           	
  9741                           l3010:	
  9742  1522                     	bcf	status, 5	;RP0=0, select bank0
  9743  1522  1283               	bcf	status, 6	;RP1=0, select bank0
  9744  1523  1303               	clrf	(___fldiv@new_exp)
  9745  1524  01A5               	clrf	(___fldiv@new_exp+1)
  9746  1525  01A6               	line	167
  9747                           	
  9748                           l3012:	
  9749  1526                     	movlw	high highword(0)
  9750  1526  3000               	movwf	(___fldiv@b+3)
  9751  1527  00F7               	movlw	low highword(0)
  9752  1528  3000               	movwf	(___fldiv@b+2)
  9753  1529  00F6               	movlw	high(0)
  9754  152A  3000               	movwf	(___fldiv@b+1)
  9755  152B  00F5               	movlw	low(0)
  9756  152C  3000               	movwf	(___fldiv@b)
  9757  152D  00F4               
  9758                           	line	169
  9759                           	
  9760                           l3014:	
  9761  152E                     	clrf	(___fldiv@sign)
  9762  152E  01A4               	line	170
  9763                           	
  9764                           l648:	
  9765  152F                     	line	173
  9766                           	bcf	status, 5	;RP0=0, select bank0
  9767  152F  1283               	bcf	status, 6	;RP1=0, select bank0
  9768  1530  1303               	movf	(___fldiv@new_exp),w
  9769  1531  0825               	movwf	(??___fldiv+0)+0
  9770  1532  00F8               	movf	(??___fldiv+0)+0,w
  9771  1533  0878               	movwf	(___fldiv@bexp)
  9772  1534  00AB               	line	175
  9773                           	
  9774                           l3016:	
  9775  1535                     	btfss	(___fldiv@bexp),(0)&7
  9776  1535  1C2B               	goto	u3611
  9777  1536  2D38               	goto	u3610
  9778  1537  2D39               u3611:
  9779  1538                     	goto	l3020
  9780  1538  2D3B               u3610:
  9781  1539                     	line	176
  9782                           	
  9783                           l3018:	
  9784  1539                     	bsf	0+(___fldiv@b)+02h+(7/8),(7)&7
  9785  1539  17F6               	line	177
  9786                           	goto	l650
  9787  153A  2D3F               	line	179
  9788                           	
  9789                           l649:	
  9790  153B                     	line	180
  9791                           	
  9792                           l3020:	
  9793  153B                     	movlw	low(07Fh)
  9794  153B  307F               	movwf	(??___fldiv+0)+0
  9795  153C  00F8               	movf	(??___fldiv+0)+0,w
  9796  153D  0878               	andwf	0+(___fldiv@b)+02h,f
  9797  153E  05F6               	line	181
  9798                           	
  9799                           l650:	
  9800  153F                     	line	182
  9801                           	movf	(___fldiv@bexp),w
  9802  153F  082B               	movwf	(??___fldiv+0)+0
  9803  1540  00F8               	clrc
  9804  1541  1003               	rrf	(??___fldiv+0)+0,w
  9805  1542  0C78               	movwf	(??___fldiv+1)+0
  9806  1543  00F9               	movf	(??___fldiv+1)+0,w
  9807  1544  0879               	movwf	0+(___fldiv@b)+03h
  9808  1545  00F7               	line	183
  9809                           	movf	(___fldiv@sign),w
  9810  1546  0824               	movwf	(??___fldiv+0)+0
  9811  1547  00F8               	movf	(??___fldiv+0)+0,w
  9812  1548  0878               	iorwf	0+(___fldiv@b)+03h,f
  9813  1549  04F7               	line	184
  9814                           	
  9815                           l3022:	
  9816  154A                     	movf	(___fldiv@b+3),w
  9817  154A  0877               	movwf	(?___fldiv+3)
  9818  154B  00F3               	movf	(___fldiv@b+2),w
  9819  154C  0876               	movwf	(?___fldiv+2)
  9820  154D  00F2               	movf	(___fldiv@b+1),w
  9821  154E  0875               	movwf	(?___fldiv+1)
  9822  154F  00F1               	movf	(___fldiv@b),w
  9823  1550  0874               	movwf	(?___fldiv)
  9824  1551  00F0               
  9825                           	goto	l628
  9826  1552  2D53               	
  9827                           l3024:	
  9828  1553                     	line	185
  9829                           	
  9830                           l628:	
  9831  1553                     	return
  9832  1553  0008               	opt stack 0
  9833                           GLOBAL	__end_of___fldiv
  9834                           	__end_of___fldiv:
  9835  1554                     	signat	___fldiv,8316
  9836                           	global	___fladd
  9837                           
  9838 ;; *************** function ___fladd *****************
  9839 ;; Defined at:
  9840 ;;		line 10 in file "C:\Program Files (x86)\Microchip\xc8\v2.00\pic\sources\c90\common\sprcadd.c"
  9841 ;; Parameters:    Size  Location     Type
  9842 ;;  b               4    0[BANK0 ] unsigned char 
  9843 ;;  a               4    4[BANK0 ] unsigned char 
  9844 ;; Auto vars:     Size  Location     Type
  9845 ;;  grs             1   23[BANK0 ] unsigned char 
  9846 ;;  bexp            1   22[BANK0 ] unsigned char 
  9847 ;;  aexp            1   21[BANK0 ] unsigned char 
  9848 ;;  signs           1   20[BANK0 ] unsigned char 
  9849 ;; Return value:  Size  Location     Type
  9850 ;;                  4    0[BANK0 ] unsigned char 
  9851 ;; Registers used:
  9852 ;;		wreg, status,2, status,0, btemp+1
  9853 ;; Tracked objects:
  9854 ;;		On entry : 0/0
  9855 ;;		On exit  : 0/0
  9856 ;;		Unchanged: 0/0
  9857 ;; Data sizes:     COMMON   BANK0   BANK1   BANK3   BANK2
  9858 ;;      Params:         0       8       0       0       0
  9859 ;;      Locals:         0       4       0       0       0
  9860 ;;      Temps:          0      12       0       0       0
  9861 ;;      Totals:         0      24       0       0       0
  9862 ;;Total ram usage:       24 bytes
  9863 ;; Hardware stack levels used:    1
  9864 ;; This function calls:
  9865 ;;		Nothing
  9866 ;; This function is called by:
  9867 ;;		_main
  9868 ;; This function uses a non-reentrant model
  9869 ;;
  9870                           psect	text14,local,class=CODE,delta=2,merge=1,group=1
  9871                           	file	"C:\Program Files (x86)\Microchip\xc8\v2.00\pic\sources\c90\common\sprcadd.c"
  9872                           	line	10
  9873                           global __ptext14
  9874                           __ptext14:	;psect for function ___fladd
  9875  09CF                     psect	text14
  9876                           	file	"C:\Program Files (x86)\Microchip\xc8\v2.00\pic\sources\c90\common\sprcadd.c"
  9877                           	line	10
  9878                           	global	__size_of___fladd
  9879                           	__size_of___fladd	equ	__end_of___fladd-___fladd
  9880  02BC                     	
  9881                           ___fladd:	
  9882  09CF                     ;incstack = 0
  9883                           	opt	stack 7
  9884                           ; Regs used in ___fladd: [wreg+status,2+status,0+btemp+1]
  9885                           	line	21
  9886                           	
  9887                           l2690:	
  9888  09CF                     	bcf	status, 5	;RP0=0, select bank0
  9889  09CF  1283               	bcf	status, 6	;RP1=0, select bank0
  9890  09D0  1303               	movf	0+(___fladd@b)+03h,w
  9891  09D1  0823               	andlw	080h
  9892  09D2  3980               	movwf	(??___fladd+0)+0
  9893  09D3  00A8               	movf	(??___fladd+0)+0,w
  9894  09D4  0828               	movwf	(___fladd@signs)
  9895  09D5  00B4               	line	22
  9896                           	
  9897                           l2692:	
  9898  09D6                     	movf	0+(___fladd@b)+03h,w
  9899  09D6  0823               	movwf	(??___fladd+0)+0
  9900  09D7  00A8               	addwf	(??___fladd+0)+0,w
  9901  09D8  0728               	movwf	(??___fladd+1)+0
  9902  09D9  00A9               	movf	(??___fladd+1)+0,w
  9903  09DA  0829               	movwf	(___fladd@bexp)
  9904  09DB  00B6               	line	23
  9905                           	
  9906                           l2694:	
  9907  09DC                     	btfss	0+(___fladd@b)+02h,(7)&7
  9908  09DC  1FA2               	goto	u2861
  9909  09DD  29DF               	goto	u2860
  9910  09DE  29E0               u2861:
  9911  09DF                     	goto	l2698
  9912  09DF  29E2               u2860:
  9913  09E0                     	line	24
  9914                           	
  9915                           l2696:	
  9916  09E0                     	bsf	(___fladd@bexp)+(0/8),(0)&7
  9917  09E0  1436               	goto	l2698
  9918  09E1  29E2               	line	25
  9919                           	
  9920                           l562:	
  9921  09E2                     	line	28
  9922                           	
  9923                           l2698:	
  9924  09E2                     	movf	((___fladd@bexp)),w
  9925  09E2  0836               	btfsc	status,2
  9926  09E3  1903               	goto	u2871
  9927  09E4  29E6               	goto	u2870
  9928  09E5  29E7               u2871:
  9929  09E6                     	goto	l2708
  9930  09E6  29F8               u2870:
  9931  09E7                     	line	30
  9932                           	
  9933                           l2700:	
  9934  09E7                     		incf	((___fladd@bexp)),w
  9935  09E7  0A36               	btfss	status,2
  9936  09E8  1D03               	goto	u2881
  9937  09E9  29EB               	goto	u2880
  9938  09EA  29EC               u2881:
  9939  09EB                     	goto	l2704
  9940  09EB  29F5               u2880:
  9941  09EC                     	line	32
  9942                           	
  9943                           l2702:	
  9944  09EC                     	movlw	0x0
  9945  09EC  3000               	movwf	(___fladd@b+3)
  9946  09ED  00A3               	movlw	0x0
  9947  09EE  3000               	movwf	(___fladd@b+2)
  9948  09EF  00A2               	movlw	0x0
  9949  09F0  3000               	movwf	(___fladd@b+1)
  9950  09F1  00A1               	movlw	0x0
  9951  09F2  3000               	movwf	(___fladd@b)
  9952  09F3  00A0               
  9953                           	goto	l2704
  9954  09F4  29F5               	line	33
  9955                           	
  9956                           l564:	
  9957  09F5                     	line	35
  9958                           	
  9959                           l2704:	
  9960  09F5                     	bsf	(___fladd@b)+(23/8),(23)&7
  9961  09F5  17A2               	line	37
  9962                           	
  9963                           l2706:	
  9964  09F6                     	clrf	0+(___fladd@b)+03h
  9965  09F6  01A3               	line	38
  9966                           	goto	l2710
  9967  09F7  2A01               	line	39
  9968                           	
  9969                           l563:	
  9970  09F8                     	line	41
  9971                           	
  9972                           l2708:	
  9973  09F8                     	movlw	0x0
  9974  09F8  3000               	movwf	(___fladd@b+3)
  9975  09F9  00A3               	movlw	0x0
  9976  09FA  3000               	movwf	(___fladd@b+2)
  9977  09FB  00A2               	movlw	0x0
  9978  09FC  3000               	movwf	(___fladd@b+1)
  9979  09FD  00A1               	movlw	0x0
  9980  09FE  3000               	movwf	(___fladd@b)
  9981  09FF  00A0               
  9982                           	goto	l2710
  9983  0A00  2A01               	line	42
  9984                           	
  9985                           l565:	
  9986  0A01                     	line	44
  9987                           	
  9988                           l2710:	
  9989  0A01                     	movf	0+(___fladd@a)+03h,w
  9990  0A01  0827               	andlw	080h
  9991  0A02  3980               	movwf	(??___fladd+0)+0
  9992  0A03  00A8               	movf	(??___fladd+0)+0,w
  9993  0A04  0828               	movwf	(___fladd@aexp)
  9994  0A05  00B5               	line	46
  9995                           	
  9996                           l2712:	
  9997  0A06                     	movf	(___fladd@aexp),w
  9998  0A06  0835               	xorwf	(___fladd@signs),w
  9999  0A07  0634               	skipnz
 10000  0A08  1903               	goto	u2891
 10001  0A09  2A0B               	goto	u2890
 10002  0A0A  2A0C               u2891:
 10003  0A0B                     	goto	l2716
 10004  0A0B  2A0E               u2890:
 10005  0A0C                     	line	47
 10006                           	
 10007                           l2714:	
 10008  0A0C                     	bsf	(___fladd@signs)+(6/8),(6)&7
 10009  0A0C  1734               	goto	l2716
 10010  0A0D  2A0E               	line	48
 10011                           	
 10012                           l566:	
 10013  0A0E                     	line	49
 10014                           	
 10015                           l2716:	
 10016  0A0E                     	movf	0+(___fladd@a)+03h,w
 10017  0A0E  0827               	movwf	(??___fladd+0)+0
 10018  0A0F  00A8               	addwf	(??___fladd+0)+0,w
 10019  0A10  0728               	movwf	(??___fladd+1)+0
 10020  0A11  00A9               	movf	(??___fladd+1)+0,w
 10021  0A12  0829               	movwf	(___fladd@aexp)
 10022  0A13  00B5               	line	50
 10023                           	
 10024                           l2718:	
 10025  0A14                     	btfss	0+(___fladd@a)+02h,(7)&7
 10026  0A14  1FA6               	goto	u2901
 10027  0A15  2A17               	goto	u2900
 10028  0A16  2A18               u2901:
 10029  0A17                     	goto	l2722
 10030  0A17  2A1A               u2900:
 10031  0A18                     	line	51
 10032                           	
 10033                           l2720:	
 10034  0A18                     	bsf	(___fladd@aexp)+(0/8),(0)&7
 10035  0A18  1435               	goto	l2722
 10036  0A19  2A1A               	line	52
 10037                           	
 10038                           l567:	
 10039  0A1A                     	line	55
 10040                           	
 10041                           l2722:	
 10042  0A1A                     	movf	((___fladd@aexp)),w
 10043  0A1A  0835               	btfsc	status,2
 10044  0A1B  1903               	goto	u2911
 10045  0A1C  2A1E               	goto	u2910
 10046  0A1D  2A1F               u2911:
 10047  0A1E                     	goto	l2732
 10048  0A1E  2A30               u2910:
 10049  0A1F                     	line	57
 10050                           	
 10051                           l2724:	
 10052  0A1F                     		incf	((___fladd@aexp)),w
 10053  0A1F  0A35               	btfss	status,2
 10054  0A20  1D03               	goto	u2921
 10055  0A21  2A23               	goto	u2920
 10056  0A22  2A24               u2921:
 10057  0A23                     	goto	l2728
 10058  0A23  2A2D               u2920:
 10059  0A24                     	line	59
 10060                           	
 10061                           l2726:	
 10062  0A24                     	movlw	0x0
 10063  0A24  3000               	movwf	(___fladd@a+3)
 10064  0A25  00A7               	movlw	0x0
 10065  0A26  3000               	movwf	(___fladd@a+2)
 10066  0A27  00A6               	movlw	0x0
 10067  0A28  3000               	movwf	(___fladd@a+1)
 10068  0A29  00A5               	movlw	0x0
 10069  0A2A  3000               	movwf	(___fladd@a)
 10070  0A2B  00A4               
 10071                           	goto	l2728
 10072  0A2C  2A2D               	line	60
 10073                           	
 10074                           l569:	
 10075  0A2D                     	line	62
 10076                           	
 10077                           l2728:	
 10078  0A2D                     	bsf	(___fladd@a)+(23/8),(23)&7
 10079  0A2D  17A6               	line	64
 10080                           	
 10081                           l2730:	
 10082  0A2E                     	clrf	0+(___fladd@a)+03h
 10083  0A2E  01A7               	line	65
 10084                           	goto	l570
 10085  0A2F  2A38               	line	66
 10086                           	
 10087                           l568:	
 10088  0A30                     	line	68
 10089                           	
 10090                           l2732:	
 10091  0A30                     	movlw	0x0
 10092  0A30  3000               	movwf	(___fladd@a+3)
 10093  0A31  00A7               	movlw	0x0
 10094  0A32  3000               	movwf	(___fladd@a+2)
 10095  0A33  00A6               	movlw	0x0
 10096  0A34  3000               	movwf	(___fladd@a+1)
 10097  0A35  00A5               	movlw	0x0
 10098  0A36  3000               	movwf	(___fladd@a)
 10099  0A37  00A4               
 10100                           	line	69
 10101                           	
 10102                           l570:	
 10103  0A38                     	line	75
 10104                           	movf	(___fladd@bexp),w
 10105  0A38  0836               	subwf	(___fladd@aexp),w
 10106  0A39  0235               	skipnc
 10107  0A3A  1803               	goto	u2931
 10108  0A3B  2A3D               	goto	u2930
 10109  0A3C  2A3E               u2931:
 10110  0A3D                     	goto	l2768
 10111  0A3D  2A84               u2930:
 10112  0A3E                     	line	77
 10113                           	
 10114                           l2734:	
 10115  0A3E                     	btfss	(___fladd@signs),(6)&7
 10116  0A3E  1F34               	goto	u2941
 10117  0A3F  2A41               	goto	u2940
 10118  0A40  2A42               u2941:
 10119  0A41                     	goto	l2738
 10120  0A41  2A47               u2940:
 10121  0A42                     	line	78
 10122                           	
 10123                           l2736:	
 10124  0A42                     	movlw	low(080h)
 10125  0A42  3080               	movwf	(??___fladd+0)+0
 10126  0A43  00A8               	movf	(??___fladd+0)+0,w
 10127  0A44  0828               	xorwf	(___fladd@signs),f
 10128  0A45  06B4               	goto	l2738
 10129  0A46  2A47               	line	79
 10130                           	
 10131                           l572:	
 10132  0A47                     	line	81
 10133                           	
 10134                           l2738:	
 10135  0A47                     	movf	(___fladd@bexp),w
 10136  0A47  0836               	movwf	(??___fladd+0)+0
 10137  0A48  00A8               	movf	(??___fladd+0)+0,w
 10138  0A49  0828               	movwf	(___fladd@grs)
 10139  0A4A  00B7               	line	82
 10140                           	
 10141                           l2740:	
 10142  0A4B                     	movf	(___fladd@aexp),w
 10143  0A4B  0835               	movwf	(??___fladd+0)+0
 10144  0A4C  00A8               	movf	(??___fladd+0)+0,w
 10145  0A4D  0828               	movwf	(___fladd@bexp)
 10146  0A4E  00B6               	line	83
 10147                           	
 10148                           l2742:	
 10149  0A4F                     	movf	(___fladd@grs),w
 10150  0A4F  0837               	movwf	(??___fladd+0)+0
 10151  0A50  00A8               	movf	(??___fladd+0)+0,w
 10152  0A51  0828               	movwf	(___fladd@aexp)
 10153  0A52  00B5               	line	84
 10154                           	
 10155                           l2744:	
 10156  0A53                     	movf	(___fladd@b),w
 10157  0A53  0820               	movwf	(??___fladd+0)+0
 10158  0A54  00A8               	movf	(??___fladd+0)+0,w
 10159  0A55  0828               	movwf	(___fladd@grs)
 10160  0A56  00B7               	line	85
 10161                           	
 10162                           l2746:	
 10163  0A57                     	movf	(___fladd@a),w
 10164  0A57  0824               	movwf	(??___fladd+0)+0
 10165  0A58  00A8               	movf	(??___fladd+0)+0,w
 10166  0A59  0828               	movwf	(___fladd@b)
 10167  0A5A  00A0               	line	86
 10168                           	
 10169                           l2748:	
 10170  0A5B                     	movf	(___fladd@grs),w
 10171  0A5B  0837               	movwf	(??___fladd+0)+0
 10172  0A5C  00A8               	movf	(??___fladd+0)+0,w
 10173  0A5D  0828               	movwf	(___fladd@a)
 10174  0A5E  00A4               	line	87
 10175                           	
 10176                           l2750:	
 10177  0A5F                     	movf	0+(___fladd@b)+01h,w
 10178  0A5F  0821               	movwf	(??___fladd+0)+0
 10179  0A60  00A8               	movf	(??___fladd+0)+0,w
 10180  0A61  0828               	movwf	(___fladd@grs)
 10181  0A62  00B7               	line	88
 10182                           	
 10183                           l2752:	
 10184  0A63                     	movf	0+(___fladd@a)+01h,w
 10185  0A63  0825               	movwf	(??___fladd+0)+0
 10186  0A64  00A8               	movf	(??___fladd+0)+0,w
 10187  0A65  0828               	movwf	0+(___fladd@b)+01h
 10188  0A66  00A1               	line	89
 10189                           	
 10190                           l2754:	
 10191  0A67                     	movf	(___fladd@grs),w
 10192  0A67  0837               	movwf	(??___fladd+0)+0
 10193  0A68  00A8               	movf	(??___fladd+0)+0,w
 10194  0A69  0828               	movwf	0+(___fladd@a)+01h
 10195  0A6A  00A5               	line	90
 10196                           	
 10197                           l2756:	
 10198  0A6B                     	movf	0+(___fladd@b)+02h,w
 10199  0A6B  0822               	movwf	(??___fladd+0)+0
 10200  0A6C  00A8               	movf	(??___fladd+0)+0,w
 10201  0A6D  0828               	movwf	(___fladd@grs)
 10202  0A6E  00B7               	line	91
 10203                           	
 10204                           l2758:	
 10205  0A6F                     	movf	0+(___fladd@a)+02h,w
 10206  0A6F  0826               	movwf	(??___fladd+0)+0
 10207  0A70  00A8               	movf	(??___fladd+0)+0,w
 10208  0A71  0828               	movwf	0+(___fladd@b)+02h
 10209  0A72  00A2               	line	92
 10210                           	
 10211                           l2760:	
 10212  0A73                     	movf	(___fladd@grs),w
 10213  0A73  0837               	movwf	(??___fladd+0)+0
 10214  0A74  00A8               	movf	(??___fladd+0)+0,w
 10215  0A75  0828               	movwf	0+(___fladd@a)+02h
 10216  0A76  00A6               	line	93
 10217                           	
 10218                           l2762:	
 10219  0A77                     	movf	0+(___fladd@b)+03h,w
 10220  0A77  0823               	movwf	(??___fladd+0)+0
 10221  0A78  00A8               	movf	(??___fladd+0)+0,w
 10222  0A79  0828               	movwf	(___fladd@grs)
 10223  0A7A  00B7               	line	94
 10224                           	
 10225                           l2764:	
 10226  0A7B                     	movf	0+(___fladd@a)+03h,w
 10227  0A7B  0827               	movwf	(??___fladd+0)+0
 10228  0A7C  00A8               	movf	(??___fladd+0)+0,w
 10229  0A7D  0828               	movwf	0+(___fladd@b)+03h
 10230  0A7E  00A3               	line	95
 10231                           	
 10232                           l2766:	
 10233  0A7F                     	movf	(___fladd@grs),w
 10234  0A7F  0837               	movwf	(??___fladd+0)+0
 10235  0A80  00A8               	movf	(??___fladd+0)+0,w
 10236  0A81  0828               	movwf	0+(___fladd@a)+03h
 10237  0A82  00A7               	goto	l2768
 10238  0A83  2A84               	line	96
 10239                           	
 10240                           l571:	
 10241  0A84                     	line	98
 10242                           	
 10243                           l2768:	
 10244  0A84                     	clrf	(___fladd@grs)
 10245  0A84  01B7               	line	100
 10246                           	
 10247                           l2770:	
 10248  0A85                     	movf	(___fladd@bexp),w
 10249  0A85  0836               	movwf	(??___fladd+0)+0
 10250  0A86  00A8               	clrf	(??___fladd+0)+0+1
 10251  0A87  01A9               	comf	(??___fladd+0)+0,f
 10252  0A88  09A8               	comf	(??___fladd+0)+1,f
 10253  0A89  09A9               	incf	(??___fladd+0)+0,f
 10254  0A8A  0AA8               	skipnz
 10255  0A8B  1903               	incf	(??___fladd+0)+1,f
 10256  0A8C  0AA9               	movf	(___fladd@aexp),w
 10257  0A8D  0835               	addwf	0+(??___fladd+0)+0,w
 10258  0A8E  0728               	movwf	(??___fladd+2)+0
 10259  0A8F  00AA               	movf	1+(??___fladd+0)+0,w
 10260  0A90  0829               	skipnc
 10261  0A91  1803               	incf	1+(??___fladd+0)+0,w
 10262  0A92  0A29               	movwf	((??___fladd+2)+0)+1
 10263  0A93  00AB               	movf	1+(??___fladd+2)+0,w
 10264  0A94  082B               	xorlw	80h
 10265  0A95  3A80               	movwf	btemp+1
 10266  0A96  00FF               	movlw	(0)^80h
 10267  0A97  3080               	subwf	btemp+1,w
 10268  0A98  027F               	skipz
 10269  0A99  1D03               	goto	u2955
 10270  0A9A  2A9D               	movlw	01Ah
 10271  0A9B  301A               	subwf	0+(??___fladd+2)+0,w
 10272  0A9C  022A               u2955:
 10273  0A9D                     
 10274                           	skipc
 10275  0A9D  1C03               	goto	u2951
 10276  0A9E  2AA0               	goto	u2950
 10277  0A9F  2AA1               u2951:
 10278  0AA0                     	goto	l2786
 10279  0AA0  2AE2               u2950:
 10280  0AA1                     	line	101
 10281                           	
 10282                           l2772:	
 10283  0AA1                     	bcf	status, 5	;RP0=0, select bank0
 10284  0AA1  1283               	bcf	status, 6	;RP1=0, select bank0
 10285  0AA2  1303               	movf	(___fladd@b+3),w
 10286  0AA3  0823               	iorwf	(___fladd@b+2),w
 10287  0AA4  0422               	iorwf	(___fladd@b+1),w
 10288  0AA5  0421               	iorwf	(___fladd@b),w
 10289  0AA6  0420               	skipz
 10290  0AA7  1D03               	goto	u2961
 10291  0AA8  2AAA               	goto	u2960
 10292  0AA9  2AAC               u2961:
 10293  0AAA                     	movlw	1
 10294  0AAA  3001               	goto	u2970
 10295  0AAB  2AAD               u2960:
 10296  0AAC                     	movlw	0
 10297  0AAC  3000               u2970:
 10298  0AAD                     	movwf	(??___fladd+0)+0
 10299  0AAD  00A8               	movf	(??___fladd+0)+0,w
 10300  0AAE  0828               	movwf	(___fladd@grs)
 10301  0AAF  00B7               	line	102
 10302                           	movlw	high highword(0)
 10303  0AB0  3000               	movwf	(___fladd@b+3)
 10304  0AB1  00A3               	movlw	low highword(0)
 10305  0AB2  3000               	movwf	(___fladd@b+2)
 10306  0AB3  00A2               	movlw	high(0)
 10307  0AB4  3000               	movwf	(___fladd@b+1)
 10308  0AB5  00A1               	movlw	low(0)
 10309  0AB6  3000               	movwf	(___fladd@b)
 10310  0AB7  00A0               
 10311                           	line	103
 10312                           	movf	(___fladd@aexp),w
 10313  0AB8  0835               	movwf	(??___fladd+0)+0
 10314  0AB9  00A8               	movf	(??___fladd+0)+0,w
 10315  0ABA  0828               	movwf	(___fladd@bexp)
 10316  0ABB  00B6               	line	104
 10317                           	goto	l574
 10318  0ABC  2AEB               	line	105
 10319                           	
 10320                           l573:	
 10321  0ABD                     	line	106
 10322                           	goto	l2786
 10323  0ABD  2AE2               	
 10324                           l576:	
 10325  0ABE                     	line	109
 10326                           	btfss	(___fladd@grs),(0)&7
 10327  0ABE  1C37               	goto	u2981
 10328  0ABF  2AC1               	goto	u2980
 10329  0AC0  2AC2               u2981:
 10330  0AC1                     	goto	l2776
 10331  0AC1  2ACB               u2980:
 10332  0AC2                     	line	110
 10333                           	
 10334                           l2774:	
 10335  0AC2                     	movf	(___fladd@grs),w
 10336  0AC2  0837               	movwf	(??___fladd+0)+0
 10337  0AC3  00A8               	clrc
 10338  0AC4  1003               	rrf	(??___fladd+0)+0,w
 10339  0AC5  0C28               	iorlw	01h
 10340  0AC6  3801               	movwf	(??___fladd+1)+0
 10341  0AC7  00A9               	movf	(??___fladd+1)+0,w
 10342  0AC8  0829               	movwf	(___fladd@grs)
 10343  0AC9  00B7               	line	111
 10344                           	goto	l2778
 10345  0ACA  2ACE               	line	112
 10346                           	
 10347                           l577:	
 10348  0ACB                     	line	113
 10349                           	
 10350                           l2776:	
 10351  0ACB                     	clrc
 10352  0ACB  1003               	rrf	(___fladd@grs),f
 10353  0ACC  0CB7               
 10354                           	goto	l2778
 10355  0ACD  2ACE               	line	114
 10356                           	
 10357                           l578:	
 10358  0ACE                     	line	115
 10359                           	
 10360                           l2778:	
 10361  0ACE                     	btfss	(___fladd@b),(0)&7
 10362  0ACE  1C20               	goto	u2991
 10363  0ACF  2AD1               	goto	u2990
 10364  0AD0  2AD2               u2991:
 10365  0AD1                     	goto	l2782
 10366  0AD1  2AD4               u2990:
 10367  0AD2                     	line	116
 10368                           	
 10369                           l2780:	
 10370  0AD2                     	bsf	(___fladd@grs)+(7/8),(7)&7
 10371  0AD2  17B7               	goto	l2782
 10372  0AD3  2AD4               	line	117
 10373                           	
 10374                           l579:	
 10375  0AD4                     	line	118
 10376                           	
 10377                           l2782:	
 10378  0AD4                     	movlw	01h
 10379  0AD4  3001               	movwf	(??___fladd+0)+0
 10380  0AD5  00A8               u3005:
 10381  0AD6                     	rlf	(___fladd@b+3),w
 10382  0AD6  0D23               	rrf	(___fladd@b+3),f
 10383  0AD7  0CA3               	rrf	(___fladd@b+2),f
 10384  0AD8  0CA2               	rrf	(___fladd@b+1),f
 10385  0AD9  0CA1               	rrf	(___fladd@b),f
 10386  0ADA  0CA0               	decfsz	(??___fladd+0)+0&07fh,f
 10387  0ADB  0BA8               	goto	u3005
 10388  0ADC  2AD6               
 10389                           	line	119
 10390                           	
 10391                           l2784:	
 10392  0ADD                     	movlw	low(01h)
 10393  0ADD  3001               	movwf	(??___fladd+0)+0
 10394  0ADE  00A8               	movf	(??___fladd+0)+0,w
 10395  0ADF  0828               	addwf	(___fladd@bexp),f
 10396  0AE0  07B6               	goto	l2786
 10397  0AE1  2AE2               	line	120
 10398                           	
 10399                           l575:	
 10400  0AE2                     	line	106
 10401                           	
 10402                           l2786:	
 10403  0AE2                     	bcf	status, 5	;RP0=0, select bank0
 10404  0AE2  1283               	bcf	status, 6	;RP1=0, select bank0
 10405  0AE3  1303               	movf	(___fladd@aexp),w
 10406  0AE4  0835               	subwf	(___fladd@bexp),w
 10407  0AE5  0236               	skipc
 10408  0AE6  1C03               	goto	u3011
 10409  0AE7  2AE9               	goto	u3010
 10410  0AE8  2AEA               u3011:
 10411  0AE9                     	goto	l576
 10412  0AE9  2ABE               u3010:
 10413  0AEA                     	goto	l574
 10414  0AEA  2AEB               	
 10415                           l580:	
 10416  0AEB                     	line	121
 10417                           	
 10418                           l574:	
 10419  0AEB                     	line	124
 10420                           	btfsc	(___fladd@signs),(6)&7
 10421  0AEB  1B34               	goto	u3021
 10422  0AEC  2AEE               	goto	u3020
 10423  0AED  2AEF               u3021:
 10424  0AEE                     	goto	l2812
 10425  0AEE  2B3E               u3020:
 10426  0AEF                     	line	127
 10427                           	
 10428                           l2788:	
 10429  0AEF                     	movf	((___fladd@bexp)),w
 10430  0AEF  0836               	btfss	status,2
 10431  0AF0  1D03               	goto	u3031
 10432  0AF1  2AF3               	goto	u3030
 10433  0AF2  2AF4               u3031:
 10434  0AF3                     	goto	l2794
 10435  0AF3  2AFE               u3030:
 10436  0AF4                     	line	128
 10437                           	
 10438                           l2790:	
 10439  0AF4                     	movlw	0x0
 10440  0AF4  3000               	movwf	(?___fladd+3)
 10441  0AF5  00A3               	movlw	0x0
 10442  0AF6  3000               	movwf	(?___fladd+2)
 10443  0AF7  00A2               	movlw	0x0
 10444  0AF8  3000               	movwf	(?___fladd+1)
 10445  0AF9  00A1               	movlw	0x0
 10446  0AFA  3000               	movwf	(?___fladd)
 10447  0AFB  00A0               
 10448                           	goto	l583
 10449  0AFC  2C8A               	
 10450                           l2792:	
 10451  0AFD                     	goto	l583
 10452  0AFD  2C8A               	line	129
 10453                           	
 10454                           l582:	
 10455  0AFE                     	line	132
 10456                           	
 10457                           l2794:	
 10458  0AFE                     	movf	(___fladd@a),w
 10459  0AFE  0824               	addwf	(___fladd@b),f
 10460  0AFF  07A0               	movf	(___fladd@a+1),w
 10461  0B00  0825               	clrz
 10462  0B01  1103               	skipnc
 10463  0B02  1803               	addlw	1
 10464  0B03  3E01               	skipnz
 10465  0B04  1903               	goto	u3041
 10466  0B05  2B07               	addwf	(___fladd@b+1),f
 10467  0B06  07A1               u3041:
 10468  0B07                     	movf	(___fladd@a+2),w
 10469  0B07  0826               	clrz
 10470  0B08  1103               	skipnc
 10471  0B09  1803               	addlw	1
 10472  0B0A  3E01               	skipnz
 10473  0B0B  1903               	goto	u3042
 10474  0B0C  2B0E               	addwf	(___fladd@b+2),f
 10475  0B0D  07A2               u3042:
 10476  0B0E                     	movf	(___fladd@a+3),w
 10477  0B0E  0827               	clrz
 10478  0B0F  1103               	skipnc
 10479  0B10  1803               	addlw	1
 10480  0B11  3E01               	skipnz
 10481  0B12  1903               	goto	u3043
 10482  0B13  2B15               	addwf	(___fladd@b+3),f
 10483  0B14  07A3               u3043:
 10484  0B15                     
 10485                           	line	134
 10486                           	
 10487                           l2796:	
 10488  0B15                     	btfss	(___fladd@b+3),(24)&7
 10489  0B15  1C23               	goto	u3051
 10490  0B16  2B18               	goto	u3050
 10491  0B17  2B19               u3051:
 10492  0B18                     	goto	l2846
 10493  0B18  2C07               u3050:
 10494  0B19                     	line	135
 10495                           	
 10496                           l2798:	
 10497  0B19                     	btfss	(___fladd@grs),(0)&7
 10498  0B19  1C37               	goto	u3061
 10499  0B1A  2B1C               	goto	u3060
 10500  0B1B  2B1D               u3061:
 10501  0B1C                     	goto	l2802
 10502  0B1C  2B26               u3060:
 10503  0B1D                     	line	136
 10504                           	
 10505                           l2800:	
 10506  0B1D                     	movf	(___fladd@grs),w
 10507  0B1D  0837               	movwf	(??___fladd+0)+0
 10508  0B1E  00A8               	clrc
 10509  0B1F  1003               	rrf	(??___fladd+0)+0,w
 10510  0B20  0C28               	iorlw	01h
 10511  0B21  3801               	movwf	(??___fladd+1)+0
 10512  0B22  00A9               	movf	(??___fladd+1)+0,w
 10513  0B23  0829               	movwf	(___fladd@grs)
 10514  0B24  00B7               	line	137
 10515                           	goto	l2804
 10516  0B25  2B29               	line	138
 10517                           	
 10518                           l585:	
 10519  0B26                     	line	139
 10520                           	
 10521                           l2802:	
 10522  0B26                     	clrc
 10523  0B26  1003               	rrf	(___fladd@grs),f
 10524  0B27  0CB7               
 10525                           	goto	l2804
 10526  0B28  2B29               	line	140
 10527                           	
 10528                           l586:	
 10529  0B29                     	line	141
 10530                           	
 10531                           l2804:	
 10532  0B29                     	btfss	(___fladd@b),(0)&7
 10533  0B29  1C20               	goto	u3071
 10534  0B2A  2B2C               	goto	u3070
 10535  0B2B  2B2D               u3071:
 10536  0B2C                     	goto	l2808
 10537  0B2C  2B2F               u3070:
 10538  0B2D                     	line	142
 10539                           	
 10540                           l2806:	
 10541  0B2D                     	bsf	(___fladd@grs)+(7/8),(7)&7
 10542  0B2D  17B7               	goto	l2808
 10543  0B2E  2B2F               	line	143
 10544                           	
 10545                           l587:	
 10546  0B2F                     	line	144
 10547                           	
 10548                           l2808:	
 10549  0B2F                     	movlw	01h
 10550  0B2F  3001               	movwf	(??___fladd+0)+0
 10551  0B30  00A8               u3085:
 10552  0B31                     	rlf	(___fladd@b+3),w
 10553  0B31  0D23               	rrf	(___fladd@b+3),f
 10554  0B32  0CA3               	rrf	(___fladd@b+2),f
 10555  0B33  0CA2               	rrf	(___fladd@b+1),f
 10556  0B34  0CA1               	rrf	(___fladd@b),f
 10557  0B35  0CA0               	decfsz	(??___fladd+0)+0&07fh,f
 10558  0B36  0BA8               	goto	u3085
 10559  0B37  2B31               
 10560                           	line	145
 10561                           	
 10562                           l2810:	
 10563  0B38                     	movlw	low(01h)
 10564  0B38  3001               	movwf	(??___fladd+0)+0
 10565  0B39  00A8               	movf	(??___fladd+0)+0,w
 10566  0B3A  0828               	addwf	(___fladd@bexp),f
 10567  0B3B  07B6               	goto	l2846
 10568  0B3C  2C07               	line	146
 10569                           	
 10570                           l584:	
 10571  0B3D                     	line	148
 10572                           	goto	l2846
 10573  0B3D  2C07               	line	149
 10574                           	
 10575                           l581:	
 10576  0B3E                     	line	153
 10577                           	
 10578                           l2812:	
 10579  0B3E                     	movf	(___fladd@b+3),w
 10580  0B3E  0823               	xorlw	80h
 10581  0B3F  3A80               	movwf	btemp+1
 10582  0B40  00FF               	movf	(___fladd@a+3),w
 10583  0B41  0827               	xorlw	80h
 10584  0B42  3A80               	subwf	btemp+1,w
 10585  0B43  027F               	
 10586                           	skipz
 10587  0B44  1D03               	goto	u3093
 10588  0B45  2B50               	movf	(___fladd@a+2),w
 10589  0B46  0826               	subwf	(___fladd@b+2),w
 10590  0B47  0222               	skipz
 10591  0B48  1D03               	goto	u3093
 10592  0B49  2B50               	movf	(___fladd@a+1),w
 10593  0B4A  0825               	subwf	(___fladd@b+1),w
 10594  0B4B  0221               	skipz
 10595  0B4C  1D03               	goto	u3093
 10596  0B4D  2B50               	movf	(___fladd@a),w
 10597  0B4E  0824               	subwf	(___fladd@b),w
 10598  0B4F  0220               u3093:
 10599  0B50                     	skipnc
 10600  0B50  1803               	goto	u3091
 10601  0B51  2B53               	goto	u3090
 10602  0B52  2B54               u3091:
 10603  0B53                     	goto	l2822
 10604  0B53  2BBA               u3090:
 10605  0B54                     	line	154
 10606                           	
 10607                           l2814:	
 10608  0B54                     	movlw	0FFh
 10609  0B54  30FF               	movwf	((??___fladd+0)+0)
 10610  0B55  00A8               	movlw	0FFh
 10611  0B56  30FF               	movwf	((??___fladd+0)+0+1)
 10612  0B57  00A9               	movlw	0FFh
 10613  0B58  30FF               	movwf	((??___fladd+0)+0+2)
 10614  0B59  00AA               	movlw	0FFh
 10615  0B5A  30FF               	movwf	((??___fladd+0)+0+3)
 10616  0B5B  00AB               	movf	(___fladd@a),w
 10617  0B5C  0824               	movwf	(??___fladd+4)+0
 10618  0B5D  00AC               	movf	(___fladd@a+1),w
 10619  0B5E  0825               	movwf	((??___fladd+4)+0+1)
 10620  0B5F  00AD               	movf	(___fladd@a+2),w
 10621  0B60  0826               	movwf	((??___fladd+4)+0+2)
 10622  0B61  00AE               	movf	(___fladd@a+3),w
 10623  0B62  0827               	movwf	((??___fladd+4)+0+3)
 10624  0B63  00AF               	comf	(___fladd@b),w
 10625  0B64  0920               	movwf	(??___fladd+8)+0
 10626  0B65  00B0               	comf	(___fladd@b+1),w
 10627  0B66  0921               	movwf	((??___fladd+8)+0+1)
 10628  0B67  00B1               	comf	(___fladd@b+2),w
 10629  0B68  0922               	movwf	((??___fladd+8)+0+2)
 10630  0B69  00B2               	comf	(___fladd@b+3),w
 10631  0B6A  0923               	movwf	((??___fladd+8)+0+3)
 10632  0B6B  00B3               	incf	(??___fladd+8)+0,f
 10633  0B6C  0AB0               	skipnz
 10634  0B6D  1903               	incf	((??___fladd+8)+0+1),f
 10635  0B6E  0AB1               	skipnz
 10636  0B6F  1903               	incf	((??___fladd+8)+0+2),f
 10637  0B70  0AB2               	skipnz
 10638  0B71  1903               	incf	((??___fladd+8)+0+3),f
 10639  0B72  0AB3               	movf	0+(??___fladd+8)+0,w
 10640  0B73  0830               	addwf	(??___fladd+4)+0,f
 10641  0B74  07AC               	movf	1+(??___fladd+8)+0,w
 10642  0B75  0831               	skipnc
 10643  0B76  1803               	incfsz	1+(??___fladd+8)+0,w
 10644  0B77  0F31               	goto	u3100
 10645  0B78  2B7A               	goto	u3101
 10646  0B79  2B7B               u3100:
 10647  0B7A                     	addwf	(??___fladd+4)+1,f
 10648  0B7A  07AD               u3101:
 10649  0B7B                     	movf	2+(??___fladd+8)+0,w
 10650  0B7B  0832               	skipnc
 10651  0B7C  1803               	incfsz	2+(??___fladd+8)+0,w
 10652  0B7D  0F32               	goto	u3102
 10653  0B7E  2B80               	goto	u3103
 10654  0B7F  2B81               u3102:
 10655  0B80                     	addwf	(??___fladd+4)+2,f
 10656  0B80  07AE               u3103:
 10657  0B81                     	movf	3+(??___fladd+8)+0,w
 10658  0B81  0833               	skipnc
 10659  0B82  1803               	incf	3+(??___fladd+8)+0,w
 10660  0B83  0A33               	addwf	(??___fladd+4)+3,f
 10661  0B84  07AF               	movf	0+(??___fladd+4)+0,w
 10662  0B85  082C               	addwf	(??___fladd+0)+0,f
 10663  0B86  07A8               	movf	1+(??___fladd+4)+0,w
 10664  0B87  082D               	skipnc
 10665  0B88  1803               	incfsz	1+(??___fladd+4)+0,w
 10666  0B89  0F2D               	goto	u3110
 10667  0B8A  2B8C               	goto	u3111
 10668  0B8B  2B8D               u3110:
 10669  0B8C                     	addwf	(??___fladd+0)+1,f
 10670  0B8C  07A9               u3111:
 10671  0B8D                     	movf	2+(??___fladd+4)+0,w
 10672  0B8D  082E               	skipnc
 10673  0B8E  1803               	incfsz	2+(??___fladd+4)+0,w
 10674  0B8F  0F2E               	goto	u3112
 10675  0B90  2B92               	goto	u3113
 10676  0B91  2B93               u3112:
 10677  0B92                     	addwf	(??___fladd+0)+2,f
 10678  0B92  07AA               u3113:
 10679  0B93                     	movf	3+(??___fladd+4)+0,w
 10680  0B93  082F               	skipnc
 10681  0B94  1803               	incf	3+(??___fladd+4)+0,w
 10682  0B95  0A2F               	addwf	(??___fladd+0)+3,f
 10683  0B96  07AB               	movf	3+(??___fladd+0)+0,w
 10684  0B97  082B               	movwf	(___fladd@b+3)
 10685  0B98  00A3               	movf	2+(??___fladd+0)+0,w
 10686  0B99  082A               	movwf	(___fladd@b+2)
 10687  0B9A  00A2               	movf	1+(??___fladd+0)+0,w
 10688  0B9B  0829               	movwf	(___fladd@b+1)
 10689  0B9C  00A1               	movf	0+(??___fladd+0)+0,w
 10690  0B9D  0828               	movwf	(___fladd@b)
 10691  0B9E  00A0               
 10692                           	line	155
 10693                           	movlw	low(080h)
 10694  0B9F  3080               	movwf	(??___fladd+0)+0
 10695  0BA0  00A8               	movf	(??___fladd+0)+0,w
 10696  0BA1  0828               	xorwf	(___fladd@signs),f
 10697  0BA2  06B4               	line	156
 10698                           	
 10699                           l2816:	
 10700  0BA3                     	comf	(___fladd@grs),f
 10701  0BA3  09B7               	incf	(___fladd@grs),f
 10702  0BA4  0AB7               	line	157
 10703                           	
 10704                           l2818:	
 10705  0BA5                     	movf	((___fladd@grs)),w
 10706  0BA5  0837               	btfss	status,2
 10707  0BA6  1D03               	goto	u3121
 10708  0BA7  2BA9               	goto	u3120
 10709  0BA8  2BAA               u3121:
 10710  0BA9                     	goto	l591
 10711  0BA9  2BC8               u3120:
 10712  0BAA                     	line	158
 10713                           	
 10714                           l2820:	
 10715  0BAA                     	movlw	01h
 10716  0BAA  3001               	addwf	(___fladd@b),f
 10717  0BAB  07A0               	movlw	0
 10718  0BAC  3000               	skipnc
 10719  0BAD  1803               movlw 1
 10720  0BAE  3001               	addwf	(___fladd@b+1),f
 10721  0BAF  07A1               	movlw	0
 10722  0BB0  3000               	skipnc
 10723  0BB1  1803               movlw 1
 10724  0BB2  3001               	addwf	(___fladd@b+2),f
 10725  0BB3  07A2               	movlw	0
 10726  0BB4  3000               	skipnc
 10727  0BB5  1803               movlw 1
 10728  0BB6  3001               	addwf	(___fladd@b+3),f
 10729  0BB7  07A3               	goto	l591
 10730  0BB8  2BC8               	line	159
 10731                           	
 10732                           l590:	
 10733  0BB9                     	line	160
 10734                           	goto	l591
 10735  0BB9  2BC8               	line	161
 10736                           	
 10737                           l589:	
 10738  0BBA                     	line	162
 10739                           	
 10740                           l2822:	
 10741  0BBA                     	movf	(___fladd@a),w
 10742  0BBA  0824               	subwf	(___fladd@b),f
 10743  0BBB  02A0               	movf	(___fladd@a+1),w
 10744  0BBC  0825               	skipc
 10745  0BBD  1C03               	incfsz	(___fladd@a+1),w
 10746  0BBE  0F25               	subwf	(___fladd@b+1),f
 10747  0BBF  02A1               	movf	(___fladd@a+2),w
 10748  0BC0  0826               	skipc
 10749  0BC1  1C03               	incfsz	(___fladd@a+2),w
 10750  0BC2  0F26               	subwf	(___fladd@b+2),f
 10751  0BC3  02A2               	movf	(___fladd@a+3),w
 10752  0BC4  0827               	skipc
 10753  0BC5  1C03               	incfsz	(___fladd@a+3),w
 10754  0BC6  0F27               	subwf	(___fladd@b+3),f
 10755  0BC7  02A3               	line	163
 10756                           	
 10757                           l591:	
 10758  0BC8                     	line	166
 10759                           	movf	(___fladd@b+3),w
 10760  0BC8  0823               	iorwf	(___fladd@b+2),w
 10761  0BC9  0422               	iorwf	(___fladd@b+1),w
 10762  0BCA  0421               	iorwf	(___fladd@b),w
 10763  0BCB  0420               	skipz
 10764  0BCC  1D03               	goto	u3131
 10765  0BCD  2BCF               	goto	u3130
 10766  0BCE  2BD0               u3131:
 10767  0BCF                     	goto	l2844
 10768  0BCF  2C01               u3130:
 10769  0BD0                     	
 10770                           l2824:	
 10771  0BD0                     	movf	((___fladd@grs)),w
 10772  0BD0  0837               	btfss	status,2
 10773  0BD1  1D03               	goto	u3141
 10774  0BD2  2BD4               	goto	u3140
 10775  0BD3  2BD5               u3141:
 10776  0BD4                     	goto	l2844
 10777  0BD4  2C01               u3140:
 10778  0BD5                     	line	167
 10779                           	
 10780                           l2826:	
 10781  0BD5                     	movlw	0x0
 10782  0BD5  3000               	movwf	(?___fladd+3)
 10783  0BD6  00A3               	movlw	0x0
 10784  0BD7  3000               	movwf	(?___fladd+2)
 10785  0BD8  00A2               	movlw	0x0
 10786  0BD9  3000               	movwf	(?___fladd+1)
 10787  0BDA  00A1               	movlw	0x0
 10788  0BDB  3000               	movwf	(?___fladd)
 10789  0BDC  00A0               
 10790                           	goto	l583
 10791  0BDD  2C8A               	
 10792                           l2828:	
 10793  0BDE                     	goto	l583
 10794  0BDE  2C8A               	line	168
 10795                           	
 10796                           l592:	
 10797  0BDF                     	line	171
 10798                           	goto	l2844
 10799  0BDF  2C01               	
 10800                           l594:	
 10801  0BE0                     	line	172
 10802                           	
 10803                           l2830:	
 10804  0BE0                     	movlw	01h
 10805  0BE0  3001               	movwf	(??___fladd+0)+0
 10806  0BE1  00A8               u3155:
 10807  0BE2                     	clrc
 10808  0BE2  1003               	rlf	(___fladd@b),f
 10809  0BE3  0DA0               	rlf	(___fladd@b+1),f
 10810  0BE4  0DA1               	rlf	(___fladd@b+2),f
 10811  0BE5  0DA2               	rlf	(___fladd@b+3),f
 10812  0BE6  0DA3               	decfsz	(??___fladd+0)+0
 10813  0BE7  0BA8               	goto	u3155
 10814  0BE8  2BE2               	line	173
 10815                           	
 10816                           l2832:	
 10817  0BE9                     	btfss	(___fladd@grs),(7)&7
 10818  0BE9  1FB7               	goto	u3161
 10819  0BEA  2BEC               	goto	u3160
 10820  0BEB  2BED               u3161:
 10821  0BEC                     	goto	l595
 10822  0BEC  2BEE               u3160:
 10823  0BED                     	line	174
 10824                           	
 10825                           l2834:	
 10826  0BED                     	bsf	(___fladd@b)+(0/8),(0)&7
 10827  0BED  1420               	line	175
 10828                           	
 10829                           l595:	
 10830  0BEE                     	line	176
 10831                           	btfss	(___fladd@grs),(0)&7
 10832  0BEE  1C37               	goto	u3171
 10833  0BEF  2BF1               	goto	u3170
 10834  0BF0  2BF2               u3171:
 10835  0BF1                     	goto	l2838
 10836  0BF1  2BF5               u3170:
 10837  0BF2                     	line	177
 10838                           	
 10839                           l2836:	
 10840  0BF2                     	setc
 10841  0BF2  1403               	rlf	(___fladd@grs),f
 10842  0BF3  0DB7               	line	178
 10843                           	goto	l2840
 10844  0BF4  2BF8               	line	179
 10845                           	
 10846                           l596:	
 10847  0BF5                     	line	180
 10848                           	
 10849                           l2838:	
 10850  0BF5                     	clrc
 10851  0BF5  1003               	rlf	(___fladd@grs),f
 10852  0BF6  0DB7               
 10853                           	goto	l2840
 10854  0BF7  2BF8               	line	181
 10855                           	
 10856                           l597:	
 10857  0BF8                     	line	182
 10858                           	
 10859                           l2840:	
 10860  0BF8                     	movf	((___fladd@bexp)),w
 10861  0BF8  0836               	btfsc	status,2
 10862  0BF9  1903               	goto	u3181
 10863  0BFA  2BFC               	goto	u3180
 10864  0BFB  2BFD               u3181:
 10865  0BFC                     	goto	l2844
 10866  0BFC  2C01               u3180:
 10867  0BFD                     	line	183
 10868                           	
 10869                           l2842:	
 10870  0BFD                     	movlw	01h
 10871  0BFD  3001               	subwf	(___fladd@bexp),f
 10872  0BFE  02B6               	goto	l2844
 10873  0BFF  2C01               	line	184
 10874                           	
 10875                           l598:	
 10876  0C00                     	goto	l2844
 10877  0C00  2C01               	line	185
 10878                           	
 10879                           l593:	
 10880  0C01                     	line	171
 10881                           	
 10882                           l2844:	
 10883  0C01                     	btfss	(___fladd@b+2),(23)&7
 10884  0C01  1FA2               	goto	u3191
 10885  0C02  2C04               	goto	u3190
 10886  0C03  2C05               u3191:
 10887  0C04                     	goto	l2830
 10888  0C04  2BE0               u3190:
 10889  0C05                     	goto	l2846
 10890  0C05  2C07               	
 10891                           l599:	
 10892  0C06                     	goto	l2846
 10893  0C06  2C07               	line	186
 10894                           	
 10895                           l588:	
 10896  0C07                     	line	192
 10897                           	
 10898                           l2846:	
 10899  0C07                     	clrf	(___fladd@aexp)
 10900  0C07  01B5               	line	193
 10901                           	
 10902                           l2848:	
 10903  0C08                     	btfss	(___fladd@grs),(7)&7
 10904  0C08  1FB7               	goto	u3201
 10905  0C09  2C0B               	goto	u3200
 10906  0C0A  2C0C               u3201:
 10907  0C0B                     	goto	l2856
 10908  0C0B  2C1E               u3200:
 10909  0C0C                     	line	194
 10910                           	
 10911                           l2850:	
 10912  0C0C                     	movf	(___fladd@grs),w
 10913  0C0C  0837               	andlw	07Fh
 10914  0C0D  397F               	btfsc	status,2
 10915  0C0E  1903               	goto	u3211
 10916  0C0F  2C11               	goto	u3210
 10917  0C10  2C12               u3211:
 10918  0C11                     	goto	l601
 10919  0C11  2C15               u3210:
 10920  0C12                     	line	195
 10921                           	
 10922                           l2852:	
 10923  0C12                     	clrf	(___fladd@aexp)
 10924  0C12  01B5               	incf	(___fladd@aexp),f
 10925  0C13  0AB5               	line	196
 10926                           	goto	l2856
 10927  0C14  2C1E               	line	197
 10928                           	
 10929                           l601:	
 10930  0C15                     	line	198
 10931                           	btfss	(___fladd@b),(0)&7
 10932  0C15  1C20               	goto	u3221
 10933  0C16  2C18               	goto	u3220
 10934  0C17  2C19               u3221:
 10935  0C18                     	goto	l2856
 10936  0C18  2C1E               u3220:
 10937  0C19                     	line	199
 10938                           	
 10939                           l2854:	
 10940  0C19                     	clrf	(___fladd@aexp)
 10941  0C19  01B5               	incf	(___fladd@aexp),f
 10942  0C1A  0AB5               	goto	l2856
 10943  0C1B  2C1E               	line	200
 10944                           	
 10945                           l603:	
 10946  0C1C                     	goto	l2856
 10947  0C1C  2C1E               	line	201
 10948                           	
 10949                           l602:	
 10950  0C1D                     	goto	l2856
 10951  0C1D  2C1E               	line	202
 10952                           	
 10953                           l600:	
 10954  0C1E                     	line	203
 10955                           	
 10956                           l2856:	
 10957  0C1E                     	movf	((___fladd@aexp)),w
 10958  0C1E  0835               	btfsc	status,2
 10959  0C1F  1903               	goto	u3231
 10960  0C20  2C22               	goto	u3230
 10961  0C21  2C23               u3231:
 10962  0C22                     	goto	l604
 10963  0C22  2C59               u3230:
 10964  0C23                     	line	204
 10965                           	
 10966                           l2858:	
 10967  0C23                     	movlw	01h
 10968  0C23  3001               	addwf	(___fladd@b),f
 10969  0C24  07A0               	movlw	0
 10970  0C25  3000               	skipnc
 10971  0C26  1803               movlw 1
 10972  0C27  3001               	addwf	(___fladd@b+1),f
 10973  0C28  07A1               	movlw	0
 10974  0C29  3000               	skipnc
 10975  0C2A  1803               movlw 1
 10976  0C2B  3001               	addwf	(___fladd@b+2),f
 10977  0C2C  07A2               	movlw	0
 10978  0C2D  3000               	skipnc
 10979  0C2E  1803               movlw 1
 10980  0C2F  3001               	addwf	(___fladd@b+3),f
 10981  0C30  07A3               	line	205
 10982                           	
 10983                           l2860:	
 10984  0C31                     	btfss	(___fladd@b+3),(24)&7
 10985  0C31  1C23               	goto	u3241
 10986  0C32  2C34               	goto	u3240
 10987  0C33  2C35               u3241:
 10988  0C34                     	goto	l604
 10989  0C34  2C59               u3240:
 10990  0C35                     	line	206
 10991                           	
 10992                           l2862:	
 10993  0C35                     	movf	(___fladd@b),w
 10994  0C35  0820               	movwf	(??___fladd+0)+0
 10995  0C36  00A8               	movf	(___fladd@b+1),w
 10996  0C37  0821               	movwf	((??___fladd+0)+0+1)
 10997  0C38  00A9               	movf	(___fladd@b+2),w
 10998  0C39  0822               	movwf	((??___fladd+0)+0+2)
 10999  0C3A  00AA               	movf	(___fladd@b+3),w
 11000  0C3B  0823               	movwf	((??___fladd+0)+0+3)
 11001  0C3C  00AB               	movlw	01h
 11002  0C3D  3001               	movwf	(??___fladd+4)+0
 11003  0C3E  00AC               u3255:
 11004  0C3F                     	rlf	(??___fladd+0)+3,w
 11005  0C3F  0D2B               	rrf	(??___fladd+0)+3,f
 11006  0C40  0CAB               	rrf	(??___fladd+0)+2,f
 11007  0C41  0CAA               	rrf	(??___fladd+0)+1,f
 11008  0C42  0CA9               	rrf	(??___fladd+0)+0,f
 11009  0C43  0CA8               u3250:
 11010  0C44                     	decfsz	(??___fladd+4)+0,f
 11011  0C44  0BAC               	goto	u3255
 11012  0C45  2C3F               	movf	3+(??___fladd+0)+0,w
 11013  0C46  082B               	movwf	(___fladd@b+3)
 11014  0C47  00A3               	movf	2+(??___fladd+0)+0,w
 11015  0C48  082A               	movwf	(___fladd@b+2)
 11016  0C49  00A2               	movf	1+(??___fladd+0)+0,w
 11017  0C4A  0829               	movwf	(___fladd@b+1)
 11018  0C4B  00A1               	movf	0+(??___fladd+0)+0,w
 11019  0C4C  0828               	movwf	(___fladd@b)
 11020  0C4D  00A0               
 11021                           	line	207
 11022                           		incf	((___fladd@bexp)),w
 11023  0C4E  0A36               	btfsc	status,2
 11024  0C4F  1903               	goto	u3261
 11025  0C50  2C52               	goto	u3260
 11026  0C51  2C53               u3261:
 11027  0C52                     	goto	l604
 11028  0C52  2C59               u3260:
 11029  0C53                     	line	208
 11030                           	
 11031                           l2864:	
 11032  0C53                     	movlw	low(01h)
 11033  0C53  3001               	movwf	(??___fladd+0)+0
 11034  0C54  00A8               	movf	(??___fladd+0)+0,w
 11035  0C55  0828               	addwf	(___fladd@bexp),f
 11036  0C56  07B6               	goto	l604
 11037  0C57  2C59               	line	209
 11038                           	
 11039                           l606:	
 11040  0C58                     	goto	l604
 11041  0C58  2C59               	line	210
 11042                           	
 11043                           l605:	
 11044  0C59                     	line	211
 11045                           	
 11046                           l604:	
 11047  0C59                     	line	215
 11048                           		incf	((___fladd@bexp)),w
 11049  0C59  0A36               	btfsc	status,2
 11050  0C5A  1903               	goto	u3271
 11051  0C5B  2C5D               	goto	u3270
 11052  0C5C  2C5E               u3271:
 11053  0C5D                     	goto	l2868
 11054  0C5D  2C64               u3270:
 11055  0C5E                     	
 11056                           l2866:	
 11057  0C5E                     	movf	((___fladd@bexp)),w
 11058  0C5E  0836               	btfss	status,2
 11059  0C5F  1D03               	goto	u3281
 11060  0C60  2C62               	goto	u3280
 11061  0C61  2C63               u3281:
 11062  0C62                     	goto	l2874
 11063  0C62  2C74               u3280:
 11064  0C63                     	goto	l2868
 11065  0C63  2C64               	
 11066                           l609:	
 11067  0C64                     	line	216
 11068                           	
 11069                           l2868:	
 11070  0C64                     	movlw	high highword(0)
 11071  0C64  3000               	movwf	(___fladd@b+3)
 11072  0C65  00A3               	movlw	low highword(0)
 11073  0C66  3000               	movwf	(___fladd@b+2)
 11074  0C67  00A2               	movlw	high(0)
 11075  0C68  3000               	movwf	(___fladd@b+1)
 11076  0C69  00A1               	movlw	low(0)
 11077  0C6A  3000               	movwf	(___fladd@b)
 11078  0C6B  00A0               
 11079                           	line	218
 11080                           	
 11081                           l2870:	
 11082  0C6C                     	movf	((___fladd@bexp)),w
 11083  0C6C  0836               	btfss	status,2
 11084  0C6D  1D03               	goto	u3291
 11085  0C6E  2C70               	goto	u3290
 11086  0C6F  2C71               u3291:
 11087  0C70                     	goto	l2874
 11088  0C70  2C74               u3290:
 11089  0C71                     	line	219
 11090                           	
 11091                           l2872:	
 11092  0C71                     	clrf	(___fladd@signs)
 11093  0C71  01B4               	goto	l2874
 11094  0C72  2C74               	line	220
 11095                           	
 11096                           l610:	
 11097  0C73                     	goto	l2874
 11098  0C73  2C74               	line	221
 11099                           	
 11100                           l607:	
 11101  0C74                     	line	225
 11102                           	
 11103                           l2874:	
 11104  0C74                     	btfss	(___fladd@bexp),(0)&7
 11105  0C74  1C36               	goto	u3301
 11106  0C75  2C77               	goto	u3300
 11107  0C76  2C78               u3301:
 11108  0C77                     	goto	l2878
 11109  0C77  2C7A               u3300:
 11110  0C78                     	line	226
 11111                           	
 11112                           l2876:	
 11113  0C78                     	bsf	0+(___fladd@b)+02h+(7/8),(7)&7
 11114  0C78  17A2               	line	227
 11115                           	goto	l612
 11116  0C79  2C7E               	line	229
 11117                           	
 11118                           l611:	
 11119  0C7A                     	line	230
 11120                           	
 11121                           l2878:	
 11122  0C7A                     	movlw	low(07Fh)
 11123  0C7A  307F               	movwf	(??___fladd+0)+0
 11124  0C7B  00A8               	movf	(??___fladd+0)+0,w
 11125  0C7C  0828               	andwf	0+(___fladd@b)+02h,f
 11126  0C7D  05A2               	line	231
 11127                           	
 11128                           l612:	
 11129  0C7E                     	line	232
 11130                           	movf	(___fladd@bexp),w
 11131  0C7E  0836               	movwf	(??___fladd+0)+0
 11132  0C7F  00A8               	clrc
 11133  0C80  1003               	rrf	(??___fladd+0)+0,w
 11134  0C81  0C28               	movwf	(??___fladd+1)+0
 11135  0C82  00A9               	movf	(??___fladd+1)+0,w
 11136  0C83  0829               	movwf	0+(___fladd@b)+03h
 11137  0C84  00A3               	line	233
 11138                           	
 11139                           l2880:	
 11140  0C85                     	btfss	(___fladd@signs),(7)&7
 11141  0C85  1FB4               	goto	u3311
 11142  0C86  2C88               	goto	u3310
 11143  0C87  2C89               u3311:
 11144  0C88                     	goto	l613
 11145  0C88  2C8A               u3310:
 11146  0C89                     	line	234
 11147                           	
 11148                           l2882:	
 11149  0C89                     	bsf	0+(___fladd@b)+03h+(7/8),(7)&7
 11150  0C89  17A3               	line	235
 11151                           	
 11152                           l613:	
 11153  0C8A                     	line	236
 11154                           	line	237
 11155                           	
 11156                           l583:	
 11157  0C8A                     	return
 11158  0C8A  0008               	opt stack 0
 11159                           GLOBAL	__end_of___fladd
 11160                           	__end_of___fladd:
 11161  0C8B                     	signat	___fladd,8316
 11162                           	global	___awmod
 11163                           
 11164 ;; *************** function ___awmod *****************
 11165 ;; Defined at:
 11166 ;;		line 5 in file "C:\Program Files (x86)\Microchip\xc8\v2.00\pic\sources\c90\common\awmod.c"
 11167 ;; Parameters:    Size  Location     Type
 11168 ;;  divisor         2    0[COMMON] int 
 11169 ;;  dividend        2    2[COMMON] int 
 11170 ;; Auto vars:     Size  Location     Type
 11171 ;;  sign            1    6[COMMON] unsigned char 
 11172 ;;  counter         1    5[COMMON] unsigned char 
 11173 ;; Return value:  Size  Location     Type
 11174 ;;                  2    0[COMMON] int 
 11175 ;; Registers used:
 11176 ;;		wreg, status,2, status,0
 11177 ;; Tracked objects:
 11178 ;;		On entry : 0/0
 11179 ;;		On exit  : 0/0
 11180 ;;		Unchanged: 0/0
 11181 ;; Data sizes:     COMMON   BANK0   BANK1   BANK3   BANK2
 11182 ;;      Params:         4       0       0       0       0
 11183 ;;      Locals:         2       0       0       0       0
 11184 ;;      Temps:          1       0       0       0       0
 11185 ;;      Totals:         7       0       0       0       0
 11186 ;;Total ram usage:        7 bytes
 11187 ;; Hardware stack levels used:    1
 11188 ;; This function calls:
 11189 ;;		Nothing
 11190 ;; This function is called by:
 11191 ;;		_main
 11192 ;; This function uses a non-reentrant model
 11193 ;;
 11194                           psect	text15,local,class=CODE,delta=2,merge=1,group=1
 11195                           	file	"C:\Program Files (x86)\Microchip\xc8\v2.00\pic\sources\c90\common\awmod.c"
 11196                           	line	5
 11197                           global __ptext15
 11198                           __ptext15:	;psect for function ___awmod
 11199  11D5                     psect	text15
 11200                           	file	"C:\Program Files (x86)\Microchip\xc8\v2.00\pic\sources\c90\common\awmod.c"
 11201                           	line	5
 11202                           	global	__size_of___awmod
 11203                           	__size_of___awmod	equ	__end_of___awmod-___awmod
 11204  0063                     	
 11205                           ___awmod:	
 11206  11D5                     ;incstack = 0
 11207                           	opt	stack 7
 11208                           ; Regs used in ___awmod: [wreg+status,2+status,0]
 11209                           	line	12
 11210                           	
 11211                           l2616:	
 11212  11D5                     	clrf	(___awmod@sign)
 11213  11D5  01F6               	line	13
 11214                           	
 11215                           l2618:	
 11216  11D6                     	btfss	(___awmod@dividend+1),7
 11217  11D6  1FF3               	goto	u2671
 11218  11D7  29D9               	goto	u2670
 11219  11D8  29DA               u2671:
 11220  11D9                     	goto	l2624
 11221  11D9  29E2               u2670:
 11222  11DA                     	line	14
 11223                           	
 11224                           l2620:	
 11225  11DA                     	comf	(___awmod@dividend),f
 11226  11DA  09F2               	comf	(___awmod@dividend+1),f
 11227  11DB  09F3               	incf	(___awmod@dividend),f
 11228  11DC  0AF2               	skipnz
 11229  11DD  1903               	incf	(___awmod@dividend+1),f
 11230  11DE  0AF3               	line	15
 11231                           	
 11232                           l2622:	
 11233  11DF                     	clrf	(___awmod@sign)
 11234  11DF  01F6               	incf	(___awmod@sign),f
 11235  11E0  0AF6               	goto	l2624
 11236  11E1  29E2               	line	16
 11237                           	
 11238                           l433:	
 11239  11E2                     	line	17
 11240                           	
 11241                           l2624:	
 11242  11E2                     	btfss	(___awmod@divisor+1),7
 11243  11E2  1FF1               	goto	u2681
 11244  11E3  29E5               	goto	u2680
 11245  11E4  29E6               u2681:
 11246  11E5                     	goto	l2628
 11247  11E5  29EC               u2680:
 11248  11E6                     	line	18
 11249                           	
 11250                           l2626:	
 11251  11E6                     	comf	(___awmod@divisor),f
 11252  11E6  09F0               	comf	(___awmod@divisor+1),f
 11253  11E7  09F1               	incf	(___awmod@divisor),f
 11254  11E8  0AF0               	skipnz
 11255  11E9  1903               	incf	(___awmod@divisor+1),f
 11256  11EA  0AF1               	goto	l2628
 11257  11EB  29EC               	
 11258                           l434:	
 11259  11EC                     	line	19
 11260                           	
 11261                           l2628:	
 11262  11EC                     	movf	((___awmod@divisor)),w
 11263  11EC  0870               iorwf	((___awmod@divisor+1)),w
 11264  11ED  0471               	btfsc	status,2
 11265  11EE  1903               	goto	u2691
 11266  11EF  29F1               	goto	u2690
 11267  11F0  29F2               u2691:
 11268  11F1                     	goto	l2646
 11269  11F1  2A27               u2690:
 11270  11F2                     	line	20
 11271                           	
 11272                           l2630:	
 11273  11F2                     	clrf	(___awmod@counter)
 11274  11F2  01F5               	incf	(___awmod@counter),f
 11275  11F3  0AF5               	line	21
 11276                           	goto	l2636
 11277  11F4  2A01               	
 11278                           l437:	
 11279  11F5                     	line	22
 11280                           	
 11281                           l2632:	
 11282  11F5                     	movlw	01h
 11283  11F5  3001               	
 11284                           u2705:
 11285  11F6                     	clrc
 11286  11F6  1003               	rlf	(___awmod@divisor),f
 11287  11F7  0DF0               	rlf	(___awmod@divisor+1),f
 11288  11F8  0DF1               	addlw	-1
 11289  11F9  3EFF               	skipz
 11290  11FA  1D03               	goto	u2705
 11291  11FB  29F6               	line	23
 11292                           	
 11293                           l2634:	
 11294  11FC                     	movlw	low(01h)
 11295  11FC  3001               	movwf	(??___awmod+0)+0
 11296  11FD  00F4               	movf	(??___awmod+0)+0,w
 11297  11FE  0874               	addwf	(___awmod@counter),f
 11298  11FF  07F5               	goto	l2636
 11299  1200  2A01               	line	24
 11300                           	
 11301                           l436:	
 11302  1201                     	line	21
 11303                           	
 11304                           l2636:	
 11305  1201                     	btfss	(___awmod@divisor+1),(15)&7
 11306  1201  1FF1               	goto	u2711
 11307  1202  2A04               	goto	u2710
 11308  1203  2A05               u2711:
 11309  1204                     	goto	l2632
 11310  1204  29F5               u2710:
 11311  1205                     	goto	l2638
 11312  1205  2A07               	
 11313                           l438:	
 11314  1206                     	goto	l2638
 11315  1206  2A07               	line	25
 11316                           	
 11317                           l439:	
 11318  1207                     	line	26
 11319                           	
 11320                           l2638:	
 11321  1207                     	movf	(___awmod@divisor+1),w
 11322  1207  0871               	subwf	(___awmod@dividend+1),w
 11323  1208  0273               	skipz
 11324  1209  1D03               	goto	u2725
 11325  120A  2A0D               	movf	(___awmod@divisor),w
 11326  120B  0870               	subwf	(___awmod@dividend),w
 11327  120C  0272               u2725:
 11328  120D                     	skipc
 11329  120D  1C03               	goto	u2721
 11330  120E  2A10               	goto	u2720
 11331  120F  2A11               u2721:
 11332  1210                     	goto	l2642
 11333  1210  2A18               u2720:
 11334  1211                     	line	27
 11335                           	
 11336                           l2640:	
 11337  1211                     	movf	(___awmod@divisor),w
 11338  1211  0870               	subwf	(___awmod@dividend),f
 11339  1212  02F2               	movf	(___awmod@divisor+1),w
 11340  1213  0871               	skipc
 11341  1214  1C03               	decf	(___awmod@dividend+1),f
 11342  1215  03F3               	subwf	(___awmod@dividend+1),f
 11343  1216  02F3               	goto	l2642
 11344  1217  2A18               	
 11345                           l440:	
 11346  1218                     	line	28
 11347                           	
 11348                           l2642:	
 11349  1218                     	movlw	01h
 11350  1218  3001               	
 11351                           u2735:
 11352  1219                     	clrc
 11353  1219  1003               	rrf	(___awmod@divisor+1),f
 11354  121A  0CF1               	rrf	(___awmod@divisor),f
 11355  121B  0CF0               	addlw	-1
 11356  121C  3EFF               	skipz
 11357  121D  1D03               	goto	u2735
 11358  121E  2A19               	line	29
 11359                           	
 11360                           l2644:	
 11361  121F                     	movlw	01h
 11362  121F  3001               	subwf	(___awmod@counter),f
 11363  1220  02F5               	btfss	status,2
 11364  1221  1D03               	goto	u2741
 11365  1222  2A24               	goto	u2740
 11366  1223  2A25               u2741:
 11367  1224                     	goto	l2638
 11368  1224  2A07               u2740:
 11369  1225                     	goto	l2646
 11370  1225  2A27               	
 11371                           l441:	
 11372  1226                     	goto	l2646
 11373  1226  2A27               	line	30
 11374                           	
 11375                           l435:	
 11376  1227                     	line	31
 11377                           	
 11378                           l2646:	
 11379  1227                     	movf	((___awmod@sign)),w
 11380  1227  0876               	btfsc	status,2
 11381  1228  1903               	goto	u2751
 11382  1229  2A2B               	goto	u2750
 11383  122A  2A2C               u2751:
 11384  122B                     	goto	l2650
 11385  122B  2A32               u2750:
 11386  122C                     	line	32
 11387                           	
 11388                           l2648:	
 11389  122C                     	comf	(___awmod@dividend),f
 11390  122C  09F2               	comf	(___awmod@dividend+1),f
 11391  122D  09F3               	incf	(___awmod@dividend),f
 11392  122E  0AF2               	skipnz
 11393  122F  1903               	incf	(___awmod@dividend+1),f
 11394  1230  0AF3               	goto	l2650
 11395  1231  2A32               	
 11396                           l442:	
 11397  1232                     	line	33
 11398                           	
 11399                           l2650:	
 11400  1232                     	movf	(___awmod@dividend+1),w
 11401  1232  0873               	movwf	(?___awmod+1)
 11402  1233  00F1               	movf	(___awmod@dividend),w
 11403  1234  0872               	movwf	(?___awmod)
 11404  1235  00F0               	goto	l443
 11405  1236  2A37               	
 11406                           l2652:	
 11407  1237                     	line	34
 11408                           	
 11409                           l443:	
 11410  1237                     	return
 11411  1237  0008               	opt stack 0
 11412                           GLOBAL	__end_of___awmod
 11413                           	__end_of___awmod:
 11414  1238                     	signat	___awmod,8314
 11415                           	global	___awdiv
 11416                           
 11417 ;; *************** function ___awdiv *****************
 11418 ;; Defined at:
 11419 ;;		line 5 in file "C:\Program Files (x86)\Microchip\xc8\v2.00\pic\sources\c90\common\awdiv.c"
 11420 ;; Parameters:    Size  Location     Type
 11421 ;;  divisor         2    0[COMMON] int 
 11422 ;;  dividend        2    2[COMMON] int 
 11423 ;; Auto vars:     Size  Location     Type
 11424 ;;  quotient        2    7[COMMON] int 
 11425 ;;  sign            1    6[COMMON] unsigned char 
 11426 ;;  counter         1    5[COMMON] unsigned char 
 11427 ;; Return value:  Size  Location     Type
 11428 ;;                  2    0[COMMON] int 
 11429 ;; Registers used:
 11430 ;;		wreg, status,2, status,0
 11431 ;; Tracked objects:
 11432 ;;		On entry : 0/0
 11433 ;;		On exit  : 0/0
 11434 ;;		Unchanged: 0/0
 11435 ;; Data sizes:     COMMON   BANK0   BANK1   BANK3   BANK2
 11436 ;;      Params:         4       0       0       0       0
 11437 ;;      Locals:         4       0       0       0       0
 11438 ;;      Temps:          1       0       0       0       0
 11439 ;;      Totals:         9       0       0       0       0
 11440 ;;Total ram usage:        9 bytes
 11441 ;; Hardware stack levels used:    1
 11442 ;; This function calls:
 11443 ;;		Nothing
 11444 ;; This function is called by:
 11445 ;;		_main
 11446 ;; This function uses a non-reentrant model
 11447 ;;
 11448                           psect	text16,local,class=CODE,delta=2,merge=1,group=1
 11449                           	file	"C:\Program Files (x86)\Microchip\xc8\v2.00\pic\sources\c90\common\awdiv.c"
 11450                           	line	5
 11451                           global __ptext16
 11452                           __ptext16:	;psect for function ___awdiv
 11453  1238                     psect	text16
 11454                           	file	"C:\Program Files (x86)\Microchip\xc8\v2.00\pic\sources\c90\common\awdiv.c"
 11455                           	line	5
 11456                           	global	__size_of___awdiv
 11457                           	__size_of___awdiv	equ	__end_of___awdiv-___awdiv
 11458  0071                     	
 11459                           ___awdiv:	
 11460  1238                     ;incstack = 0
 11461                           	opt	stack 7
 11462                           ; Regs used in ___awdiv: [wreg+status,2+status,0]
 11463                           	line	13
 11464                           	
 11465                           l2572:	
 11466  1238                     	clrf	(___awdiv@sign)
 11467  1238  01F6               	line	14
 11468                           	
 11469                           l2574:	
 11470  1239                     	btfss	(___awdiv@divisor+1),7
 11471  1239  1FF1               	goto	u2571
 11472  123A  2A3C               	goto	u2570
 11473  123B  2A3D               u2571:
 11474  123C                     	goto	l2580
 11475  123C  2A45               u2570:
 11476  123D                     	line	15
 11477                           	
 11478                           l2576:	
 11479  123D                     	comf	(___awdiv@divisor),f
 11480  123D  09F0               	comf	(___awdiv@divisor+1),f
 11481  123E  09F1               	incf	(___awdiv@divisor),f
 11482  123F  0AF0               	skipnz
 11483  1240  1903               	incf	(___awdiv@divisor+1),f
 11484  1241  0AF1               	line	16
 11485                           	
 11486                           l2578:	
 11487  1242                     	clrf	(___awdiv@sign)
 11488  1242  01F6               	incf	(___awdiv@sign),f
 11489  1243  0AF6               	goto	l2580
 11490  1244  2A45               	line	17
 11491                           	
 11492                           l420:	
 11493  1245                     	line	18
 11494                           	
 11495                           l2580:	
 11496  1245                     	btfss	(___awdiv@dividend+1),7
 11497  1245  1FF3               	goto	u2581
 11498  1246  2A48               	goto	u2580
 11499  1247  2A49               u2581:
 11500  1248                     	goto	l2586
 11501  1248  2A53               u2580:
 11502  1249                     	line	19
 11503                           	
 11504                           l2582:	
 11505  1249                     	comf	(___awdiv@dividend),f
 11506  1249  09F2               	comf	(___awdiv@dividend+1),f
 11507  124A  09F3               	incf	(___awdiv@dividend),f
 11508  124B  0AF2               	skipnz
 11509  124C  1903               	incf	(___awdiv@dividend+1),f
 11510  124D  0AF3               	line	20
 11511                           	
 11512                           l2584:	
 11513  124E                     	movlw	low(01h)
 11514  124E  3001               	movwf	(??___awdiv+0)+0
 11515  124F  00F4               	movf	(??___awdiv+0)+0,w
 11516  1250  0874               	xorwf	(___awdiv@sign),f
 11517  1251  06F6               	goto	l2586
 11518  1252  2A53               	line	21
 11519                           	
 11520                           l421:	
 11521  1253                     	line	22
 11522                           	
 11523                           l2586:	
 11524  1253                     	clrf	(___awdiv@quotient)
 11525  1253  01F7               	clrf	(___awdiv@quotient+1)
 11526  1254  01F8               	line	23
 11527                           	
 11528                           l2588:	
 11529  1255                     	movf	((___awdiv@divisor)),w
 11530  1255  0870               iorwf	((___awdiv@divisor+1)),w
 11531  1256  0471               	btfsc	status,2
 11532  1257  1903               	goto	u2591
 11533  1258  2A5A               	goto	u2590
 11534  1259  2A5B               u2591:
 11535  125A                     	goto	l2608
 11536  125A  2A98               u2590:
 11537  125B                     	line	24
 11538                           	
 11539                           l2590:	
 11540  125B                     	clrf	(___awdiv@counter)
 11541  125B  01F5               	incf	(___awdiv@counter),f
 11542  125C  0AF5               	line	25
 11543                           	goto	l2596
 11544  125D  2A6A               	
 11545                           l424:	
 11546  125E                     	line	26
 11547                           	
 11548                           l2592:	
 11549  125E                     	movlw	01h
 11550  125E  3001               	
 11551                           u2605:
 11552  125F                     	clrc
 11553  125F  1003               	rlf	(___awdiv@divisor),f
 11554  1260  0DF0               	rlf	(___awdiv@divisor+1),f
 11555  1261  0DF1               	addlw	-1
 11556  1262  3EFF               	skipz
 11557  1263  1D03               	goto	u2605
 11558  1264  2A5F               	line	27
 11559                           	
 11560                           l2594:	
 11561  1265                     	movlw	low(01h)
 11562  1265  3001               	movwf	(??___awdiv+0)+0
 11563  1266  00F4               	movf	(??___awdiv+0)+0,w
 11564  1267  0874               	addwf	(___awdiv@counter),f
 11565  1268  07F5               	goto	l2596
 11566  1269  2A6A               	line	28
 11567                           	
 11568                           l423:	
 11569  126A                     	line	25
 11570                           	
 11571                           l2596:	
 11572  126A                     	btfss	(___awdiv@divisor+1),(15)&7
 11573  126A  1FF1               	goto	u2611
 11574  126B  2A6D               	goto	u2610
 11575  126C  2A6E               u2611:
 11576  126D                     	goto	l2592
 11577  126D  2A5E               u2610:
 11578  126E                     	goto	l2598
 11579  126E  2A70               	
 11580                           l425:	
 11581  126F                     	goto	l2598
 11582  126F  2A70               	line	29
 11583                           	
 11584                           l426:	
 11585  1270                     	line	30
 11586                           	
 11587                           l2598:	
 11588  1270                     	movlw	01h
 11589  1270  3001               	
 11590                           u2625:
 11591  1271                     	clrc
 11592  1271  1003               	rlf	(___awdiv@quotient),f
 11593  1272  0DF7               	rlf	(___awdiv@quotient+1),f
 11594  1273  0DF8               	addlw	-1
 11595  1274  3EFF               	skipz
 11596  1275  1D03               	goto	u2625
 11597  1276  2A71               	line	31
 11598                           	movf	(___awdiv@divisor+1),w
 11599  1277  0871               	subwf	(___awdiv@dividend+1),w
 11600  1278  0273               	skipz
 11601  1279  1D03               	goto	u2635
 11602  127A  2A7D               	movf	(___awdiv@divisor),w
 11603  127B  0870               	subwf	(___awdiv@dividend),w
 11604  127C  0272               u2635:
 11605  127D                     	skipc
 11606  127D  1C03               	goto	u2631
 11607  127E  2A80               	goto	u2630
 11608  127F  2A81               u2631:
 11609  1280                     	goto	l2604
 11610  1280  2A89               u2630:
 11611  1281                     	line	32
 11612                           	
 11613                           l2600:	
 11614  1281                     	movf	(___awdiv@divisor),w
 11615  1281  0870               	subwf	(___awdiv@dividend),f
 11616  1282  02F2               	movf	(___awdiv@divisor+1),w
 11617  1283  0871               	skipc
 11618  1284  1C03               	decf	(___awdiv@dividend+1),f
 11619  1285  03F3               	subwf	(___awdiv@dividend+1),f
 11620  1286  02F3               	line	33
 11621                           	
 11622                           l2602:	
 11623  1287                     	bsf	(___awdiv@quotient)+(0/8),(0)&7
 11624  1287  1477               	goto	l2604
 11625  1288  2A89               	line	34
 11626                           	
 11627                           l427:	
 11628  1289                     	line	35
 11629                           	
 11630                           l2604:	
 11631  1289                     	movlw	01h
 11632  1289  3001               	
 11633                           u2645:
 11634  128A                     	clrc
 11635  128A  1003               	rrf	(___awdiv@divisor+1),f
 11636  128B  0CF1               	rrf	(___awdiv@divisor),f
 11637  128C  0CF0               	addlw	-1
 11638  128D  3EFF               	skipz
 11639  128E  1D03               	goto	u2645
 11640  128F  2A8A               	line	36
 11641                           	
 11642                           l2606:	
 11643  1290                     	movlw	01h
 11644  1290  3001               	subwf	(___awdiv@counter),f
 11645  1291  02F5               	btfss	status,2
 11646  1292  1D03               	goto	u2651
 11647  1293  2A95               	goto	u2650
 11648  1294  2A96               u2651:
 11649  1295                     	goto	l2598
 11650  1295  2A70               u2650:
 11651  1296                     	goto	l2608
 11652  1296  2A98               	
 11653                           l428:	
 11654  1297                     	goto	l2608
 11655  1297  2A98               	line	37
 11656                           	
 11657                           l422:	
 11658  1298                     	line	38
 11659                           	
 11660                           l2608:	
 11661  1298                     	movf	((___awdiv@sign)),w
 11662  1298  0876               	btfsc	status,2
 11663  1299  1903               	goto	u2661
 11664  129A  2A9C               	goto	u2660
 11665  129B  2A9D               u2661:
 11666  129C                     	goto	l2612
 11667  129C  2AA3               u2660:
 11668  129D                     	line	39
 11669                           	
 11670                           l2610:	
 11671  129D                     	comf	(___awdiv@quotient),f
 11672  129D  09F7               	comf	(___awdiv@quotient+1),f
 11673  129E  09F8               	incf	(___awdiv@quotient),f
 11674  129F  0AF7               	skipnz
 11675  12A0  1903               	incf	(___awdiv@quotient+1),f
 11676  12A1  0AF8               	goto	l2612
 11677  12A2  2AA3               	
 11678                           l429:	
 11679  12A3                     	line	40
 11680                           	
 11681                           l2612:	
 11682  12A3                     	movf	(___awdiv@quotient+1),w
 11683  12A3  0878               	movwf	(?___awdiv+1)
 11684  12A4  00F1               	movf	(___awdiv@quotient),w
 11685  12A5  0877               	movwf	(?___awdiv)
 11686  12A6  00F0               	goto	l430
 11687  12A7  2AA8               	
 11688                           l2614:	
 11689  12A8                     	line	41
 11690                           	
 11691                           l430:	
 11692  12A8                     	return
 11693  12A8  0008               	opt stack 0
 11694                           GLOBAL	__end_of___awdiv
 11695                           	__end_of___awdiv:
 11696  12A9                     	signat	___awdiv,8314
 11697                           	global	_UART_Init
 11698                           
 11699 ;; *************** function _UART_Init *****************
 11700 ;; Defined at:
 11701 ;;		line 40 in file "ROKZ1.c"
 11702 ;; Parameters:    Size  Location     Type
 11703 ;;		None
 11704 ;; Auto vars:     Size  Location     Type
 11705 ;;		None
 11706 ;; Return value:  Size  Location     Type
 11707 ;;                  1    wreg      void 
 11708 ;; Registers used:
 11709 ;;		wreg
 11710 ;; Tracked objects:
 11711 ;;		On entry : 0/0
 11712 ;;		On exit  : 0/0
 11713 ;;		Unchanged: 0/0
 11714 ;; Data sizes:     COMMON   BANK0   BANK1   BANK3   BANK2
 11715 ;;      Params:         0       0       0       0       0
 11716 ;;      Locals:         0       0       0       0       0
 11717 ;;      Temps:          0       0       0       0       0
 11718 ;;      Totals:         0       0       0       0       0
 11719 ;;Total ram usage:        0 bytes
 11720 ;; Hardware stack levels used:    1
 11721 ;; This function calls:
 11722 ;;		Nothing
 11723 ;; This function is called by:
 11724 ;;		_main
 11725 ;; This function uses a non-reentrant model
 11726 ;;
 11727                           psect	text17,local,class=CODE,delta=2,merge=1,group=0
 11728                           	file	"ROKZ1.c"
 11729                           	line	40
 11730                           global __ptext17
 11731                           __ptext17:	;psect for function _UART_Init
 11732  1FB5                     psect	text17
 11733                           	file	"ROKZ1.c"
 11734                           	line	40
 11735                           	global	__size_of_UART_Init
 11736                           	__size_of_UART_Init	equ	__end_of_UART_Init-_UART_Init
 11737  0016                     	
 11738                           _UART_Init:	
 11739  1FB5                     ;incstack = 0
 11740                           	opt	stack 7
 11741                           ; Regs used in _UART_Init: [wreg]
 11742                           	line	41
 11743                           	
 11744                           l2470:	
 11745  1FB5                     ;ROKZ1.c: 41:     TRISC6=0;
 11746                           	bsf	status, 5	;RP0=1, select bank1
 11747  1FB5  1683               	bcf	status, 6	;RP1=0, select bank1
 11748  1FB6  1303               	bcf	(1086/8)^080h,(1086)&7	;volatile
 11749  1FB7  1307               	line	42
 11750                           ;ROKZ1.c: 42:     TRISC7=1;
 11751                           	bsf	(1087/8)^080h,(1087)&7	;volatile
 11752  1FB8  1787               	line	44
 11753                           	
 11754                           l2472:	
 11755  1FB9                     ;ROKZ1.c: 44:     SPBRG=((20000000/16)/9600)-1;
 11756                           	movlw	low(081h)
 11757  1FB9  3081               	movwf	(153)^080h	;volatile
 11758  1FBA  0099               	line	45
 11759                           	
 11760                           l2474:	
 11761  1FBB                     ;ROKZ1.c: 45:     BRGH=1;
 11762                           	bsf	(1218/8)^080h,(1218)&7	;volatile
 11763  1FBB  1518               	line	47
 11764                           	
 11765                           l2476:	
 11766  1FBC                     ;ROKZ1.c: 47:     SYNC=0;
 11767                           	bcf	(1220/8)^080h,(1220)&7	;volatile
 11768  1FBC  1218               	line	48
 11769                           	
 11770                           l2478:	
 11771  1FBD                     ;ROKZ1.c: 48:     SPEN=1;
 11772                           	bcf	status, 5	;RP0=0, select bank0
 11773  1FBD  1283               	bcf	status, 6	;RP1=0, select bank0
 11774  1FBE  1303               	bsf	(199/8),(199)&7	;volatile
 11775  1FBF  1798               	line	50
 11776                           	
 11777                           l2480:	
 11778  1FC0                     ;ROKZ1.c: 50:     CREN=1;
 11779                           	bsf	(196/8),(196)&7	;volatile
 11780  1FC0  1618               	line	51
 11781                           	
 11782                           l2482:	
 11783  1FC1                     ;ROKZ1.c: 51:     TXEN=1;
 11784                           	bsf	status, 5	;RP0=1, select bank1
 11785  1FC1  1683               	bcf	status, 6	;RP1=0, select bank1
 11786  1FC2  1303               	bsf	(1221/8)^080h,(1221)&7	;volatile
 11787  1FC3  1698               	line	53
 11788                           	
 11789                           l2484:	
 11790  1FC4                     ;ROKZ1.c: 53:     RX9=0;
 11791                           	bcf	status, 5	;RP0=0, select bank0
 11792  1FC4  1283               	bcf	status, 6	;RP1=0, select bank0
 11793  1FC5  1303               	bcf	(198/8),(198)&7	;volatile
 11794  1FC6  1318               	line	54
 11795                           	
 11796                           l2486:	
 11797  1FC7                     ;ROKZ1.c: 54:     TX9=0;
 11798                           	bsf	status, 5	;RP0=1, select bank1
 11799  1FC7  1683               	bcf	status, 6	;RP1=0, select bank1
 11800  1FC8  1303               	bcf	(1222/8)^080h,(1222)&7	;volatile
 11801  1FC9  1318               	line	55
 11802                           	
 11803                           l73:	
 11804  1FCA                     	return
 11805  1FCA  0008               	opt stack 0
 11806                           GLOBAL	__end_of_UART_Init
 11807                           	__end_of_UART_Init:
 11808  1FCB                     	signat	_UART_Init,89
 11809                           	global	_UART_Get_Char
 11810                           
 11811 ;; *************** function _UART_Get_Char *****************
 11812 ;; Defined at:
 11813 ;;		line 62 in file "ROKZ1.c"
 11814 ;; Parameters:    Size  Location     Type
 11815 ;;		None
 11816 ;; Auto vars:     Size  Location     Type
 11817 ;;		None
 11818 ;; Return value:  Size  Location     Type
 11819 ;;                  1    wreg      unsigned char 
 11820 ;; Registers used:
 11821 ;;		wreg
 11822 ;; Tracked objects:
 11823 ;;		On entry : 0/0
 11824 ;;		On exit  : 0/0
 11825 ;;		Unchanged: 0/0
 11826 ;; Data sizes:     COMMON   BANK0   BANK1   BANK3   BANK2
 11827 ;;      Params:         0       0       0       0       0
 11828 ;;      Locals:         0       0       0       0       0
 11829 ;;      Temps:          0       0       0       0       0
 11830 ;;      Totals:         0       0       0       0       0
 11831 ;;Total ram usage:        0 bytes
 11832 ;; Hardware stack levels used:    1
 11833 ;; This function calls:
 11834 ;;		Nothing
 11835 ;; This function is called by:
 11836 ;;		_main
 11837 ;; This function uses a non-reentrant model
 11838 ;;
 11839                           psect	text18,local,class=CODE,delta=2,merge=1,group=0
 11840                           	line	62
 11841                           global __ptext18
 11842                           __ptext18:	;psect for function _UART_Get_Char
 11843  1F7B                     psect	text18
 11844                           	file	"ROKZ1.c"
 11845                           	line	62
 11846                           	global	__size_of_UART_Get_Char
 11847                           	__size_of_UART_Get_Char	equ	__end_of_UART_Get_Char-_UART_Get_Char
 11848  0012                     	
 11849                           _UART_Get_Char:	
 11850  1F7B                     ;incstack = 0
 11851                           	opt	stack 7
 11852                           ; Regs used in _UART_Get_Char: [wreg]
 11853                           	line	63
 11854                           	
 11855                           l2488:	
 11856  1F7B                     ;ROKZ1.c: 63:     if(OERR) {
 11857                           	bcf	status, 5	;RP0=0, select bank0
 11858  1F7B  1283               	bcf	status, 6	;RP1=0, select bank0
 11859  1F7C  1303               	btfss	(193/8),(193)&7	;volatile
 11860  1F7D  1C98               	goto	u2441
 11861  1F7E  2F80               	goto	u2440
 11862  1F7F  2F81               u2441:
 11863  1F80                     	goto	l83
 11864  1F80  2F85               u2440:
 11865  1F81                     	line	64
 11866                           	
 11867                           l2490:	
 11868  1F81                     ;ROKZ1.c: 64:         CREN=0;
 11869                           	bcf	(196/8),(196)&7	;volatile
 11870  1F81  1218               	line	65
 11871                           ;ROKZ1.c: 65:         CREN=1;
 11872                           	bsf	(196/8),(196)&7	;volatile
 11873  1F82  1618               	goto	l83
 11874  1F83  2F85               	line	66
 11875                           ;ROKZ1.c: 66:     }
 11876                           	
 11877                           l82:	
 11878  1F84                     	line	67
 11879                           ;ROKZ1.c: 67:     while(!RCIF);
 11880                           	goto	l83
 11881  1F84  2F85               	
 11882                           l84:	
 11883  1F85                     	
 11884                           l83:	
 11885  1F85                     	btfss	(101/8),(101)&7	;volatile
 11886  1F85  1E8C               	goto	u2451
 11887  1F86  2F88               	goto	u2450
 11888  1F87  2F89               u2451:
 11889  1F88                     	goto	l83
 11890  1F88  2F85               u2450:
 11891  1F89                     	goto	l2492
 11892  1F89  2F8A               	
 11893                           l85:	
 11894  1F8A                     	line	68
 11895                           	
 11896                           l2492:	
 11897  1F8A                     ;ROKZ1.c: 68:     return RCREG;
 11898                           	movf	(26),w	;volatile
 11899  1F8A  081A               	goto	l86
 11900  1F8B  2F8C               	
 11901                           l2494:	
 11902  1F8C                     	line	69
 11903                           	
 11904                           l86:	
 11905  1F8C                     	return
 11906  1F8C  0008               	opt stack 0
 11907                           GLOBAL	__end_of_UART_Get_Char
 11908                           	__end_of_UART_Get_Char:
 11909  1F8D                     	signat	_UART_Get_Char,89
 11910                           	global	_Lcd_Write_String
 11911                           
 11912 ;; *************** function _Lcd_Write_String *****************
 11913 ;; Defined at:
 11914 ;;		line 158 in file "ROKZ1.c"
 11915 ;; Parameters:    Size  Location     Type
 11916 ;;  a               2    5[COMMON] PTR unsigned char 
 11917 ;;		 -> main@buffer4(20), STR_31(13), main@buffer3(20), STR_24(11), 
 11918 ;;		 -> main@buffer2(20), STR_17(12), main@buffer1(20), STR_10(12), 
 11919 ;; Auto vars:     Size  Location     Type
 11920 ;;  i               2   10[COMMON] int 
 11921 ;; Return value:  Size  Location     Type
 11922 ;;                  1    wreg      void 
 11923 ;; Registers used:
 11924 ;;		wreg, fsr0l, fsr0h, status,2, status,0, btemp+1, pclath, cstack
 11925 ;; Tracked objects:
 11926 ;;		On entry : 0/0
 11927 ;;		On exit  : 0/0
 11928 ;;		Unchanged: 0/0
 11929 ;; Data sizes:     COMMON   BANK0   BANK1   BANK3   BANK2
 11930 ;;      Params:         2       0       0       0       0
 11931 ;;      Locals:         2       0       0       0       0
 11932 ;;      Temps:          3       0       0       0       0
 11933 ;;      Totals:         7       0       0       0       0
 11934 ;;Total ram usage:        7 bytes
 11935 ;; Hardware stack levels used:    1
 11936 ;; Hardware stack levels required when called:    2
 11937 ;; This function calls:
 11938 ;;		_Lcd_Write_Char
 11939 ;; This function is called by:
 11940 ;;		_main
 11941 ;; This function uses a non-reentrant model
 11942 ;;
 11943                           psect	text19,local,class=CODE,delta=2,merge=1,group=0
 11944                           	line	158
 11945                           global __ptext19
 11946                           __ptext19:	;psect for function _Lcd_Write_String
 11947  10E8                     psect	text19
 11948                           	file	"ROKZ1.c"
 11949                           	line	158
 11950                           	global	__size_of_Lcd_Write_String
 11951                           	__size_of_Lcd_Write_String	equ	__end_of_Lcd_Write_String-_Lcd_Write_String
 11952  0044                     	
 11953                           _Lcd_Write_String:	
 11954  10E8                     ;incstack = 0
 11955                           	opt	stack 5
 11956                           ; Regs used in _Lcd_Write_String: [wreg-fsr0h+status,2+status,0+btemp+1+pclath+cstack]
 11957                           	line	160
 11958                           	
 11959                           l2528:	
 11960  10E8                     ;ROKZ1.c: 159:     int i;;ROKZ1.c: 160:     for(i=0;a[i]!='\0';i++) {
 11961                           	clrf	(Lcd_Write_String@i)
 11962  10E8  01FA               	clrf	(Lcd_Write_String@i+1)
 11963  10E9  01FB               	goto	l2534
 11964  10EA  290E               	
 11965                           l122:	
 11966  10EB                     	line	161
 11967                           	
 11968                           l2530:	
 11969  10EB                     ;ROKZ1.c: 161:         Lcd_Write_Char(a[i]);
 11970                           	movf	(Lcd_Write_String@i),w
 11971  10EB  087A               	addwf	(Lcd_Write_String@a),w
 11972  10EC  0775               	movwf	(??_Lcd_Write_String+1)+0
 11973  10ED  00F8               	movf	(Lcd_Write_String@a+1),w
 11974  10EE  0876               	movwf	(??_Lcd_Write_String+0)+0
 11975  10EF  00F7               	skipnc
 11976  10F0  1803               	incf	(??_Lcd_Write_String+0)+0,f
 11977  10F1  0AF7               	btfss	(Lcd_Write_String@i),7
 11978  10F2  1FFA               	goto	u2500
 11979  10F3  28F5               	decf	(??_Lcd_Write_String+0)+0,f
 11980  10F4  03F7               u2500:
 11981  10F5                     	movf	(??_Lcd_Write_String+0)+0,w
 11982  10F5  0877               	movwf	0+((??_Lcd_Write_String+1)+0)+1
 11983  10F6  00F9               	movf	1+(??_Lcd_Write_String+1)+0,w
 11984  10F7  0879               	bcf	status, 5	;RP0=0, select bank0
 11985  10F8  1283               	bcf	status, 6	;RP1=0, select bank0
 11986  10F9  1303               	movwf	btemp+1
 11987  10FA  00FF               	movf	0+(??_Lcd_Write_String+1)+0,w
 11988  10FB  0878               	movwf	fsr0
 11989  10FC  0084               	fcall	stringtab
 11990  10FD  160A  158A  2000  160A  118A  	fcall	_Lcd_Write_Char
 11991  1102  160A  118A  206E  160A  118A  	line	162
 11992                           	
 11993                           l2532:	
 11994  1107                     ;ROKZ1.c: 162:     }
 11995                           	movlw	01h
 11996  1107  3001               	addwf	(Lcd_Write_String@i),f
 11997  1108  07FA               	skipnc
 11998  1109  1803               	incf	(Lcd_Write_String@i+1),f
 11999  110A  0AFB               	movlw	0
 12000  110B  3000               	addwf	(Lcd_Write_String@i+1),f
 12001  110C  07FB               	goto	l2534
 12002  110D  290E               	
 12003                           l121:	
 12004  110E                     	
 12005                           l2534:	
 12006  110E                     	movf	(Lcd_Write_String@i),w
 12007  110E  087A               	addwf	(Lcd_Write_String@a),w
 12008  110F  0775               	movwf	(??_Lcd_Write_String+1)+0
 12009  1110  00F8               	movf	(Lcd_Write_String@a+1),w
 12010  1111  0876               	movwf	(??_Lcd_Write_String+0)+0
 12011  1112  00F7               	skipnc
 12012  1113  1803               	incf	(??_Lcd_Write_String+0)+0,f
 12013  1114  0AF7               	btfss	(Lcd_Write_String@i),7
 12014  1115  1FFA               	goto	u2510
 12015  1116  2918               	decf	(??_Lcd_Write_String+0)+0,f
 12016  1117  03F7               u2510:
 12017  1118                     	movf	(??_Lcd_Write_String+0)+0,w
 12018  1118  0877               	movwf	0+((??_Lcd_Write_String+1)+0)+1
 12019  1119  00F9               	movf	1+(??_Lcd_Write_String+1)+0,w
 12020  111A  0879               	bcf	status, 5	;RP0=0, select bank0
 12021  111B  1283               	bcf	status, 6	;RP1=0, select bank0
 12022  111C  1303               	movwf	btemp+1
 12023  111D  00FF               	movf	0+(??_Lcd_Write_String+1)+0,w
 12024  111E  0878               	movwf	fsr0
 12025  111F  0084               	fcall	stringtab
 12026  1120  160A  158A  2000  160A  118A  	xorlw	0
 12027  1125  3A00               	skipz
 12028  1126  1D03               	goto	u2521
 12029  1127  2929               	goto	u2520
 12030  1128  292A               u2521:
 12031  1129                     	goto	l2530
 12032  1129  28EB               u2520:
 12033  112A                     	goto	l124
 12034  112A  292B               	
 12035                           l123:	
 12036  112B                     	line	163
 12037                           	
 12038                           l124:	
 12039  112B                     	return
 12040  112B  0008               	opt stack 0
 12041                           GLOBAL	__end_of_Lcd_Write_String
 12042                           	__end_of_Lcd_Write_String:
 12043  112C                     	signat	_Lcd_Write_String,4217
 12044                           	global	_Lcd_Write_Char
 12045                           
 12046 ;; *************** function _Lcd_Write_Char *****************
 12047 ;; Defined at:
 12048 ;;		line 143 in file "ROKZ1.c"
 12049 ;; Parameters:    Size  Location     Type
 12050 ;;  a               1    wreg     unsigned char 
 12051 ;; Auto vars:     Size  Location     Type
 12052 ;;  a               1    4[COMMON] unsigned char 
 12053 ;;  y               1    3[COMMON] unsigned char 
 12054 ;;  temp            1    2[COMMON] unsigned char 
 12055 ;; Return value:  Size  Location     Type
 12056 ;;                  1    wreg      void 
 12057 ;; Registers used:
 12058 ;;		wreg, status,2, status,0, pclath, cstack
 12059 ;; Tracked objects:
 12060 ;;		On entry : 0/0
 12061 ;;		On exit  : 0/0
 12062 ;;		Unchanged: 0/0
 12063 ;; Data sizes:     COMMON   BANK0   BANK1   BANK3   BANK2
 12064 ;;      Params:         0       0       0       0       0
 12065 ;;      Locals:         3       0       0       0       0
 12066 ;;      Temps:          1       0       0       0       0
 12067 ;;      Totals:         4       0       0       0       0
 12068 ;;Total ram usage:        4 bytes
 12069 ;; Hardware stack levels used:    1
 12070 ;; Hardware stack levels required when called:    1
 12071 ;; This function calls:
 12072 ;;		_Lcd_Port
 12073 ;; This function is called by:
 12074 ;;		_Lcd_Write_String
 12075 ;;		_main
 12076 ;; This function uses a non-reentrant model
 12077 ;;
 12078                           psect	text20,local,class=CODE,delta=2,merge=1,group=0
 12079                           	line	143
 12080                           global __ptext20
 12081                           __ptext20:	;psect for function _Lcd_Write_Char
 12082  106E                     psect	text20
 12083                           	file	"ROKZ1.c"
 12084                           	line	143
 12085                           	global	__size_of_Lcd_Write_Char
 12086                           	__size_of_Lcd_Write_Char	equ	__end_of_Lcd_Write_Char-_Lcd_Write_Char
 12087  0039                     	
 12088                           _Lcd_Write_Char:	
 12089  106E                     ;incstack = 0
 12090                           	opt	stack 5
 12091                           ; Regs used in _Lcd_Write_Char: [wreg+status,2+status,0+pclath+cstack]
 12092                           ;Lcd_Write_Char@a stored from wreg
 12093                           	movwf	(Lcd_Write_Char@a)
 12094  106E  00F4               	line	145
 12095                           	
 12096                           l2354:	
 12097  106F                     ;ROKZ1.c: 144:     char temp, y;;ROKZ1.c: 145:     temp=a & 0x0F;
 12098                           	movf	(Lcd_Write_Char@a),w
 12099  106F  0874               	andlw	0Fh
 12100  1070  390F               	movwf	(??_Lcd_Write_Char+0)+0
 12101  1071  00F1               	movf	(??_Lcd_Write_Char+0)+0,w
 12102  1072  0871               	movwf	(Lcd_Write_Char@temp)
 12103  1073  00F2               	line	146
 12104                           ;ROKZ1.c: 146:     y=a & 0xF0;
 12105                           	movf	(Lcd_Write_Char@a),w
 12106  1074  0874               	andlw	0F0h
 12107  1075  39F0               	movwf	(??_Lcd_Write_Char+0)+0
 12108  1076  00F1               	movf	(??_Lcd_Write_Char+0)+0,w
 12109  1077  0871               	movwf	(Lcd_Write_Char@y)
 12110  1078  00F3               	line	147
 12111                           	
 12112                           l2356:	
 12113  1079                     ;ROKZ1.c: 147:     RD2=1;
 12114                           	bcf	status, 5	;RP0=0, select bank0
 12115  1079  1283               	bcf	status, 6	;RP1=0, select bank0
 12116  107A  1303               	bsf	(66/8),(66)&7	;volatile
 12117  107B  1508               	line	148
 12118                           	
 12119                           l2358:	
 12120  107C                     ;ROKZ1.c: 148:     Lcd_Port(y>>4);
 12121                           	movf	(Lcd_Write_Char@y),w
 12122  107C  0873               	movwf	(??_Lcd_Write_Char+0)+0
 12123  107D  00F1               	movlw	04h
 12124  107E  3004               u2285:
 12125  107F                     	clrc
 12126  107F  1003               	rrf	(??_Lcd_Write_Char+0)+0,f
 12127  1080  0CF1               	addlw	-1
 12128  1081  3EFF               	skipz
 12129  1082  1D03               	goto	u2285
 12130  1083  287F               	movf	0+(??_Lcd_Write_Char+0)+0,w
 12131  1084  0871               	fcall	_Lcd_Port
 12132  1085  160A  118A  2023  160A  118A  	line	149
 12133                           	
 12134                           l2360:	
 12135  108A                     ;ROKZ1.c: 149:     RD3=1;
 12136                           	bcf	status, 5	;RP0=0, select bank0
 12137  108A  1283               	bcf	status, 6	;RP1=0, select bank0
 12138  108B  1303               	bsf	(67/8),(67)&7	;volatile
 12139  108C  1588               	line	150
 12140                           	
 12141                           l2362:	
 12142  108D                     ;ROKZ1.c: 150:     _delay((unsigned long)((40)*(20000000/4000000.0)));
 12143                           	opt asmopt_push
 12144                           opt asmopt_off
 12145                           	movlw	66
 12146  108D  3042               movwf	((??_Lcd_Write_Char+0)+0),f
 12147  108E  00F1               	u4387:
 12148  108F                     decfsz	(??_Lcd_Write_Char+0)+0,f
 12149  108F  0BF1               	goto	u4387
 12150  1090  288F               	nop
 12151  1091  0000               opt asmopt_pop
 12152                           
 12153                           	line	151
 12154                           	
 12155                           l2364:	
 12156  1092                     ;ROKZ1.c: 151:     RD3=0;
 12157                           	bcf	status, 5	;RP0=0, select bank0
 12158  1092  1283               	bcf	status, 6	;RP1=0, select bank0
 12159  1093  1303               	bcf	(67/8),(67)&7	;volatile
 12160  1094  1188               	line	152
 12161                           	
 12162                           l2366:	
 12163  1095                     ;ROKZ1.c: 152:     Lcd_Port(temp);
 12164                           	movf	(Lcd_Write_Char@temp),w
 12165  1095  0872               	fcall	_Lcd_Port
 12166  1096  160A  118A  2023  160A  118A  	line	153
 12167                           	
 12168                           l2368:	
 12169  109B                     ;ROKZ1.c: 153:     RD3=1;
 12170                           	bcf	status, 5	;RP0=0, select bank0
 12171  109B  1283               	bcf	status, 6	;RP1=0, select bank0
 12172  109C  1303               	bsf	(67/8),(67)&7	;volatile
 12173  109D  1588               	line	154
 12174                           	
 12175                           l2370:	
 12176  109E                     ;ROKZ1.c: 154:     _delay((unsigned long)((40)*(20000000/4000000.0)));
 12177                           	opt asmopt_push
 12178                           opt asmopt_off
 12179                           	movlw	66
 12180  109E  3042               movwf	((??_Lcd_Write_Char+0)+0),f
 12181  109F  00F1               	u4397:
 12182  10A0                     decfsz	(??_Lcd_Write_Char+0)+0,f
 12183  10A0  0BF1               	goto	u4397
 12184  10A1  28A0               	nop
 12185  10A2  0000               opt asmopt_pop
 12186                           
 12187                           	line	155
 12188                           	
 12189                           l2372:	
 12190  10A3                     ;ROKZ1.c: 155:     RD3=0;
 12191                           	bcf	status, 5	;RP0=0, select bank0
 12192  10A3  1283               	bcf	status, 6	;RP1=0, select bank0
 12193  10A4  1303               	bcf	(67/8),(67)&7	;volatile
 12194  10A5  1188               	line	156
 12195                           	
 12196                           l118:	
 12197  10A6                     	return
 12198  10A6  0008               	opt stack 0
 12199                           GLOBAL	__end_of_Lcd_Write_Char
 12200                           	__end_of_Lcd_Write_Char:
 12201  10A7                     	signat	_Lcd_Write_Char,4217
 12202                           	global	_Lcd_Set_Cursor
 12203                           
 12204 ;; *************** function _Lcd_Set_Cursor *****************
 12205 ;; Defined at:
 12206 ;;		line 108 in file "ROKZ1.c"
 12207 ;; Parameters:    Size  Location     Type
 12208 ;;  a               1    wreg     unsigned char 
 12209 ;;  b               1    4[COMMON] unsigned char 
 12210 ;; Auto vars:     Size  Location     Type
 12211 ;;  a               1    7[COMMON] unsigned char 
 12212 ;;  temp            1   10[COMMON] unsigned char 
 12213 ;;  y               1    9[COMMON] unsigned char 
 12214 ;;  z               1    8[COMMON] unsigned char 
 12215 ;; Return value:  Size  Location     Type
 12216 ;;                  1    wreg      void 
 12217 ;; Registers used:
 12218 ;;		wreg, status,2, status,0, pclath, cstack
 12219 ;; Tracked objects:
 12220 ;;		On entry : 0/0
 12221 ;;		On exit  : 0/0
 12222 ;;		Unchanged: 0/0
 12223 ;; Data sizes:     COMMON   BANK0   BANK1   BANK3   BANK2
 12224 ;;      Params:         1       0       0       0       0
 12225 ;;      Locals:         4       0       0       0       0
 12226 ;;      Temps:          2       0       0       0       0
 12227 ;;      Totals:         7       0       0       0       0
 12228 ;;Total ram usage:        7 bytes
 12229 ;; Hardware stack levels used:    1
 12230 ;; Hardware stack levels required when called:    2
 12231 ;; This function calls:
 12232 ;;		_Lcd_Cmd
 12233 ;; This function is called by:
 12234 ;;		_main
 12235 ;; This function uses a non-reentrant model
 12236 ;;
 12237                           psect	text21,local,class=CODE,delta=2,merge=1,group=0
 12238                           	line	108
 12239                           global __ptext21
 12240                           __ptext21:	;psect for function _Lcd_Set_Cursor
 12241  0013                     psect	text21
 12242                           	file	"ROKZ1.c"
 12243                           	line	108
 12244                           	global	__size_of_Lcd_Set_Cursor
 12245                           	__size_of_Lcd_Set_Cursor	equ	__end_of_Lcd_Set_Cursor-_Lcd_Set_Cursor
 12246  0054                     	
 12247                           _Lcd_Set_Cursor:	
 12248  0013                     ;incstack = 0
 12249                           	opt	stack 5
 12250                           ; Regs used in _Lcd_Set_Cursor: [wreg+status,2+status,0+pclath+cstack]
 12251                           ;Lcd_Set_Cursor@a stored from wreg
 12252                           	movwf	(Lcd_Set_Cursor@a)
 12253  0013  00F7               	line	110
 12254                           	
 12255                           l2498:	
 12256  0014                     ;ROKZ1.c: 109:     char temp, z, y;;ROKZ1.c: 110:     if(a==1) {
 12257                           		decf	((Lcd_Set_Cursor@a)),w
 12258  0014  0377               	btfss	status,2
 12259  0015  1D03               	goto	u2461
 12260  0016  2818               	goto	u2460
 12261  0017  2819               u2461:
 12262  0018                     	goto	l2508
 12263  0018  283C               u2460:
 12264  0019                     	line	111
 12265                           	
 12266                           l2500:	
 12267  0019                     ;ROKZ1.c: 111:         temp=0x80+b-1;
 12268                           	movf	(Lcd_Set_Cursor@b),w
 12269  0019  0874               	addlw	07Fh
 12270  001A  3E7F               	movwf	(??_Lcd_Set_Cursor+0)+0
 12271  001B  00F5               	movf	(??_Lcd_Set_Cursor+0)+0,w
 12272  001C  0875               	movwf	(Lcd_Set_Cursor@temp)
 12273  001D  00FA               	line	112
 12274                           ;ROKZ1.c: 112:         z=temp>>4;
 12275                           	movf	(Lcd_Set_Cursor@temp),w
 12276  001E  087A               	movwf	(??_Lcd_Set_Cursor+0)+0
 12277  001F  00F5               	movlw	04h
 12278  0020  3004               u2475:
 12279  0021                     	clrc
 12280  0021  1003               	rrf	(??_Lcd_Set_Cursor+0)+0,f
 12281  0022  0CF5               	addlw	-1
 12282  0023  3EFF               	skipz
 12283  0024  1D03               	goto	u2475
 12284  0025  2821               	movf	0+(??_Lcd_Set_Cursor+0)+0,w
 12285  0026  0875               	movwf	(??_Lcd_Set_Cursor+1)+0
 12286  0027  00F6               	movf	(??_Lcd_Set_Cursor+1)+0,w
 12287  0028  0876               	movwf	(Lcd_Set_Cursor@z)
 12288  0029  00F8               	line	113
 12289                           	
 12290                           l2502:	
 12291  002A                     ;ROKZ1.c: 113:         y=temp & 0x0F;
 12292                           	movf	(Lcd_Set_Cursor@temp),w
 12293  002A  087A               	andlw	0Fh
 12294  002B  390F               	movwf	(??_Lcd_Set_Cursor+0)+0
 12295  002C  00F5               	movf	(??_Lcd_Set_Cursor+0)+0,w
 12296  002D  0875               	movwf	(Lcd_Set_Cursor@y)
 12297  002E  00F9               	line	114
 12298                           	
 12299                           l2504:	
 12300  002F                     ;ROKZ1.c: 114:         Lcd_Cmd(z);
 12301                           	movf	(Lcd_Set_Cursor@z),w
 12302  002F  0878               	fcall	_Lcd_Cmd
 12303  0030  160A  158A  27CB  120A  118A  	line	115
 12304                           	
 12305                           l2506:	
 12306  0035                     ;ROKZ1.c: 115:         Lcd_Cmd(y);
 12307                           	movf	(Lcd_Set_Cursor@y),w
 12308  0035  0879               	fcall	_Lcd_Cmd
 12309  0036  160A  158A  27CB  120A  118A  	line	116
 12310                           ;ROKZ1.c: 116:     }
 12311                           	goto	l112
 12312  003B  2866               	line	117
 12313                           ;ROKZ1.c: 117:     else if(a==2) {
 12314                           	
 12315                           l109:	
 12316  003C                     	
 12317                           l2508:	
 12318  003C                     		movlw	2
 12319  003C  3002               	xorwf	((Lcd_Set_Cursor@a)),w
 12320  003D  0677               	btfss	status,2
 12321  003E  1D03               	goto	u2481
 12322  003F  2841               	goto	u2480
 12323  0040  2842               u2481:
 12324  0041                     	goto	l112
 12325  0041  2866               u2480:
 12326  0042                     	line	118
 12327                           	
 12328                           l2510:	
 12329  0042                     ;ROKZ1.c: 118:         temp=0xC0+b-1;
 12330                           	movf	(Lcd_Set_Cursor@b),w
 12331  0042  0874               	addlw	0BFh
 12332  0043  3EBF               	movwf	(??_Lcd_Set_Cursor+0)+0
 12333  0044  00F5               	movf	(??_Lcd_Set_Cursor+0)+0,w
 12334  0045  0875               	movwf	(Lcd_Set_Cursor@temp)
 12335  0046  00FA               	line	119
 12336                           ;ROKZ1.c: 119:         z=temp>>4;
 12337                           	movf	(Lcd_Set_Cursor@temp),w
 12338  0047  087A               	movwf	(??_Lcd_Set_Cursor+0)+0
 12339  0048  00F5               	movlw	04h
 12340  0049  3004               u2495:
 12341  004A                     	clrc
 12342  004A  1003               	rrf	(??_Lcd_Set_Cursor+0)+0,f
 12343  004B  0CF5               	addlw	-1
 12344  004C  3EFF               	skipz
 12345  004D  1D03               	goto	u2495
 12346  004E  284A               	movf	0+(??_Lcd_Set_Cursor+0)+0,w
 12347  004F  0875               	movwf	(??_Lcd_Set_Cursor+1)+0
 12348  0050  00F6               	movf	(??_Lcd_Set_Cursor+1)+0,w
 12349  0051  0876               	movwf	(Lcd_Set_Cursor@z)
 12350  0052  00F8               	line	120
 12351                           	
 12352                           l2512:	
 12353  0053                     ;ROKZ1.c: 120:         y=temp & 0x0F;
 12354                           	movf	(Lcd_Set_Cursor@temp),w
 12355  0053  087A               	andlw	0Fh
 12356  0054  390F               	movwf	(??_Lcd_Set_Cursor+0)+0
 12357  0055  00F5               	movf	(??_Lcd_Set_Cursor+0)+0,w
 12358  0056  0875               	movwf	(Lcd_Set_Cursor@y)
 12359  0057  00F9               	line	121
 12360                           	
 12361                           l2514:	
 12362  0058                     ;ROKZ1.c: 121:         Lcd_Cmd(z);
 12363                           	movf	(Lcd_Set_Cursor@z),w
 12364  0058  0878               	fcall	_Lcd_Cmd
 12365  0059  160A  158A  27CB  120A  118A  	line	122
 12366                           	
 12367                           l2516:	
 12368  005E                     ;ROKZ1.c: 122:         Lcd_Cmd(y);
 12369                           	movf	(Lcd_Set_Cursor@y),w
 12370  005E  0879               	fcall	_Lcd_Cmd
 12371  005F  160A  158A  27CB  120A  118A  	goto	l112
 12372  0064  2866               	line	123
 12373                           ;ROKZ1.c: 123:     }
 12374                           	
 12375                           l111:	
 12376  0065                     	goto	l112
 12377  0065  2866               	
 12378                           l110:	
 12379  0066                     	line	124
 12380                           	
 12381                           l112:	
 12382  0066                     	return
 12383  0066  0008               	opt stack 0
 12384                           GLOBAL	__end_of_Lcd_Set_Cursor
 12385                           	__end_of_Lcd_Set_Cursor:
 12386  0067                     	signat	_Lcd_Set_Cursor,8313
 12387                           	global	_Lcd_Init
 12388                           
 12389 ;; *************** function _Lcd_Init *****************
 12390 ;; Defined at:
 12391 ;;		line 126 in file "ROKZ1.c"
 12392 ;; Parameters:    Size  Location     Type
 12393 ;;		None
 12394 ;; Auto vars:     Size  Location     Type
 12395 ;;		None
 12396 ;; Return value:  Size  Location     Type
 12397 ;;                  1    wreg      void 
 12398 ;; Registers used:
 12399 ;;		wreg, status,2, status,0, pclath, cstack
 12400 ;; Tracked objects:
 12401 ;;		On entry : 0/0
 12402 ;;		On exit  : 0/0
 12403 ;;		Unchanged: 0/0
 12404 ;; Data sizes:     COMMON   BANK0   BANK1   BANK3   BANK2
 12405 ;;      Params:         0       0       0       0       0
 12406 ;;      Locals:         0       0       0       0       0
 12407 ;;      Temps:          2       0       0       0       0
 12408 ;;      Totals:         2       0       0       0       0
 12409 ;;Total ram usage:        2 bytes
 12410 ;; Hardware stack levels used:    1
 12411 ;; Hardware stack levels required when called:    2
 12412 ;; This function calls:
 12413 ;;		_Lcd_Cmd
 12414 ;;		_Lcd_Port
 12415 ;; This function is called by:
 12416 ;;		_main
 12417 ;; This function uses a non-reentrant model
 12418 ;;
 12419                           psect	text22,local,class=CODE,delta=2,merge=1,group=0
 12420                           	line	126
 12421                           global __ptext22
 12422                           __ptext22:	;psect for function _Lcd_Init
 12423  1177                     psect	text22
 12424                           	file	"ROKZ1.c"
 12425                           	line	126
 12426                           	global	__size_of_Lcd_Init
 12427                           	__size_of_Lcd_Init	equ	__end_of_Lcd_Init-_Lcd_Init
 12428  005E                     	
 12429                           _Lcd_Init:	
 12430  1177                     ;incstack = 0
 12431                           	opt	stack 5
 12432                           ; Regs used in _Lcd_Init: [wreg+status,2+status,0+pclath+cstack]
 12433                           	line	127
 12434                           	
 12435                           l2518:	
 12436  1177                     ;ROKZ1.c: 127:     Lcd_Port(0x00);
 12437                           	movlw	low(0)
 12438  1177  3000               	fcall	_Lcd_Port
 12439  1178  160A  118A  2023  160A  118A  	line	128
 12440                           	
 12441                           l2520:	
 12442  117D                     ;ROKZ1.c: 128:     _delay((unsigned long)((20)*(20000000/4000.0)));
 12443                           	opt asmopt_push
 12444                           opt asmopt_off
 12445                           movlw	130
 12446  117D  3082               movwf	((??_Lcd_Init+0)+0+1),f
 12447  117E  00F5               	movlw	221
 12448  117F  30DD               movwf	((??_Lcd_Init+0)+0),f
 12449  1180  00F4               	u4407:
 12450  1181                     decfsz	((??_Lcd_Init+0)+0),f
 12451  1181  0BF4               	goto	u4407
 12452  1182  2981               	decfsz	((??_Lcd_Init+0)+0+1),f
 12453  1183  0BF5               	goto	u4407
 12454  1184  2981               	nop2
 12455  1185  2986               opt asmopt_pop
 12456                           
 12457                           	line	129
 12458                           	
 12459                           l2522:	
 12460  1186                     ;ROKZ1.c: 129:     Lcd_Cmd(0x03);
 12461                           	movlw	low(03h)
 12462  1186  3003               	fcall	_Lcd_Cmd
 12463  1187  160A  158A  27CB  160A  118A  	line	130
 12464                           ;ROKZ1.c: 130:     _delay((unsigned long)((11)*(20000000/4000.0)));
 12465                           	opt asmopt_push
 12466                           opt asmopt_off
 12467                           movlw	72
 12468  118C  3048               movwf	((??_Lcd_Init+0)+0+1),f
 12469  118D  00F5               	movlw	108
 12470  118E  306C               movwf	((??_Lcd_Init+0)+0),f
 12471  118F  00F4               	u4417:
 12472  1190                     decfsz	((??_Lcd_Init+0)+0),f
 12473  1190  0BF4               	goto	u4417
 12474  1191  2990               	decfsz	((??_Lcd_Init+0)+0+1),f
 12475  1192  0BF5               	goto	u4417
 12476  1193  2990               	nop
 12477  1194  0000               opt asmopt_pop
 12478                           
 12479                           	line	131
 12480                           	
 12481                           l2524:	
 12482  1195                     ;ROKZ1.c: 131:     Lcd_Cmd(0x03);
 12483                           	movlw	low(03h)
 12484  1195  3003               	fcall	_Lcd_Cmd
 12485  1196  160A  158A  27CB  160A  118A  	line	132
 12486                           	
 12487                           l2526:	
 12488  119B                     ;ROKZ1.c: 132:     _delay((unsigned long)((5)*(20000000/4000.0)));
 12489                           	opt asmopt_push
 12490                           opt asmopt_off
 12491                           movlw	33
 12492  119B  3021               movwf	((??_Lcd_Init+0)+0+1),f
 12493  119C  00F5               	movlw	118
 12494  119D  3076               movwf	((??_Lcd_Init+0)+0),f
 12495  119E  00F4               	u4427:
 12496  119F                     decfsz	((??_Lcd_Init+0)+0),f
 12497  119F  0BF4               	goto	u4427
 12498  11A0  299F               	decfsz	((??_Lcd_Init+0)+0+1),f
 12499  11A1  0BF5               	goto	u4427
 12500  11A2  299F               	nop
 12501  11A3  0000               opt asmopt_pop
 12502                           
 12503                           	line	133
 12504                           ;ROKZ1.c: 133:     Lcd_Cmd(0x03);
 12505                           	movlw	low(03h)
 12506  11A4  3003               	fcall	_Lcd_Cmd
 12507  11A5  160A  158A  27CB  160A  118A  	line	134
 12508                           ;ROKZ1.c: 134:     Lcd_Cmd(0x02);
 12509                           	movlw	low(02h)
 12510  11AA  3002               	fcall	_Lcd_Cmd
 12511  11AB  160A  158A  27CB  160A  118A  	line	135
 12512                           ;ROKZ1.c: 135:     Lcd_Cmd(0x02);
 12513                           	movlw	low(02h)
 12514  11B0  3002               	fcall	_Lcd_Cmd
 12515  11B1  160A  158A  27CB  160A  118A  	line	136
 12516                           ;ROKZ1.c: 136:     Lcd_Cmd(0x08);
 12517                           	movlw	low(08h)
 12518  11B6  3008               	fcall	_Lcd_Cmd
 12519  11B7  160A  158A  27CB  160A  118A  	line	137
 12520                           ;ROKZ1.c: 137:     Lcd_Cmd(0x00);
 12521                           	movlw	low(0)
 12522  11BC  3000               	fcall	_Lcd_Cmd
 12523  11BD  160A  158A  27CB  160A  118A  	line	138
 12524                           ;ROKZ1.c: 138:     Lcd_Cmd(0x0C);
 12525                           	movlw	low(0Ch)
 12526  11C2  300C               	fcall	_Lcd_Cmd
 12527  11C3  160A  158A  27CB  160A  118A  	line	139
 12528                           ;ROKZ1.c: 139:     Lcd_Cmd(0x00);
 12529                           	movlw	low(0)
 12530  11C8  3000               	fcall	_Lcd_Cmd
 12531  11C9  160A  158A  27CB  160A  118A  	line	140
 12532                           ;ROKZ1.c: 140:     Lcd_Cmd(0x06);
 12533                           	movlw	low(06h)
 12534  11CE  3006               	fcall	_Lcd_Cmd
 12535  11CF  160A  158A  27CB  160A  118A  	line	141
 12536                           	
 12537                           l115:	
 12538  11D4                     	return
 12539  11D4  0008               	opt stack 0
 12540                           GLOBAL	__end_of_Lcd_Init
 12541                           	__end_of_Lcd_Init:
 12542  11D5                     	signat	_Lcd_Init,89
 12543                           	global	_Lcd_Clear
 12544                           
 12545 ;; *************** function _Lcd_Clear *****************
 12546 ;; Defined at:
 12547 ;;		line 103 in file "ROKZ1.c"
 12548 ;; Parameters:    Size  Location     Type
 12549 ;;		None
 12550 ;; Auto vars:     Size  Location     Type
 12551 ;;		None
 12552 ;; Return value:  Size  Location     Type
 12553 ;;                  1    wreg      void 
 12554 ;; Registers used:
 12555 ;;		wreg, status,2, status,0, pclath, cstack
 12556 ;; Tracked objects:
 12557 ;;		On entry : 0/0
 12558 ;;		On exit  : 0/0
 12559 ;;		Unchanged: 0/0
 12560 ;; Data sizes:     COMMON   BANK0   BANK1   BANK3   BANK2
 12561 ;;      Params:         0       0       0       0       0
 12562 ;;      Locals:         0       0       0       0       0
 12563 ;;      Temps:          0       0       0       0       0
 12564 ;;      Totals:         0       0       0       0       0
 12565 ;;Total ram usage:        0 bytes
 12566 ;; Hardware stack levels used:    1
 12567 ;; Hardware stack levels required when called:    2
 12568 ;; This function calls:
 12569 ;;		_Lcd_Cmd
 12570 ;; This function is called by:
 12571 ;;		_main
 12572 ;; This function uses a non-reentrant model
 12573 ;;
 12574                           psect	text23,local,class=CODE,delta=2,merge=1,group=0
 12575                           	line	103
 12576                           global __ptext23
 12577                           __ptext23:	;psect for function _Lcd_Clear
 12578  1F6E                     psect	text23
 12579                           	file	"ROKZ1.c"
 12580                           	line	103
 12581                           	global	__size_of_Lcd_Clear
 12582                           	__size_of_Lcd_Clear	equ	__end_of_Lcd_Clear-_Lcd_Clear
 12583  000D                     	
 12584                           _Lcd_Clear:	
 12585  1F6E                     ;incstack = 0
 12586                           	opt	stack 5
 12587                           ; Regs used in _Lcd_Clear: [wreg+status,2+status,0+pclath+cstack]
 12588                           	line	104
 12589                           	
 12590                           l2496:	
 12591  1F6E                     ;ROKZ1.c: 104:     Lcd_Cmd(0);
 12592                           	movlw	low(0)
 12593  1F6E  3000               	fcall	_Lcd_Cmd
 12594  1F6F  160A  158A  27CB  160A  158A  	line	105
 12595                           ;ROKZ1.c: 105:     Lcd_Cmd(1);
 12596                           	movlw	low(01h)
 12597  1F74  3001               	fcall	_Lcd_Cmd
 12598  1F75  160A  158A  27CB  160A  158A  	line	106
 12599                           	
 12600                           l106:	
 12601  1F7A                     	return
 12602  1F7A  0008               	opt stack 0
 12603                           GLOBAL	__end_of_Lcd_Clear
 12604                           	__end_of_Lcd_Clear:
 12605  1F7B                     	signat	_Lcd_Clear,89
 12606                           	global	_Lcd_Cmd
 12607                           
 12608 ;; *************** function _Lcd_Cmd *****************
 12609 ;; Defined at:
 12610 ;;		line 95 in file "ROKZ1.c"
 12611 ;; Parameters:    Size  Location     Type
 12612 ;;  a               1    wreg     unsigned char 
 12613 ;; Auto vars:     Size  Location     Type
 12614 ;;  a               1    3[COMMON] unsigned char 
 12615 ;; Return value:  Size  Location     Type
 12616 ;;                  1    wreg      void 
 12617 ;; Registers used:
 12618 ;;		wreg, status,2, status,0, pclath, cstack
 12619 ;; Tracked objects:
 12620 ;;		On entry : 0/0
 12621 ;;		On exit  : 0/0
 12622 ;;		Unchanged: 0/0
 12623 ;; Data sizes:     COMMON   BANK0   BANK1   BANK3   BANK2
 12624 ;;      Params:         0       0       0       0       0
 12625 ;;      Locals:         1       0       0       0       0
 12626 ;;      Temps:          2       0       0       0       0
 12627 ;;      Totals:         3       0       0       0       0
 12628 ;;Total ram usage:        3 bytes
 12629 ;; Hardware stack levels used:    1
 12630 ;; Hardware stack levels required when called:    1
 12631 ;; This function calls:
 12632 ;;		_Lcd_Port
 12633 ;; This function is called by:
 12634 ;;		_Lcd_Clear
 12635 ;;		_Lcd_Set_Cursor
 12636 ;;		_Lcd_Init
 12637 ;; This function uses a non-reentrant model
 12638 ;;
 12639                           psect	text24,local,class=CODE,delta=2,merge=1,group=0
 12640                           	line	95
 12641                           global __ptext24
 12642                           __ptext24:	;psect for function _Lcd_Cmd
 12643  1FCB                     psect	text24
 12644                           	file	"ROKZ1.c"
 12645                           	line	95
 12646                           	global	__size_of_Lcd_Cmd
 12647                           	__size_of_Lcd_Cmd	equ	__end_of_Lcd_Cmd-_Lcd_Cmd
 12648  001A                     	
 12649                           _Lcd_Cmd:	
 12650  1FCB                     ;incstack = 0
 12651                           	opt	stack 5
 12652                           ; Regs used in _Lcd_Cmd: [wreg+status,2+status,0+pclath+cstack]
 12653                           ;Lcd_Cmd@a stored from wreg
 12654                           	movwf	(Lcd_Cmd@a)
 12655  1FCB  00F3               	line	96
 12656                           	
 12657                           l2344:	
 12658  1FCC                     ;ROKZ1.c: 96:     RD2=0;
 12659                           	bcf	status, 5	;RP0=0, select bank0
 12660  1FCC  1283               	bcf	status, 6	;RP1=0, select bank0
 12661  1FCD  1303               	bcf	(66/8),(66)&7	;volatile
 12662  1FCE  1108               	line	97
 12663                           	
 12664                           l2346:	
 12665  1FCF                     ;ROKZ1.c: 97:     Lcd_Port(a);
 12666                           	movf	(Lcd_Cmd@a),w
 12667  1FCF  0873               	fcall	_Lcd_Port
 12668  1FD0  160A  118A  2023  160A  158A  	line	98
 12669                           	
 12670                           l2348:	
 12671  1FD5                     ;ROKZ1.c: 98:     RD3=1;
 12672                           	bcf	status, 5	;RP0=0, select bank0
 12673  1FD5  1283               	bcf	status, 6	;RP1=0, select bank0
 12674  1FD6  1303               	bsf	(67/8),(67)&7	;volatile
 12675  1FD7  1588               	line	99
 12676                           	
 12677                           l2350:	
 12678  1FD8                     ;ROKZ1.c: 99:     _delay((unsigned long)((4)*(20000000/4000.0)));
 12679                           	opt asmopt_push
 12680                           opt asmopt_off
 12681                           movlw	26
 12682  1FD8  301A               movwf	((??_Lcd_Cmd+0)+0+1),f
 12683  1FD9  00F2               	movlw	248
 12684  1FDA  30F8               movwf	((??_Lcd_Cmd+0)+0),f
 12685  1FDB  00F1               	u4437:
 12686  1FDC                     decfsz	((??_Lcd_Cmd+0)+0),f
 12687  1FDC  0BF1               	goto	u4437
 12688  1FDD  2FDC               	decfsz	((??_Lcd_Cmd+0)+0+1),f
 12689  1FDE  0BF2               	goto	u4437
 12690  1FDF  2FDC               	nop
 12691  1FE0  0000               opt asmopt_pop
 12692                           
 12693                           	line	100
 12694                           	
 12695                           l2352:	
 12696  1FE1                     ;ROKZ1.c: 100:     RD3=0;
 12697                           	bcf	status, 5	;RP0=0, select bank0
 12698  1FE1  1283               	bcf	status, 6	;RP1=0, select bank0
 12699  1FE2  1303               	bcf	(67/8),(67)&7	;volatile
 12700  1FE3  1188               	line	101
 12701                           	
 12702                           l103:	
 12703  1FE4                     	return
 12704  1FE4  0008               	opt stack 0
 12705                           GLOBAL	__end_of_Lcd_Cmd
 12706                           	__end_of_Lcd_Cmd:
 12707  1FE5                     	signat	_Lcd_Cmd,4217
 12708                           	global	_Lcd_Port
 12709                           
 12710 ;; *************** function _Lcd_Port *****************
 12711 ;; Defined at:
 12712 ;;		line 76 in file "ROKZ1.c"
 12713 ;; Parameters:    Size  Location     Type
 12714 ;;  a               1    wreg     unsigned char 
 12715 ;; Auto vars:     Size  Location     Type
 12716 ;;  a               1    0[COMMON] unsigned char 
 12717 ;; Return value:  Size  Location     Type
 12718 ;;                  1    wreg      void 
 12719 ;; Registers used:
 12720 ;;		wreg
 12721 ;; Tracked objects:
 12722 ;;		On entry : 0/0
 12723 ;;		On exit  : 0/0
 12724 ;;		Unchanged: 0/0
 12725 ;; Data sizes:     COMMON   BANK0   BANK1   BANK3   BANK2
 12726 ;;      Params:         0       0       0       0       0
 12727 ;;      Locals:         1       0       0       0       0
 12728 ;;      Temps:          0       0       0       0       0
 12729 ;;      Totals:         1       0       0       0       0
 12730 ;;Total ram usage:        1 bytes
 12731 ;; Hardware stack levels used:    1
 12732 ;; This function calls:
 12733 ;;		Nothing
 12734 ;; This function is called by:
 12735 ;;		_Lcd_Cmd
 12736 ;;		_Lcd_Init
 12737 ;;		_Lcd_Write_Char
 12738 ;; This function uses a non-reentrant model
 12739 ;;
 12740                           psect	text25,local,class=CODE,delta=2,merge=1,group=0
 12741                           	line	76
 12742                           global __ptext25
 12743                           __ptext25:	;psect for function _Lcd_Port
 12744  1023                     psect	text25
 12745                           	file	"ROKZ1.c"
 12746                           	line	76
 12747                           	global	__size_of_Lcd_Port
 12748                           	__size_of_Lcd_Port	equ	__end_of_Lcd_Port-_Lcd_Port
 12749  0023                     	
 12750                           _Lcd_Port:	
 12751  1023                     ;incstack = 0
 12752                           	opt	stack 5
 12753                           ; Regs used in _Lcd_Port: [wreg]
 12754                           ;Lcd_Port@a stored from wreg
 12755                           	movwf	(Lcd_Port@a)
 12756  1023  00F0               	line	77
 12757                           	
 12758                           l2286:	
 12759  1024                     ;ROKZ1.c: 77:     if(a&1)
 12760                           	btfss	(Lcd_Port@a),(0)&7
 12761  1024  1C70               	goto	u2111
 12762  1025  2827               	goto	u2110
 12763  1026  2828               u2111:
 12764  1027                     	goto	l92
 12765  1027  282C               u2110:
 12766  1028                     	line	78
 12767                           	
 12768                           l2288:	
 12769  1028                     ;ROKZ1.c: 78:         RD4=1;
 12770                           	bcf	status, 5	;RP0=0, select bank0
 12771  1028  1283               	bcf	status, 6	;RP1=0, select bank0
 12772  1029  1303               	bsf	(68/8),(68)&7	;volatile
 12773  102A  1608               	goto	l93
 12774  102B  282F               	line	79
 12775                           ;ROKZ1.c: 79:     else
 12776                           	
 12777                           l92:	
 12778  102C                     	line	80
 12779                           ;ROKZ1.c: 80:         RD4=0;
 12780                           	bcf	status, 5	;RP0=0, select bank0
 12781  102C  1283               	bcf	status, 6	;RP1=0, select bank0
 12782  102D  1303               	bcf	(68/8),(68)&7	;volatile
 12783  102E  1208               	
 12784                           l93:	
 12785  102F                     	line	81
 12786                           ;ROKZ1.c: 81:     if(a&2)
 12787                           	btfss	(Lcd_Port@a),(1)&7
 12788  102F  1CF0               	goto	u2121
 12789  1030  2832               	goto	u2120
 12790  1031  2833               u2121:
 12791  1032                     	goto	l94
 12792  1032  2835               u2120:
 12793  1033                     	line	82
 12794                           	
 12795                           l2290:	
 12796  1033                     ;ROKZ1.c: 82:         RD5=1;
 12797                           	bsf	(69/8),(69)&7	;volatile
 12798  1033  1688               	goto	l95
 12799  1034  2836               	line	83
 12800                           ;ROKZ1.c: 83:     else
 12801                           	
 12802                           l94:	
 12803  1035                     	line	84
 12804                           ;ROKZ1.c: 84:         RD5=0;
 12805                           	bcf	(69/8),(69)&7	;volatile
 12806  1035  1288               	
 12807                           l95:	
 12808  1036                     	line	85
 12809                           ;ROKZ1.c: 85:     if(a&4)
 12810                           	btfss	(Lcd_Port@a),(2)&7
 12811  1036  1D70               	goto	u2131
 12812  1037  2839               	goto	u2130
 12813  1038  283A               u2131:
 12814  1039                     	goto	l96
 12815  1039  283C               u2130:
 12816  103A                     	line	86
 12817                           	
 12818                           l2292:	
 12819  103A                     ;ROKZ1.c: 86:         RD6=1;
 12820                           	bsf	(70/8),(70)&7	;volatile
 12821  103A  1708               	goto	l97
 12822  103B  283D               	line	87
 12823                           ;ROKZ1.c: 87:     else
 12824                           	
 12825                           l96:	
 12826  103C                     	line	88
 12827                           ;ROKZ1.c: 88:         RD6=0;
 12828                           	bcf	(70/8),(70)&7	;volatile
 12829  103C  1308               	
 12830                           l97:	
 12831  103D                     	line	89
 12832                           ;ROKZ1.c: 89:     if(a&8)
 12833                           	btfss	(Lcd_Port@a),(3)&7
 12834  103D  1DF0               	goto	u2141
 12835  103E  2840               	goto	u2140
 12836  103F  2841               u2141:
 12837  1040                     	goto	l98
 12838  1040  2843               u2140:
 12839  1041                     	line	90
 12840                           	
 12841                           l2294:	
 12842  1041                     ;ROKZ1.c: 90:         RD7=1;
 12843                           	bsf	(71/8),(71)&7	;volatile
 12844  1041  1788               	goto	l100
 12845  1042  2845               	line	91
 12846                           ;ROKZ1.c: 91:     else
 12847                           	
 12848                           l98:	
 12849  1043                     	line	92
 12850                           ;ROKZ1.c: 92:         RD7=0;
 12851                           	bcf	(71/8),(71)&7	;volatile
 12852  1043  1388               	goto	l100
 12853  1044  2845               	
 12854                           l99:	
 12855  1045                     	line	93
 12856                           	
 12857                           l100:	
 12858  1045                     	return
 12859  1045  0008               	opt stack 0
 12860                           GLOBAL	__end_of_Lcd_Port
 12861                           	__end_of_Lcd_Port:
 12862  1046                     	signat	_Lcd_Port,4217
 12863                           global	___latbits
 12864                           ___latbits	equ	2
 12865  0002                     	global	fptotal
 12866                           fptotal equ 2
 12867  0002                     	file ""
 12868                           	line	#
 12869                           psect	functab,class=ENTRY,delta=2
 12870                           global __pfunctab
 12871                           __pfunctab:
 12872  0003                     	global	fptable,__fptable
 12873                           __fptable:
 12874  0003                     fptable:
 12875  0003                     	movwf (btemp+1)&07Fh
 12876  0003  00FF               	movlw high(fptable)
 12877  0004  3000               	movwf pclath
 12878  0005  008A               	movf (btemp+1)&07Fh,w
 12879  0006  087F               	addwf pc
 12880  0007  0782               	global	fpbase
 12881                           fpbase:
 12882  0008                     	goto fpbase	; Call via a null pointer and you will get stuck here.
 12883  0008  2808               	file ""
 12884                           	line	#
 12885                           fp__putch:
 12886  0009                     	ljmp	_putch
 12887  0009  120A  118A  280C   	global __end_of__fptable
 12888                           	__end_of__fptable:
 12889  000C                     	global __size_of__fptable
 12890                           	__size_of__fptable	equ	__end_of__fptable-__fptable
 12891  0009                     	global	btemp
 12892                           	btemp set 07Eh
 12893  007E                     
 12894                           	DABS	1,126,2	;btemp
 12895                           	global	wtemp0
 12896                           	wtemp0 set btemp+0
 12897  007E                     	end
 12898  07EB  160A  118A  2E12   


Data Sizes:
    Strings     455
    Constant    10
    Data        21
    BSS         0
    Persistent  0
    Stack       0

Auto Spaces:
    Space          Size  Autos    Used
    COMMON           14     14      14
    BANK0            80     75      75
    BANK1            80     80      80
    BANK3            96     50      71
    BANK2            96      0       0

Pointer List with Targets:

    sprintf@f	PTR const unsigned char  size(2) Largest target is 6
		 -> STR_34(CODE[6]), STR_27(CODE[3]), STR_20(CODE[3]), STR_13(CODE[3]), 

    sprintf@ap	PTR void [1] size(1) Largest target is 2
		 -> ?_sprintf(BANK0[2]), ?_printf(BANK0[2]), 

    sprintf@wh	PTR unsigned char  size(1) Largest target is 20
		 -> main@buffer4(BANK1[20]), main@buffer3(BANK1[20]), main@buffer2(BANK1[20]), main@buffer1(BANK0[20]), 

    pb.func	PTR FTN(unsigned char ,)void  size(1) Largest target is 1
		 -> Absolute function(), putch(), 

    pb.ptr	PTR unsigned char  size(1) Largest target is 20
		 -> NULL(NULL[0]), main@buffer4(BANK1[20]), main@buffer3(BANK1[20]), main@buffer2(BANK1[20]), 
		 -> main@buffer1(BANK0[20]), 

    printf@f	PTR const unsigned char  size(2) Largest target is 50
		 -> STR_36(CODE[3]), STR_35(CODE[14]), main@buffer4(BANK1[20]), STR_33(CODE[22]), 
		 -> STR_32(CODE[22]), STR_30(CODE[27]), STR_29(CODE[3]), STR_28(CODE[14]), 
		 -> main@buffer3(BANK1[20]), STR_26(CODE[22]), STR_25(CODE[22]), STR_23(CODE[25]), 
		 -> STR_22(CODE[3]), STR_21(CODE[13]), main@buffer2(BANK1[20]), STR_19(CODE[22]), 
		 -> STR_18(CODE[22]), STR_16(CODE[27]), STR_15(CODE[3]), STR_14(CODE[15]), 
		 -> main@buffer1(BANK0[20]), STR_12(CODE[22]), STR_11(CODE[22]), STR_9(CODE[25]), 
		 -> STR_8(CODE[3]), STR_7(CODE[42]), STR_6(CODE[14]), STR_5(CODE[12]), 
		 -> STR_4(CODE[14]), STR_3(CODE[13]), STR_2(CODE[50]), STR_1(CODE[49]), 

    printf@ap	PTR void [1] size(1) Largest target is 2
		 -> ?_sprintf(BANK0[2]), ?_printf(BANK0[2]), 

    pb.func	PTR FTN(unsigned char ,)void  size(1) Largest target is 1
		 -> Absolute function(), putch(), 

    pb.ptr	PTR unsigned char  size(1) Largest target is 20
		 -> NULL(NULL[0]), main@buffer4(BANK1[20]), main@buffer3(BANK1[20]), main@buffer2(BANK1[20]), 
		 -> main@buffer1(BANK0[20]), 

    _doprnt@ap	PTR PTR void  size(1) Largest target is 1
		 -> sprintf@ap(BANK0[1]), printf@ap(BANK0[1]), 

    _doprnt@f	PTR const unsigned char  size(2) Largest target is 50
		 -> STR_36(CODE[3]), STR_35(CODE[14]), STR_34(CODE[6]), main@buffer4(BANK1[20]), 
		 -> STR_33(CODE[22]), STR_32(CODE[22]), STR_30(CODE[27]), STR_29(CODE[3]), 
		 -> STR_28(CODE[14]), STR_27(CODE[3]), main@buffer3(BANK1[20]), STR_26(CODE[22]), 
		 -> STR_25(CODE[22]), STR_23(CODE[25]), STR_22(CODE[3]), STR_21(CODE[13]), 
		 -> STR_20(CODE[3]), main@buffer2(BANK1[20]), STR_19(CODE[22]), STR_18(CODE[22]), 
		 -> STR_16(CODE[27]), STR_15(CODE[3]), STR_14(CODE[15]), STR_13(CODE[3]), 
		 -> main@buffer1(BANK0[20]), STR_12(CODE[22]), STR_11(CODE[22]), STR_9(CODE[25]), 
		 -> STR_8(CODE[3]), STR_7(CODE[42]), STR_6(CODE[14]), STR_5(CODE[12]), 
		 -> STR_4(CODE[14]), STR_3(CODE[13]), STR_2(CODE[50]), STR_1(CODE[49]), 

    S350__prbuf$func	PTR FTN(unsigned char ,)void  size(1) Largest target is 1
		 -> Absolute function(), putch(), 

    _doprnt@pb.func	PTR FTN(unsigned char ,)void  size(1) Largest target is 1
		 -> Absolute function(), putch(), 

    S350__prbuf$ptr	PTR unsigned char  size(1) Largest target is 20
		 -> NULL(NULL[0]), main@buffer4(BANK1[20]), main@buffer3(BANK1[20]), main@buffer2(BANK1[20]), 
		 -> main@buffer1(BANK0[20]), 

    _doprnt@pb.ptr	PTR unsigned char  size(1) Largest target is 20
		 -> NULL(NULL[0]), main@buffer4(BANK1[20]), main@buffer3(BANK1[20]), main@buffer2(BANK1[20]), 
		 -> main@buffer1(BANK0[20]), 

    _doprnt@pb	PTR struct __prbuf size(1) Largest target is 3
		 -> sprintf@pb(BANK0[2]), printf@pb(BANK0[2]), 

    Lcd_Write_String@a	PTR unsigned char  size(2) Largest target is 20
		 -> main@buffer4(BANK1[20]), STR_31(CODE[13]), main@buffer3(BANK1[20]), STR_24(CODE[11]), 
		 -> main@buffer2(BANK1[20]), STR_17(CODE[12]), main@buffer1(BANK0[20]), STR_10(CODE[12]), 


Critical Paths under _main in COMMON

    _main->___flmul
    _main->___xxtofl
    __doprnt->___lwmod
    _putch->_UART_Send_Char
    ___lwmod->___lwdiv
    ___fltol->___flmul
    ___flmul->__Umul8_16
    ___fladd->___xxtofl
    _Lcd_Write_String->_Lcd_Write_Char
    _Lcd_Write_Char->_Lcd_Port
    _Lcd_Set_Cursor->_Lcd_Cmd
    _Lcd_Init->_Lcd_Cmd
    _Lcd_Clear->_Lcd_Cmd
    _Lcd_Cmd->_Lcd_Port

Critical Paths under _main in BANK0

    _main->___fltol
    _sprintf->__doprnt
    _printf->__doprnt
    ___fltol->___flmul

Critical Paths under _main in BANK1

    None.

Critical Paths under _main in BANK3

    None.

Critical Paths under _main in BANK2

    None.

Call Graph Tables:

 ---------------------------------------------------------------------------------
 (Depth) Function   	        Calls       Base Space   Used Autos Params    Refs
 ---------------------------------------------------------------------------------
 (0) _main                                               173   173      0   21999
                                             32 BANK0     43    43      0
                                              0 BANK1     80    80      0
                                              0 BANK3     50    50      0
                          _Lcd_Clear
                           _Lcd_Init
                     _Lcd_Set_Cursor
                     _Lcd_Write_Char
                   _Lcd_Write_String
                      _UART_Get_Char
                          _UART_Init
                     _UART_Send_Char
                            ___awdiv
                            ___awmod
                            ___fladd
                            ___fldiv
                            ___flmul
                            ___fltol
                             ___wmul
                           ___xxtofl
                             _printf
                            _sprintf
 ---------------------------------------------------------------------------------
 (1) _sprintf                                             11     5      6    2681
                                             13 BANK0     11     5      6
                            __doprnt
 ---------------------------------------------------------------------------------
 (1) _printf                                               6     4      2    4621
                                             13 BANK0      6     4      2
                            __doprnt
 ---------------------------------------------------------------------------------
 (2) __doprnt                                             21    18      3    2075
                                              0 BANK0     13    10      3
                   Absolute function *
                            ___lwdiv
                            ___lwmod
                              _putch *
 ---------------------------------------------------------------------------------
 (3) _putch                                                1     0      1     256
                                              1 COMMON     1     0      1
                     _UART_Send_Char
 ---------------------------------------------------------------------------------
 (4) _UART_Send_Char                                       1     1      0      22
                                              0 COMMON     1     1      0
 ---------------------------------------------------------------------------------
 (3) ___lwmod                                              6     2      4     311
                                              8 COMMON     6     2      4
                            ___lwdiv (ARG)
 ---------------------------------------------------------------------------------
 (3) ___lwdiv                                              8     4      4     314
                                              0 COMMON     8     4      4
 ---------------------------------------------------------------------------------
 (3) Absolute function(Fake)                               1     0      1       0
 ---------------------------------------------------------------------------------
 (1) ___xxtofl                                            14    10      4     474
                                              0 COMMON    14    10      4
 ---------------------------------------------------------------------------------
 (1) ___wmul                                               6     2      4     244
                                              0 COMMON     6     2      4
 ---------------------------------------------------------------------------------
 (1) ___fltol                                             11     7      4     381
                                             21 BANK0     11     7      4
                            ___flmul (ARG)
 ---------------------------------------------------------------------------------
 (1) ___flmul                                             26    18      8    2417
                                              9 COMMON     5     5      0
                                              0 BANK0     21    13      8
                          __Umul8_16
 ---------------------------------------------------------------------------------
 (2) __Umul8_16                                            9     7      2     799
                                              0 COMMON     9     7      2
 ---------------------------------------------------------------------------------
 (1) ___fldiv                                             26    18      8    1273
                                              0 COMMON    13     5      8
                                              0 BANK0     13    13      0
 ---------------------------------------------------------------------------------
 (1) ___fladd                                             24    16      8    2414
                                              0 BANK0     24    16      8
                           ___xxtofl (ARG)
 ---------------------------------------------------------------------------------
 (1) ___awmod                                              7     3      4     752
                                              0 COMMON     7     3      4
 ---------------------------------------------------------------------------------
 (1) ___awdiv                                              9     5      4     756
                                              0 COMMON     9     5      4
 ---------------------------------------------------------------------------------
 (1) _UART_Init                                            0     0      0       0
 ---------------------------------------------------------------------------------
 (1) _UART_Get_Char                                        0     0      0       0
 ---------------------------------------------------------------------------------
 (1) _Lcd_Write_String                                     7     5      2     876
                                              5 COMMON     7     5      2
                     _Lcd_Write_Char
 ---------------------------------------------------------------------------------
 (2) _Lcd_Write_Char                                       4     4      0     178
                                              1 COMMON     4     4      0
                           _Lcd_Port
 ---------------------------------------------------------------------------------
 (1) _Lcd_Set_Cursor                                       7     6      1    2204
                                              4 COMMON     7     6      1
                            _Lcd_Cmd
 ---------------------------------------------------------------------------------
 (1) _Lcd_Init                                             2     2      0     198
                                              4 COMMON     2     2      0
                            _Lcd_Cmd
                           _Lcd_Port
 ---------------------------------------------------------------------------------
 (1) _Lcd_Clear                                            0     0      0     110
                            _Lcd_Cmd
 ---------------------------------------------------------------------------------
 (2) _Lcd_Cmd                                              3     3      0     110
                                              1 COMMON     3     3      0
                           _Lcd_Port
 ---------------------------------------------------------------------------------
 (3) _Lcd_Port                                             1     1      0      88
                                              0 COMMON     1     1      0
 ---------------------------------------------------------------------------------
 Estimated maximum stack depth 4
 ---------------------------------------------------------------------------------

 Call Graph Graphs:

 _main (ROOT)
   _Lcd_Clear
     _Lcd_Cmd
       _Lcd_Port
   _Lcd_Init
     _Lcd_Cmd
       _Lcd_Port
     _Lcd_Port
   _Lcd_Set_Cursor
     _Lcd_Cmd
       _Lcd_Port
   _Lcd_Write_Char
     _Lcd_Port
   _Lcd_Write_String
     _Lcd_Write_Char
       _Lcd_Port
   _UART_Get_Char
   _UART_Init
   _UART_Send_Char
   ___awdiv
   ___awmod
   ___fladd
     ___xxtofl (ARG)
   ___fldiv
   ___flmul
     __Umul8_16
   ___fltol
     ___flmul (ARG)
       __Umul8_16
   ___wmul
   ___xxtofl
   _printf
     __doprnt
       Absolute function(Fake) *
       ___lwdiv *
       ___lwmod *
         ___lwdiv (ARG)
       _putch *
         _UART_Send_Char
   _sprintf
     __doprnt
       Absolute function(Fake) *
       ___lwdiv *
       ___lwmod *
         ___lwdiv (ARG)
       _putch *
         _UART_Send_Char

 Address spaces:
Name               Size   Autos  Total    Cost      Usage
BANK3               60     32      47       9       74.0%
BITBANK3            60      0       0       8        0.0%
SFR3                 0      0       0       4        0.0%
BITSFR3              0      0       0       4        0.0%
BANK2               60      0       0      11        0.0%
BITBANK2            60      0       0      10        0.0%
SFR2                 0      0       0       5        0.0%
BITSFR2              0      0       0       5        0.0%
BANK1               50     50      50       7      100.0%
BITBANK1            50      0       0       6        0.0%
SFR1                 0      0       0       2        0.0%
BITSFR1              0      0       0       2        0.0%
BANK0               50     4B      4B       5       93.8%
BITBANK0            50      0       0       4        0.0%
SFR0                 0      0       0       1        0.0%
BITSFR0              0      0       0       1        0.0%
COMMON               E      E       E       1      100.0%
BITCOMMON            E      0       0       0        0.0%
CODE                 0      0       0       0        0.0%
DATA                 0      0      F0      12        0.0%
ABS                  0      0      F0       3        0.0%
NULL                 0      0       0       0        0.0%
STACK                0      0       0       2        0.0%
EEDATA             100      0       0       0        0.0%


Microchip Technology PIC Macro Assembler V2.00 build -1524193055 
Symbol Table                                                                                   Thu Jan 24 02:02:23 2019

             ___fldiv@aexp 002C               ___fldiv@bexp 002B                          pc 0002  
             ___fldiv@sign 0024                __CFG_CP$OFF 0000                         l73 1FCA  
                       l82 1F84                         l83 1F85                         l92 102C  
                       l84 1F85                         l76 0802                         l93 102F  
                       l85 1F8A                         l77 0802                         l94 1035  
                       l86 1F8C                         l78 0809                         l95 1036  
                       l79 080B                         l96 103C                         l97 103D  
                       l89 0012                         l98 1043                         l99 1045  
             ___awdiv@sign 0076                         fsr 0004        ___wmul@multiplicand 0072  
      __Umul8_16@word_mpld 0076                        l100 1045                        l110 0066  
                      l103 1FE4                        l111 0065                        l112 0066  
                      l121 110E                        l106 1F7A                        l122 10EB  
                      l115 11D4                        l123 112B                        l124 112B  
                      l140 0263                        l109 003C                        l133 159E  
                      l118 10A6                        l134 07C7                        l143 0282  
                      l135 1612                        l240 086A                        l144 032D  
                      l136 16EC                        l241 0841                        l145 0412  
                      l137 1753                        l250 08BD                        l242 0856  
                      l138 07DC                        l146 0479                        l251 086F  
                      l243 0868                        l147 0524                        l139 0129  
                      l420 1245                        l260 093F                        l252 0870  
                      l244 0869                        l148 07E8                        l421 1253  
                      l261 0916                        l245 089A                        l253 0885  
                      l149 07E8                        l430 12A8                        l422 1298  
                      l238 09AF                        l270 09A1                        l262 092B  
                      l254 0897                        l246 086C                        l423 126A  
                      l247 09CB                        l271 09AE                        l263 093D  
                      l255 0898                        l239 083A                        l424 125E  
                      l440 1218                        l600 0C1E                        l272 09CA  
                      l264 093E                        l256 08D9                        l248 086D  
                      l425 126F                        l441 1226                        l433 11E2  
                      l601 0C15                        l273 09CE                        l265 09A2  
                      l257 08E3                        l249 086E                        l426 1270  
                      l442 1232                        l434 11EC                        l610 0C73  
                      l602 0C1D                        l266 0946                        l258 090F  
                      l427 1289                        l443 1237                        l435 1227  
                      l611 0C7A                        l603 0C1C                        l267 0979  
                      l259 0904                        l428 1297                        l436 1201  
                      l612 0C7E                        l604 0C59                        l620 136E  
                      l276 1049                        l700 011F                        l268 098E  
                      l429 12A3                        l437 11F5                        l613 0C8A  
                      l605 0C59                        l621 136B                        l277 1053  
                      l269 09A0                        l438 1206                        l606 0C58  
                      l630 1464                        l622 1377                        l470 132D  
                      l462 12C8                        l278 1068                        l542 1171  
                      l439 1207                        l607 0C74                        l631 1410  
                      l623 1388                        l471 1322                        l463 1344  
                      l279 106D                        l543 1143                        l640 149A  
                      l632 1437                        l624 139E                        l720 0821  
                      l472 1333                        l464 1311                        l544 1137  
                      l552 10E2                        l609 0C64                        l641 14BF  
                      l633 142D                        l625 139B                        l721 0830  
                      l473 1344                        l465 12FD                        l545 1148  
                      l553 10BC                        l570 0A38                        l562 09E2  
                      l650 153F                        l642 14B6                        l634 145F  
                      l626 13A6                        l722 0835                        l466 12FE  
                      l546 1149                        l554 10B0                        l571 0A84  
                      l563 09F8                        l643 14BE                        l635 146B  
                      l627 13C8                        l619 1358                        l467 1310  
                      l547 1162                        l555 10C1                        l580 0AEB  
                      l572 0A47                        l564 09F5                        l644 14BD  
                      l636 1475                        l628 1553                        l660 0CE2  
                      l468 1334                        l548 1170                        l556 10C2  
                      l716 1022                        l581 0B3E                        l573 0ABD  
                      l565 0A01                        l645 14F7                        l637 1495  
                      l629 13DF                        l661 0CE0                        l469 1321  
                      l549 1176                        l557 10D3                        l709 1FFF  
                      l590 0BB9                        l582 0AFE                        l574 0AEB  
                      l566 0A0E                        l646 14F6                        l638 1476  
                      l670 0F46                        l662 0CEB                        l558 10E1  
                      l591 0BC8                        l583 0C8A                        l575 0AE2  
                      l567 0A1A                        l647 1513                        l639 1485  
                      l719 0817                        l671 0F6B                        l663 0D00  
                      l655 0C9E                        l559 10E7                        l592 0BDF  
                      l584 0B3D                        l576 0ABE                        l568 0A30  
                      l648 152F                        l680 0FF2                        l672 0F62  
                      l656 0CB3                        l593 0C01                        l585 0B26  
                      l577 0ACB                        l569 0A2D                        l649 153B  
                      l681 0FEA                        l673 0F6A                        l665 0CF6  
                      l657 0CB1                        l594 0BE0                        l586 0B29  
                      l578 0ACE                        l674 0F69                        l666 0FFF  
                      l658 0CBC                        l690 00B5                        l595 0BEE  
                      l587 0B2F                        l579 0AD4                        l675 0FA3  
                      l667 0F41                        l659 0CCD                        l691 00D1  
                      l588 0C07                        l596 0BF5                        l676 0FA2  
                      l668 0F22                        l692 00B6                        l684 0081  
                      l597 0BF8                        l589 0BBA                        l677 0FBB  
                      l669 0F31                        l693 00D8                        l685 0089  
                      l598 0C00                        l678 0FF2                        l694 00E5  
                      l686 009B                        l599 0C06                        l679 0FD6  
                      l695 00D9                        l687 0128                        l688 00AE  
                      l697 00F0                        l689 00A0                        l698 00F0  
                      l699 00FC                        _RC0 0038                        _RC1 0039  
                      _RC2 003A                        _RC3 003B                        _RD2 0042  
                      _RD3 0043                        _RD4 0044                        _RD5 0045  
                      _RD6 0046                        _RD7 0047               __CFG_CPD$OFF 0000  
                      _RX9 00C6                        _TX9 04C6                        fsr0 0004  
                      indf 0000               ___awmod@sign 0076               __CFG_FOSC$HS 0000  
             ___flmul@aexp 002D               ___flmul@bexp 002E               ___flmul@sign 0028  
             ___flmul@temp 0033               ___flmul@prod 002F               __CFG_LVP$OFF 0000  
              main@buffer1 004E                main@buffer2 00A0                main@buffer3 00B4  
              main@buffer4 00C8               ___fltol@exp1 003F                       l3000 14D6  
                     l3010 1522                       l3002 14EF                       l3020 153B  
                     l3012 1526                       l3004 14F7                       l3100 0E80  
                     l2300 1134                       l3022 154A                       l3014 152E  
                     l3006 1504                       l3110 0F14                       l3102 0E90  
                     l3030 0C98                       l2310 115A                       l2302 1137  
                     l3024 1553                       l3016 1535                       l3008 1513  
                     l3120 0F3A                       l3112 0F22                       l3104 0EBD  
                     l3040 0CB1                       l3032 0C9C                       l3200 0114  
                     l2320 1176                       l2312 1160                       l2304 113E  
                     l2400 08BD                       l3018 1539                       l3130 0F5F  
                     l3114 0F2B                       l3122 0F41                       l3106 0EE3  
                     l3050 0CCB                       l3042 0CB3                       l3034 0C9E  
                     l3026 0C8B                       l3202 0119                       l2314 1162  
                     l2306 1143                       l2330 10BC                       l2322 10A7  
                     l2410 08DB                       l2402 08CB                       l3210 1554  
                     l2500 0019                       l3140 0F82                       l3132 0F66  
                     l3124 0F46                       l3116 0F2F                       l3108 0F0B  
                     l3060 0CE2                       l3052 0CCD                       l3044 0CBC  
                     l3036 0CA3                       l3028 0C92                       l3204 011D  
                     l2316 1169                       l2308 1149                       l2332 10C2  
                     l2324 10AD                       l2340 10E2                       l2412 08E2  
                     l2420 090F                       l2404 08CF                       l3300 16CD  
                     l3220 158B                       l3212 1581                       l2350 1FD8  
                     l2510 0042                       l2502 002A                       l3150 0FCA  
                     l3142 0F9B                       l3134 0F6B                       l3126 0F47  
                     l3118 0F31                       l3070 0D00                       l3062 0CEB  
                     l3054 0CD2                       l3046 0CC1                       l3038 0CA8  
                     l3206 011F                       l2318 1171                       l2342 10E7  
                     l2334 10CC                       l2326 10B0                       l2422 0916  
                     l2430 093F                       l2414 08E3                       l2406 08D3  
                     l3310 1701                       l3302 16D2                       l3230 1598  
                     l3222 158C                       l3214 1586                       l2352 1FE1  
                     l2344 1FCC                       l2520 117D                       l2512 0053  
                     l2504 002F                       l2360 108A                       l2600 1281  
                     l3160 0FEA                       l3152 0FD4                       l3136 0F70  
                     l3144 0FA3                       l3128 0F4B                       l3080 0D82  
                     l3072 0D10                       l3064 0CF0                       l3056 0CD7  
                     l3048 0CC7                       l3208 0128                       l2336 10D3  
                     l2328 10B7                       l2280 0801                       l2440 0999  
                     l2432 0946                       l2424 091E                       l2416 0903  
                     l2408 08D9                       l3400 01B2                       l3320 1711  
                     l3312 1704                       l3304 16DC                       l3240 15CA  
                     l3232 159E                       l3224 158F                       l3216 1589  
                     l2290 1033                       l2346 1FCF                       l2522 1186  
                     l2514 0058                       l2506 0035                       l2370 109E  
                     l2362 108D                       l2354 106F                       l2530 10EB  
                     l2610 129D                       l2602 1287                       l3162 0FF6  
                     l3154 0FD6                       l3146 0FB0                       l3138 0F7E  
                     l3090 0DF0                       l3082 0D9E                       l3074 0D1D  
                     l3066 0CF6                       l3058 0CE0                       l3170 0071  
                     l2338 10DA                       l2282 0809                       l2434 0979  
                     l2442 09A2                       l2426 092B                       l2418 0904  
                     l3410 01CD                       l3402 01B3                       l3330 1739  
                     l3322 171F                       l3314 1705                       l3306 16DD  
                     l3250 1604                       l3242 15D5                       l3234 15A9  
                     l3226 1592                       l3218 158A                       l2292 103A  
                     l2348 1FD5                       l2524 1195                       l2516 005E  
                     l2508 003C                       l2372 10A3                       l2364 1092  
                     l2356 1079                       l2532 1107                       l2612 12A3  
                     l2604 1289                       l2620 11DA                       l2700 09E7  
                     l2460 0817                       l3164 0FFF                       l3156 0FE4  
                     l3148 0FBB                       l3092 0E00                       l3084 0DBA  
                     l3076 0D3A                       l3068 0CFF                       l3180 00A0  
                     l3172 0081                       l2284 000C                       l2436 0981  
                     l2428 0936                       l2380 0849                       l2444 09AF  
                     l2540 1FEC                       l3500 037B                       l3420 0210  
                     l3412 01EE                       l3404 01B4                       l3340 1781  
                     l3332 1743                       l3324 1734                       l3316 1706  
                     l3308 16EC                       l3260 1639                       l3252 1612  
                     l3244 15E0                       l3236 15B4                       l3228 1593  
                     l2294 1041                       l2286 1024                       l2526 119B  
                     l2518 1177                       l2366 1095                       l2358 107C  
                     l2534 110E                       l2470 1FB5                       l2614 12A8  
                     l2606 1290                       l2630 11F2                       l2622 11DF  
                     l2710 0A01                       l2702 09EC                       l2462 081B  
                     l3158 0FE8                       l3094 0E1D                       l3086 0DC3  
                     l3078 0D56                       l3190 00D9                       l3182 00AE  
                     l3174 0091                       l3166 0068                       l2438 098E  
                     l2390 0878                       l2446 09CB                       l2382 0856  
                     l2374 0839                       l2542 1FF0                       l2550 1009  
                     l3510 03A3                       l3502 037C                       l3430 022B  
                     l3422 0211                       l3414 01F2                       l3406 01BE  
                     l3350 17AE                       l3342 178C                       l3326 1737  
                     l3318 1710                       l3334 1753                       l3270 1660  
                     l3262 164C                       l3254 161D                       l3246 15EB  
                     l3238 15BF                       l2288 1028                       l2368 109B  
                     l2528 10E8                       l2480 1FC0                       l2472 1FB9  
                     l2608 1298                       l2640 1211                       l2632 11F5  
                     l2624 11E2                       l2616 11D5                       l2800 0B1D  
                     l2720 0A18                       l2712 0A06                       l2704 09F5  
                     l2464 082A                       l2456 080D                       l3096 0E36  
                     l3088 0DD3                       l2560 1049                       l3192 00E5  
                     l3184 00B6                       l3176 009A                       l3168 006D  
                     l2296 112C                       l2448 09CE                       l2392 0885  
                     l2384 0861                       l2376 083A                       l2544 1FFF  
                     l2536 1FE5                       l2552 100D                       l3600 0537  
                     l3520 03B8                       l3512 03A9                       l3504 0386  
                     l3440 0253                       l3432 0244                       l3424 0212  
                     l3416 01F8                       l3408 01BF                       l3360 17E0  
                     l3352 17BA                       l3344 1794                       l3336 176B  
                     l3328 1738                       l3280 1688                       l3272 1661  
                     l3264 1652                       l3256 1625                       l3248 15FE  
                     l2490 1F81                       l2482 1FC1                       l2474 1FBB  
                     l2650 1232                       l2642 1218                       l2634 11FC  
                     l2626 11E6                       l2618 11D6                       l2810 0B38  
                     l2802 0B26                       l2730 0A2E                       l2722 0A1A  
                     l2714 0A0C                       l2706 09F6                       l2466 0830  
                     l2458 080F                       l3098 0E53                       l2570 106D  
                     l2562 104D                       l3194 00E9                       l3186 00BA  
                     l3178 009B                       l2298 112E                       l2394 0890  
                     l2378 0841                       l2386 086A                       l2538 1FE8  
                     l2554 101B                       l2546 1004                       l3610 0574  
                     l3602 0540                       l3530 03F3                       l3522 03C2  
                     l3514 03B3                       l3506 0387                       l3450 0282  
                     l3442 0254                       l3434 0247                       l3426 021C  
                     l3418 020D                       l3370 013C                       l3362 17E9  
                     l3354 17C2                       l3346 179C                       l3338 1776  
                     l3290 169D                       l3282 168E                       l3274 166B  
                     l3266 165C                       l3258 162E                       l2492 1F8A  
                     l2484 1FC4                       l2476 1FBC                       l2580 1245  
                     l2572 1238                       l2652 1237                       l2644 121F  
                     l2636 1201                       l2628 11EC                       l2820 0BAA  
                     l2804 0B29                       l2812 0B3E                       l2740 0A4B  
                     l2724 0A1F                       l2732 0A30                       l2716 0A0E  
                     l2708 09F8                       l2900 136C                       l2468 0835  
                     l2660 12C8                       l2564 105A                       l3196 00F4  
                     l3188 00C8                       l2396 0899                       l2388 0870  
                     l2556 1022                       l2548 1008                       l3700 079C  
                     l3620 05B5                       l3612 05A8                       l3604 054B  
                     l3540 0427                       l3532 03F8                       l3524 03C3  
                     l3516 03B6                       l3508 0390                       l3460 02C3  
                     l3452 029A                       l3444 0268                       l3436 0248  
                     l3428 021D                       l3380 0173                       l3372 0145  
                     l3364 17F8                       l3356 17CE                       l3348 17A8  
                     l3292 16A7                       l3284 1698                       l3276 166C  
                     l3268 165F                       l2494 1F8C                       l2486 1FC7  
                     l2478 1FBD                       l2590 125B                       l2582 1249  
                     l2574 1239                       l2638 1207                       l2646 1227  
                     l2830 0BE0                       l2814 0B54                       l2822 0BBA  
                     l2806 0B2D                       l2750 0A5F                       l2742 0A4F  
                     l2734 0A3E                       l2726 0A24                       l2718 0A14  
                     l2910 1386                       l2902 136E                       l2670 12EC  
                     l2662 12DD                       l2654 12A9                       l2566 1061  
                     l2558 1046                       l3198 00FE                       l2398 089A  
                     l3702 07A8                       l3630 05E8                       l3622 05B6  
                     l3614 05A9                       l3606 055E                       l3550 0437  
                     l3542 042A                       l3534 0402                       l3526 03D1  
                     l3518 03B7                       l3470 02F1                       l3462 02CB  
                     l3454 02A5                       l3446 0272                       l3438 0249  
                     l3390 0183                       l3382 0176                       l3374 0150  
                     l3366 0129                       l3358 17D4                       l3294 16A8  
                     l3286 169B                       l3278 1675                       l3710 07C7  
                     l2496 1F6E                       l2488 1F7B                       l2592 125E  
                     l2584 124E                       l2576 123D                       l2648 122C  
                     l2840 0BF8                       l2832 0BE9                       l2824 0BD0  
                     l2816 0BA3                       l2808 0B2F                       l2760 0A73  
                     l2752 0A63                       l2744 0A53                       l2736 0A42  
                     l2728 0A2D                       l2920 139C                       l2912 1388  
                     l2904 1377                       l2680 1317                       l2672 12F3  
                     l2664 12DE                       l2656 12BE                       l2568 1068  
                     l3704 07B1                       l3640 0629                       l3632 061C  
                     l3624 05BF                       l3616 05AA                       l3608 0564  
                     l3560 045F                       l3552 0445                       l3544 042B  
                     l3536 0403                       l3528 03E6                       l3480 0327  
                     l3472 02FD                       l3464 02D7                       l3456 02B0  
                     l3448 0273                       l3392 018C                       l3384 0177  
                     l3376 0163                       l3368 0134                       l3712 07DC  
                     l3296 16B6                       l3288 169C                       l2498 0014  
                     l2594 1265                       l2586 1253                       l2578 1242  
                     l2850 0C0C                       l2842 0BFD                       l2834 0BED  
                     l2826 0BD5                       l2818 0BA5                       l2770 0A85  
                     l2762 0A77                       l2754 0A67                       l2746 0A57  
                     l2738 0A47                       l2690 09CF                       l2930 13C7  
                     l2914 138D                       l2922 139E                       l2906 137C  
                     l2682 1320                       l2674 12FC                       l2666 12E6  
                     l2658 12C7                       l3706 07C0                       l3650 06C0  
                     l3642 062A                       l3634 061D                       l3626 05D2  
                     l3618 05AB                       l3570 04A7                       l3562 0469  
                     l3554 045A                       l3546 042C                       l3538 0412  
                     l3490 0354                       l3482 032D                       l3474 0303  
                     l3466 02DD                       l3458 02BB                       l3394 019F  
                     l3386 0178                       l3378 0169                       l3298 16C0  
                     l2596 126A                       l2588 1255                       l2860 0C31  
                     l2852 0C12                       l2836 0BF2                       l2828 0BDE  
                     l2844 0C01                       l2780 0AD2                       l2772 0AA1  
                     l2764 0A7B                       l2756 0A6B                       l2748 0A5B  
                     l2692 09D6                       l2940 13F6                       l2924 13AE  
                     l2932 13C8                       l2916 1392                       l2908 1382  
                     l2684 1322                       l2676 12FE                       l2668 12E8  
                     l3708 07C6                       l3660 06E2                       l3652 06D3  
                     l3644 0638                       l3636 061E                       l3628 05D8  
                     l3580 04D4                       l3572 04B2                       l3556 045D  
                     l3548 0436                       l3564 0479                       l3492 0367  
                     l3484 0338                       l3476 030F                       l3468 02E9  
                     l3396 01A5                       l3388 0182                       l2598 1270  
                     l2870 0C6C                       l2862 0C35                       l2854 0C19  
                     l2838 0BF5                       l2846 0C07                       l2790 0AF4  
                     l2782 0AD4                       l2774 0AC2                       l2766 0A7F  
                     l2758 0A6F                       l2694 09DC                       l2950 1415  
                     l2942 13FE                       l2934 13CD                       l2926 13BA  
                     l2918 139B                       l2686 1334                       l2678 1311  
                     l3670 06F6                       l3662 06E3                       l3654 06D6  
                     l3646 0659                       l3638 061F                       l3590 0506  
                     l3582 04E0                       l3574 04BA                       l3566 0491  
                     l3558 045E                       l3494 036D                       l3486 0340  
                     l3478 0318                       l3398 01AF                       l2880 0C85  
                     l2872 0C71                       l2864 0C53                       l2856 0C1E  
                     l2848 0C08                       l2792 0AFD                       l2784 0ADD  
                     l2776 0ACB                       l2768 0A84                       l2696 09E0  
                     l2960 1449                       l2952 1427                       l2944 1406  
                     l2936 13DE                       l2928 13BE                       l2688 1339  
                     l3680 073E                       l3672 0700                       l3664 06F1  
                     l3656 06D7                       l3648 0680                       l3592 050F  
                     l3584 04E8                       l3576 04C2                       l3568 049C  
                     l3496 0377                       l3488 0349                       l2882 0C89  
                     l2874 0C74                       l2866 0C5E                       l2858 0C23  
                     l2794 0AFE                       l2778 0ACE                       l2786 0AE2  
                     l2698 09E2                       l2970 1473                       l2962 144A  
                     l2954 142B                       l2946 140E                       l2938 13DF  
                     l2890 1356                       l3770 08B2                       l3690 0770  
                     l3682 0749                       l3674 0701                       l3666 06F4  
                     l3658 06D8                       l3594 051E                       l3586 04F4  
                     l3578 04CE                       l3498 037A                       l2876 0C78  
                     l2868 0C64                       l2796 0B15                       l2788 0AEF  
                     l2980 148E                       l2972 1476                       l2964 145F  
                     l2956 142D                       l2948 1410                       l2892 1358  
                     l2884 1345                       l3692 0776                       l3684 0754  
                     l3676 070F                       l3668 06F5                       l3596 0524  
                     l3588 04FA                       l2878 0C7A                       l2798 0B19  
                     l2990 14B3                       l2974 147F                       l2982 1495  
                     l2958 1437                       l2966 1464                       l2894 135D  
                     l2886 134C                       l3694 0782                       l3686 075C  
                     l3678 0733                       l3598 052F                       l2992 14BA  
                     l2984 149A                       l2976 1483                       l2968 146B  
                     l2896 1362                       l2888 1352                       l3768 07CE  
                     l3696 078A                       l3688 0764                       l2994 14BF  
                     l2986 149B                       l2978 1485                       l2898 136B  
                     l3698 0796                       l2996 14C4                       l2988 149F  
                     l2998 14D2                       STR_1 184E                       STR_2 181C  
                     STR_3 199E                       STR_4 1968                       STR_5 19C3  
                     STR_6 1976                       STR_7 187F                       STR_8 19E0  
                     STR_9 18DF                       _BRGH 04C2                       _CREN 00C4  
                     u2100 0808                       u2101 0807                       u2110 1028  
                     u2111 1027                       u2120 1033                       u2121 1032  
                     u2130 103A                       u3010 0AEA                       u2210 116F  
                     u2131 1039                       u3011 0AE9                       u2211 116E  
                     u2140 1041                       u3100 0B7A                       u3020 0AEF  
                     u2220 10AD                       u2300 0849                       u2141 1040  
                     u3101 0B7B                       u3021 0AEE                       u3005 0AD6  
                     u2205 1163                       u2221 10AC                       u2301 0848  
                     u3110 0B8C                       u3102 0B80                       u3030 0AF4  
                     u2150 1134                       u2310 0878                       u3111 0B8D  
                     u3103 0B81                       u3031 0AF3                       u2151 1133  
                     u2311 0877                       u3200 0C0C                       u3120 0BAA  
                     u3112 0B92                       u4000 0071                       u2240 10C0  
                     u2400 09C9                       u2320 08CF                       u3201 0C0B  
                     u3121 0BA9                       u3113 0B93                       u3041 0B07  
                     u4001 0070                       u2241 10BF                       u2401 09C8  
                     u2321 08CE                       u3210 0C12                       u3130 0BD0  
                     u3050 0B19                       u3042 0B0E                       u2410 081B  
                     u4010 0091                       u2170 1147                       u2250 10CC  
                     u2330 08E1                       u3211 0C11                       u3131 0BCF  
                     u3051 0B18                       u3043 0B15                       u2411 081A  
                     u4011 0090                       u2171 1146                       u2251 10CB  
                     u2235 10B1                       u2331 08E0                       u2500 10F5  
                     u3300 0C78                       u3220 0C19                       u3140 0BD5  
                     u3060 0B1D                       u4100 0109                       u2340 0902  
                     u3301 0C77                       u3221 0C18                       u3141 0BD4  
                     u3061 0B1C                       u2165 1138                       u2341 0901  
                     u2510 1118                       u3310 0C89                       u3230 0C23  
                     u3070 0B2D                       u2430 082F                       u4110 0119  
                     u4030 00B4                       u2190 115A                       u2270 10E0  
                     u2350 090E                       u3311 0C88                       u3231 0C22  
                     u3071 0B2C                       u2431 082E                       u4111 0118  
                     u4031 00B3                       u2191 1159                       u2271 10DF  
                     u2255 10C8                       u2351 090D                       u2520 112A  
                     u2440 1F81                       u3240 0C35                       u3160 0BED  
                     u3400 1415                       u3320 1356                       u4120 011D  
                     u2360 0915                       u2521 1129                       u2441 1F80  
                     u3241 0C34                       u3161 0BEC                       u3401 1414  
                     u3321 1355                       u2425 0822                       u4121 011C  
                     u4105 0104                       u4025 00A5                       u2185 114A  
                     u2265 10D4                       u2361 0914                       u2345 08FE  
                     u2450 1F89                       u2610 126E                       u3250 0C44  
                     u3170 0BF2                       u3090 0B54                       u3330 135D  
                     u2530 104D                       u4050 00D7                       u2370 091E  
                     u2290 0840                       u4130 155E                       u2451 1F88  
                     u2611 126D                       u3171 0BF1                       u3155 0BE2  
                     u3091 0B53                       u3331 135C                       u2531 104C  
                     u4051 00D6                       u2195 1156                       u2371 091D  
                     u2291 083F                       u2460 0019                       u3260 0C53  
                     u3180 0BFD                       u3500 1483                       u3340 1362  
                     u2380 0981                       u4140 1573                       u2461 0018  
                     u2285 107F                       u2605 125F                       u3261 0C52  
                     u3181 0BFC                       u3093 0B50                       u3085 0B31  
                     u3501 1482                       u3341 1361                       u4045 00C9  
                     u2381 0980                       u2630 1281                       u2710 1205  
                     u3270 0C5E                       u3190 0C05                       u3430 142B  
                     u3350 1386                       u4070 00E9                       u2390 09AD  
                     u4150 16CD                       u2631 1280                       u2711 1204  
                     u3271 0C5D                       u3255 0C3F                       u3191 0C04  
                     u3431 142A                       u3415 1417                       u3351 1385  
                     u4071 00E8                       u2391 09AC                       u4207 16E5  
                     u4151 16CC                       u2480 0042                       u2720 1211  
                     u3280 0C63                       u3600 1522                       u3520 1499  
                     u3360 138D                       u2560 1067                       u4080 00EF  
                     u4160 01F2                       u2481 0041                       u2625 1271  
                     u2721 1210                       u2705 11F6                       u3281 0C62  
                     u3601 1521                       u3521 1498                       u3425 1420  
                     u3361 138C                       u2561 1066                       u2545 1054  
                     u4081 00EE                       u4065 00DD                       u4161 01F1  
                     u4217 1719                       u2650 1296                       u2570 123D  
                     u3290 0C71                       u3610 1539                       u3530 149F  
                     u3450 1449                       u3370 1392                       u2810 130F  
                     u4090 00F4                       u4170 03F3                       u2475 0021  
                     u2651 1295                       u2635 127D                       u2571 123C  
                     u3291 0C70                       u3611 1538                       u3531 149E  
                     u3515 1487                       u3451 1448                       u3371 1391  
                     u2811 130E                       u2555 105B                       u4091 00F3  
                     u4307 040B                       u4171 03F2                       u4227 174C  
                     u4155 16C9                       u2660 129D                       u2580 1249  
                     u2740 1225                       u2900 0A18                       u3540 14B3  
                     u3460 145E                       u3380 13AE                       u3620 0C9C  
                     u2820 1317                       u4180 07E7                       u2661 129C  
                     u2645 128A                       u2581 1248                       u2741 1224  
                     u2725 120D                       u2901 0A17                       u3605 151E  
                     u3541 14B2                       u3445 142F                       u3381 13AD  
                     u3701 0D48                       u3621 0C9B                       u2821 1316  
                     u2805 12FF                       u4181 07E4                       u4317 043F  
                     u4237 17F1                       u2590 125B                       u2750 122C  
                     u2670 11DA                       u2910 0A1F                       u3550 14BA  
                     u3470 146A                       u3390 13CD                       u3702 0D4F  
                     u3630 0CA3                       u4407 1181                       u2495 004A  
                     u2591 125A                       u2751 122B                       u2735 1219  
                     u2671 11D9                       u2911 0A1E                       u3551 14B9  
                     u3471 1469                       u3455 1445                       u3391 13CC  
                     u3711 0D64                       u3703 0D56                       u3631 0CA2  
                     u4327 0472                       u4175 03EF                       u4247 01C7  
                     u2680 11E6                       u2920 0A24                       u3560 14C4  
                     u3480 1473                       u3712 0D6B                       u3640 0CA8  
                     u2840 1332                       u2760 12BE                       u4417 1190  
                     u2681 11E5                       u2921 0A23                       u3561 14C3  
                     u3481 1472                       u3465 1451                       u3801 0E9F  
                     u3721 0D90                       u3713 0D72                       u3641 0CA7  
                     u2841 1331                       u2761 12BD                       u4337 0517  
                     u4257 0225                       u2690 11F2                       u2930 0A3E  
                     u3570 14D6                       u3466 1452                       u3810 0EC9  
                     u3802 0EA6                       u3722 0D97                       u3650 0CCB  
                     u2850 1339                       u2770 12D6                       u4427 119F  
                     u2691 11F1                       u2931 0A3D                       u3571 14D5  
                     u3467 1457                       u3803 0EAD                       u3731 0DAC  
                     u3723 0D9E                       u3651 0CCA                       u2851 1338  
                     u2835 1324                       u4347 0632                       u4267 025C  
                     u2940 0A42                       u2860 09E0                       u3580 14E5  
                     u3468 1458                       u3900 0F4B                       u3732 0DB3  
                     u3660 0CD2                       u2780 12EC                       u4437 1FDC  
                     u2941 0A41                       u2861 09DF                       u3469 145D  
                     u3901 0F4A                       u3821 0ED5                       u3733 0DBA  
                     u3661 0CD1                       u2781 12EB                       u4357 06EB  
                     u4277 027B                       u4197 16B0                       u2950 0AA1  
                     u2870 09E7                       u3590 1504                       u3910 0F5F  
                     u3830 0EF1                       u3822 0EDC                       u3670 0CD7  
                     u2790 12F3                       u2951 0AA0                       u2871 09E6  
                     u3591 1503                       u3495 1478                       u3911 0F5E  
                     u3823 0EE3                       u3815 0EC4                       u3751 0DE2  
                     u3671 0CD6                       u2791 12F2                       u2775 12D1  
                     u4367 0709                       u4287 0320                       u2960 0AAC  
                     u2880 09EC                       u3920 0F66                       u3752 0DE9  
                     u3680 0CF0                       u2961 0AAA                       u2881 09EB  
                     u3585 14E0                       u3921 0F65                       u3841 0EFD  
                     u3761 0E0F                       u3753 0DF0                       u3745 0DBC  
                     u3681 0CEF                       u4377 07B9                       u4297 03CB  
                     u2970 0AAD                       u2890 0A0C                       u3930 0F70  
                     u3842 0F04                       u3762 0E16                       u3690 0CF5  
                     u4387 108F                       u2955 0A9D                       u2891 0A0B  
                     u3595 1500                       u3931 0F6F                       u3843 0F0B  
                     u3835 0EEC                       u3763 0E1D                       u3691 0CF4  
                     u2980 0AC2                       u3940 0F82                       _RCIF 0065  
                     u4397 10A0                       u2981 0AC1                       u3941 0F81  
                     u3781 0E45                       u2990 0AD2                       u3950 0F91  
                     u3870 0F2F                       u3782 0E4C                       u2991 0AD1  
                     u3871 0F2E                       u3855 0F0D                       u3791 0E72  
                     u3783 0E53                       u3775 0E1F                       u3960 0FB0  
                     u3792 0E79                       u3961 0FAF                       u3865 0F24  
                     u3793 0E80                       u3970 0FCA                       u3890 0F45  
                     u3971 0FC9                       u3955 0F8C                       u3891 0F44  
                     u3980 0FE8                       u3981 0FE7                       u3965 0FAC  
                     u3885 0F33                       u3990 006D                       u3975 0FC6  
                     u3991 006C                       _OERR 00C1                       _SPEN 00C7  
                     _TXEN 04C5                       _TXIF 0064                       _SYNC 04C4  
             __CFG_WRT$OFF 0000          ?_Lcd_Write_String 0075                       _main 1554  
                     btemp 007E              __CFG_BOREN$ON 0000                       start 0000  
       ??_Lcd_Write_String 0077            ___fldiv@new_exp 0025            __end_of_Lcd_Cmd 1FE5  
            ___fltol@sign1 003E            __end_of___fladd 0C8B                      ?_main 0070  
          __end_of___fldiv 1554            __end_of___awdiv 12A9                      STR_10 19AB  
                    STR_11 1927                      STR_20 19DD                      STR_12 1911  
                    STR_13 19DD                      STR_21 1991                      STR_22 19E0  
                    STR_14 193D                      STR_30 18C4                      STR_15 19E0  
                    STR_31 1984                      STR_23 18F8                      STR_32 1927  
                    STR_24 19CF                      STR_16 18A9                      STR_33 1911  
                    STR_25 1927                      STR_17 19B7              __CFG_WDTE$OFF 0000  
                    STR_26 1911                      STR_18 1927                      STR_34 19DA  
                    STR_19 1911                      STR_27 19DD                      STR_35 195A  
                    STR_36 19E0                      STR_28 194C            __end_of___awmod 1238  
                    STR_29 19E0            __end_of___flmul 1000            __end_of___fltol 1345  
          ___awdiv@divisor 0070            __end_of___lwdiv 1177            __end_of___lwmod 10E8  
          ___awdiv@counter 0075                      _RCREG 001A                      _SPBRG 0099  
                    _PORTB 0006            __end_of__doprnt 09CF    __size_of_Lcd_Set_Cursor 0054  
                    _TRISB 0086                      _TRISD 0088                      _TXREG 0019  
       __size_of_UART_Init 0016            __end_of_dpowers 181C                      _putch 000C  
                    main@k 00EC                      main@m 01A6                      main@n 01B6  
                    fpbase 0008                      main@p 01C0                      main@r 01BE  
                    main@s 01BC                      pclath 000A                      status 0003  
                    wtemp0 007E            __end_of_sprintf 1023           __end_of_Lcd_Init 11D5  
         __end_of_Lcd_Port 1046            __initialization 07EE               __end_of_main 07EB  
            main@broj1_150 00E0              main@broj1_165 00E4              main@broj2_151 00E2  
            main@broj2_166 00E6                     ??_main 0040         __size_of_Lcd_Clear 000D  
         ___awdiv@dividend 0072                     ?_putch 0071                  ??_Lcd_Cmd 0071  
  __size_of_Lcd_Write_Char 0039                     _TRISC0 0438                     _TRISC1 0439  
                   _TRISC2 043A                     _TRISC3 043B                     _TRISC6 043E  
                   _TRISC7 043F           __end_of__fptable 000C           __end_of___xxtofl 0129  
           __CFG_PWRTE$OFF 0000          __end_of_UART_Init 1FCB                  ??___fladd 0028  
                   ___wmul 1046                  ??___fldiv 0078                  ??___awdiv 0074  
                ??___awmod 0074                  ??___flmul 0079                  ??___fltol 0039  
                ??___lwdiv 0074                  ??___lwmod 007C                  ??__doprnt 0023  
         ___awdiv@quotient 0077            ___awmod@divisor 0070      __end_of_UART_Get_Char 1F8D  
             __doprnt@flag 0027            ___awmod@counter 0075                     _printf 1FE5  
                   main@a1 019A                     main@a2 01AA                     main@a3 019C  
                   main@a4 01AC                     main@d1 00E8                     main@d2 00EA  
                   main@k1 0062                     main@k2 01B8                     main@k3 0066  
                   main@k4 01BA                     main@p1 01A2                     main@p2 01B2  
                   main@p3 01A4                     main@p4 01B4                     main@r1 019E  
                   main@r2 01AE                     main@r3 01A0                     main@r4 01B0  
             __doprnt@prec 0028                     fptable 0003                     fptotal 0002  
       __size_of__Umul8_16 002A    __size_of_UART_Send_Char 000C                     putch@a 0071  
                ??_sprintf 0033            Lcd_Set_Cursor@a 0077            Lcd_Set_Cursor@b 0074  
          Lcd_Set_Cursor@y 0079            Lcd_Set_Cursor@z 0078               ___xxtofl@arg 007A  
             ___xxtofl@exp 0079               ___xxtofl@val 0070    __end_of__initialization 07FC  
        __end_of_Lcd_Clear 1F7B                 ___fltol@f1 0035             __pcstackCOMMON 0070  
             __pidataBANK3 1FA0              __end_of_putch 0013             _Lcd_Set_Cursor 0013  
                ?_Lcd_Init 0070                  ?_Lcd_Port 0070                 __doprnt@ap 0022  
               __doprnt@pb 002C                    ??_putch 0072          __end_of__Umul8_16 0836  
               __pmaintext 1554                    ?___wmul 0070  __size_of_Lcd_Write_String 0044  
   __end_of_Lcd_Set_Cursor 0067                    ?_printf 002D                  ?___xxtofl 0070  
               ??_Lcd_Init 0074                 ??_Lcd_Port 0070                 __stringtab 1800  
           _Lcd_Write_Char 106E                    _Lcd_Cmd 1FCB                    ___fladd 09CF  
                  ___fldiv 1345                    ___awdiv 1238                    ___awmod 11D5  
                  ___flmul 0C8B                    ___fltol 12A9            __size_of___wmul 0028  
                  ___lwdiv 112C                    ___lwmod 10A7                    __doprnt 0836  
          ?_Lcd_Set_Cursor 0074                    __ptext1 1001                    __ptext2 1FE5  
                  __ptext3 0836                    __ptext4 000C                    __ptext5 0800  
                  __ptext6 10A7                    __ptext7 112C                    __ptext8 0067  
                  __ptext9 1046            __size_of_printf 001B                    _dpowers 1812  
           _UART_Send_Char 0800                 ??___xxtofl 0074           ___awmod@dividend 0072  
                  _sprintf 1001     __end_of_Lcd_Write_Char 10A7       end_of_initialization 07FC  
                  printf@f 002D                    psplit$0 B0026                  Lcd_Port@a 0070  
             __pstringtext 1800                  _UART_Init 1FB5     __end_of_UART_Send_Char 080C  
              ___fladd@grs 0037              ___xxtofl@sign 0078                ___fldiv@grs 0027  
              ___fldiv@rem 0020       pnum$maintext_split_1 0026            ?_Lcd_Write_Char 0070  
        Lcd_Write_String@a 0075          Lcd_Write_String@i 007A                ___flmul@grs 0029  
               main@opcija 01A8                  _Lcd_Clear 1F6E             __end_of___wmul 106E  
         _Lcd_Write_String 10E8                 ?_UART_Init 0070            ?_UART_Send_Char 0070  
           __end_of_printf 2000        start_initialization 07EE          __size_of_Lcd_Init 005E  
        __size_of_Lcd_Port 0023     __size_of_UART_Get_Char 0012                 ?_Lcd_Clear 0070  
                 ??___wmul 0074                 init_fetch0 1F8D                  __Umul8_16 080C  
              __doprnt@val 0029                __pdataBANK3 01C2            Lcd_Write_Char@a 0074  
          Lcd_Write_Char@y 0073                   ??_printf 002F                  ___fladd@a 0024  
                ___fladd@b 0020                  ___fldiv@a 0070                  ___fldiv@b 0074  
                ___flmul@a 0024                  ___flmul@b 0020                  ___latbits 0002  
            __pcstackBANK0 0020              __pcstackBANK1 00A0              __pcstackBANK3 0190  
        __size_of__fptable 0009          __size_of___xxtofl 00C2                   ?_Lcd_Cmd 0070  
                __doprnt@c 002B                  __doprnt@f 0020           ___lwdiv@dividend 0072  
         ??_Lcd_Set_Cursor 0075                  __pfunctab 0003                   ?___fladd 0020  
                 ?___fldiv 0070                   ?___awdiv 0070                   ?___awmod 0070  
                 ?___flmul 0020                   ?___fltol 0035                 ?__Umul8_16 0070  
                 ?___lwdiv 0070                   ?___lwmod 0078                   ?__doprnt 0020  
              ??_UART_Init 0070              _UART_Get_Char 1F7B           ___lwdiv@quotient 0075  
                 ?_sprintf 002D             __size_of_putch 0007             ___wmul@product 0074  
                 Lcd_Cmd@a 0073                ??_Lcd_Clear 0074                  main@F1117 01CC  
                main@F1135 01D6                  main@F1119 01C2             ?_UART_Get_Char 0070  
              __stringbase 1812          ___wmul@multiplier 0070                  main@broj1 00DC  
                main@broj2 00DE           ??_Lcd_Write_Char 0071                  main@minus 006A  
                 _Lcd_Init 1177                   _Lcd_Port 1023   __end_of_Lcd_Write_String 112C  
          UART_Send_Char@a 0070           __size_of_Lcd_Cmd 001A           ??_UART_Send_Char 0070  
              ??__Umul8_16 0072               pnum$maintext 000B           __size_of___fladd 02BC  
         __size_of___fldiv 020F           __size_of___awdiv 0071           __size_of___awmod 0063  
         __size_of___flmul 0375           __size_of___fltol 009C           __size_of___lwdiv 004B  
         __size_of___lwmod 0041           __size_of__doprnt 0199         __end_of__stringtab 1812  
                 __fptable 0003                   ___xxtofl 0067            ___lwdiv@divisor 0070  
          ___lwdiv@counter 0077                   __ptext10 12A9                   __ptext11 0C8B  
                 __ptext20 106E                   __ptext12 080C                   __ptext21 0013  
                 __ptext13 1345                   __ptext22 1177                   __ptext14 09CF  
                 __ptext23 1F6E                   __ptext15 11D5                   __ptext24 1FCB  
                 __ptext16 1238                   __ptext25 1023                   __ptext17 1FB5  
                 __ptext18 1F7B                   __ptext19 10E8           __size_of_sprintf 0022  
            __size_of_main F297            ??_UART_Get_Char 0070                   fp__putch 0009  
                 init_ram0 1F91         Lcd_Write_Char@temp 0072                  sprintf@ap 0034  
                sprintf@pb 0036                  sprintf@wh 0035           ___lwmod@dividend 007A  
                stringcode 180A                   printf@ap 0030                   printf@pb 0031  
       Lcd_Set_Cursor@temp 007A               main@DISPLEJ1 0044     __Umul8_16@multiplicand 0070  
                 sprintf@f 002D            ___lwmod@divisor 0078            ___lwmod@counter 007D  
                 stringtab 1800              ___fladd@signs 0034                main@DISPLEJ 0190  
             ___fladd@aexp 0035               ___fladd@bexp 0036       __Umul8_16@multiplier 0078  
        __Umul8_16@product 0074  
