

Microchip Technology PIC LITE Macro Assembler V2.00 build -1524193055 
                                                                                               Sat Jan 05 19:10:51 2019

Microchip Technology Omniscient Code Generator v2.00 (Free mode) build 20180527130849
     1  0000                     
      + 0000                     
     2                           ; Version 2.00
     3                           ; Generated 27/05/2018 GMT
     4                           
     5                           ; 
     6                           ; Copyright © 2018, Microchip Technology Inc. and its subsidiaries ("Microchip")
     7                           ; All rights reserved.
     8                           ; 
     9                           ; This software is developed by Microchip Technology Inc. and its subsidiaries ("Microch
                                 ip").
    10                           ; 
    11                           ; Redistribution and use in source and binary forms, with or without modification, are
    12                           ; permitted provided that the following conditions are met:
    13                           ; 
    14                           ;     1. Redistributions of source code must retain the above copyright notice, this lis
                                 t of
    15                           ;        conditions and the following disclaimer.
    16                           ; 
    17                           ;     2. Redistributions in binary form must reproduce the above copyright notice, this 
                                 list
    18                           ;        of conditions and the following disclaimer in the documentation and/or other
    19                           ;        materials provided with the distribution.
    20                           ; 
    21                           ;     3. Microchip's name may not be used to endorse or promote products derived from th
                                 is
    22                           ;        software without specific prior written permission.
    23                           ; 
    24                           ; THIS SOFTWARE IS PROVIDED BY MICROCHIP "AS IS" AND ANY EXPRESS OR IMPLIED WARRANTIES,

    25                           ; INCLUDING, BUT NOT LIMITED TO, THE IMPLIED WARRANTIES OF MERCHANTABILITY AND FITNESS F
                                 OR
    26                           ; PURPOSE ARE DISCLAIMED.  IN NO EVENT SHALL MICROCHIP BE LIABLE FOR ANY DIRECT, INDIREC
                                 T,
    27                           ; INCIDENTAL, SPECIAL, EXEMPLARY, OR CONSEQUENTIAL DAMAGES (INCLUDING BUT NOT LIMITED TO
                                 
    28                           ; PROCUREMENT OF SUBSTITUTE GOODS OR SERVICES; LOSS OF USE, DATA OR PROFITS; OR BUSINESS
                                 
    29                           ; INTERRUPTION) HOWSOEVER CAUSED AND ON ANY THEORY OF LIABILITY, WHETHER IN CONTRACT, ST
                                 RICT
    30                           ; LIABILITY, OR TORT (INCLUDING NEGLIGENCE OR OTHERWISE) ARISING IN ANY WAY OUT OF THE U
                                 SE OF
    31                           ; THIS SOFTWARE, EVEN IF ADVISED OF THE POSSIBILITY OF SUCH DAMAGE.
    32                           ; 
    33                           
    34                           
    35                           ; 
    36                           ; Code-generator required, PIC16F877A Definitions
    37                           ; 
    38  0004                     fsr0 equ 04h
    39  0004                     indf equ 00h
    40  0000                     indf0 equ 00h
    41  0000                     pc equ 02h
    42  0002                     pcl equ 02h
    43  0002                     pclath equ 0Ah
    44  000A                     status equ 03h
    45  0003                     
     2                           opt pagewidth 120
     3  0000                     byte0	macro	val
     4                           	(getbyte(val,0))
     5                           endm
     6  0000                     byte1	macro	val
     7                           	(getbyte(val,1))
     8                           endm
     9  0000                     byte2	macro	val
    10                           	(getbyte(val,2))
    11                           endm
    12  0000                     byte3	macro	val
    13                           	(getbyte(val,3))
    14                           endm
    15  0000                     byte4	macro	val
    16                           	(getbyte(val,4))
    17                           endm
    18  0000                     byte5	macro	val
    19                           	(getbyte(val,5))
    20                           endm
    21  0000                     byte6	macro	val
    22                           	(getbyte(val,6))
    23                           endm
    24  0000                     byte7	macro	val
    25                           	(getbyte(val,7))
    26                           endm
    27  0000                     getword	macro	val,pos
    28                           	(((val) >> (8 * pos)) and 0xffff)
    29                           endm
    30  0000                     word0	macro	val
    31                           	(getword(val,0))
    32                           endm
    33  0000                     word1	macro	val
    34                           	(getword(val,2))
    35                           endm
    36  0000                     word2	macro	val
    37                           	(getword(val,4))
    38                           endm
    39  0000                     word3	macro	val
    40                           	(getword(val,6))
    41                           endm
    42  0000                     gettword	macro	val,pos
    43                           	(((val) >> (8 * pos)) and 0xffffff)
    44                           endm
    45  0000                     tword0	macro	val
    46                           	(gettword(val,0))
    47                           endm
    48  0000                     tword1	macro	val
    49                           	(gettword(val,3))
    50                           endm
    51  0000                     tword2	macro	val
    52                           	(gettword(val,6))
    53                           endm
    54  0000                     getdword	macro	val,pos
    55                           	(((val) >> (8 * pos)) and 0xffffffff)
    56                           endm
    57  0000                     dword0	macro	val
    58                           	(getdword(val,0))
    59                           endm
    60  0000                     dword1	macro	val
    61                           	(getdword(val,4))
    62                           endm
    63  0000                     clrc	macro
    64                           	bcf	3,0
    65                           	endm
    66  0000                     clrz	macro
    67                           	bcf	3,2
    68                           	endm
    69  0000                     setc	macro
    70                           	bsf	3,0
    71                           	endm
    72  0000                     setz	macro
    73                           	bsf	3,2
    74                           	endm
    75  0000                     skipc	macro
    76                           	btfss	3,0
    77                           	endm
    78  0000                     skipz	macro
    79                           	btfss	3,2
    80                           	endm
    81  0000                     skipnc	macro
    82                           	btfsc	3,0
    83                           	endm
    84  0000                     skipnz	macro
    85                           	btfsc	3,2
    86                           	endm
    87  0000                     # 54 "C:\Program Files (x86)\Microchip\xc8\v2.00\pic\include\pic16f877a.h"
    88                           INDF equ 00h ;# 
    89  0000                     # 61 "C:\Program Files (x86)\Microchip\xc8\v2.00\pic\include\pic16f877a.h"
    90                           TMR0 equ 01h ;# 
    91  0001                     # 68 "C:\Program Files (x86)\Microchip\xc8\v2.00\pic\include\pic16f877a.h"
    92                           PCL equ 02h ;# 
    93  0002                     # 75 "C:\Program Files (x86)\Microchip\xc8\v2.00\pic\include\pic16f877a.h"
    94                           STATUS equ 03h ;# 
    95  0003                     # 161 "C:\Program Files (x86)\Microchip\xc8\v2.00\pic\include\pic16f877a.h"
    96                           FSR equ 04h ;# 
    97  0004                     # 168 "C:\Program Files (x86)\Microchip\xc8\v2.00\pic\include\pic16f877a.h"
    98                           PORTA equ 05h ;# 
    99  0005                     # 218 "C:\Program Files (x86)\Microchip\xc8\v2.00\pic\include\pic16f877a.h"
   100                           PORTB equ 06h ;# 
   101  0006                     # 280 "C:\Program Files (x86)\Microchip\xc8\v2.00\pic\include\pic16f877a.h"
   102                           PORTC equ 07h ;# 
   103  0007                     # 342 "C:\Program Files (x86)\Microchip\xc8\v2.00\pic\include\pic16f877a.h"
   104                           PORTD equ 08h ;# 
   105  0008                     # 404 "C:\Program Files (x86)\Microchip\xc8\v2.00\pic\include\pic16f877a.h"
   106                           PORTE equ 09h ;# 
   107  0009                     # 436 "C:\Program Files (x86)\Microchip\xc8\v2.00\pic\include\pic16f877a.h"
   108                           PCLATH equ 0Ah ;# 
   109  000A                     # 456 "C:\Program Files (x86)\Microchip\xc8\v2.00\pic\include\pic16f877a.h"
   110                           INTCON equ 0Bh ;# 
   111  000B                     # 534 "C:\Program Files (x86)\Microchip\xc8\v2.00\pic\include\pic16f877a.h"
   112                           PIR1 equ 0Ch ;# 
   113  000C                     # 596 "C:\Program Files (x86)\Microchip\xc8\v2.00\pic\include\pic16f877a.h"
   114                           PIR2 equ 0Dh ;# 
   115  000D                     # 636 "C:\Program Files (x86)\Microchip\xc8\v2.00\pic\include\pic16f877a.h"
   116                           TMR1 equ 0Eh ;# 
   117  000E                     # 643 "C:\Program Files (x86)\Microchip\xc8\v2.00\pic\include\pic16f877a.h"
   118                           TMR1L equ 0Eh ;# 
   119  000E                     # 650 "C:\Program Files (x86)\Microchip\xc8\v2.00\pic\include\pic16f877a.h"
   120                           TMR1H equ 0Fh ;# 
   121  000F                     # 657 "C:\Program Files (x86)\Microchip\xc8\v2.00\pic\include\pic16f877a.h"
   122                           T1CON equ 010h ;# 
   123  0010                     # 732 "C:\Program Files (x86)\Microchip\xc8\v2.00\pic\include\pic16f877a.h"
   124                           TMR2 equ 011h ;# 
   125  0011                     # 739 "C:\Program Files (x86)\Microchip\xc8\v2.00\pic\include\pic16f877a.h"
   126                           T2CON equ 012h ;# 
   127  0012                     # 810 "C:\Program Files (x86)\Microchip\xc8\v2.00\pic\include\pic16f877a.h"
   128                           SSPBUF equ 013h ;# 
   129  0013                     # 817 "C:\Program Files (x86)\Microchip\xc8\v2.00\pic\include\pic16f877a.h"
   130                           SSPCON equ 014h ;# 
   131  0014                     # 887 "C:\Program Files (x86)\Microchip\xc8\v2.00\pic\include\pic16f877a.h"
   132                           CCPR1 equ 015h ;# 
   133  0015                     # 894 "C:\Program Files (x86)\Microchip\xc8\v2.00\pic\include\pic16f877a.h"
   134                           CCPR1L equ 015h ;# 
   135  0015                     # 901 "C:\Program Files (x86)\Microchip\xc8\v2.00\pic\include\pic16f877a.h"
   136                           CCPR1H equ 016h ;# 
   137  0016                     # 908 "C:\Program Files (x86)\Microchip\xc8\v2.00\pic\include\pic16f877a.h"
   138                           CCP1CON equ 017h ;# 
   139  0017                     # 966 "C:\Program Files (x86)\Microchip\xc8\v2.00\pic\include\pic16f877a.h"
   140                           RCSTA equ 018h ;# 
   141  0018                     # 1061 "C:\Program Files (x86)\Microchip\xc8\v2.00\pic\include\pic16f877a.h"
   142                           TXREG equ 019h ;# 
   143  0019                     # 1068 "C:\Program Files (x86)\Microchip\xc8\v2.00\pic\include\pic16f877a.h"
   144                           RCREG equ 01Ah ;# 
   145  001A                     # 1075 "C:\Program Files (x86)\Microchip\xc8\v2.00\pic\include\pic16f877a.h"
   146                           CCPR2 equ 01Bh ;# 
   147  001B                     # 1082 "C:\Program Files (x86)\Microchip\xc8\v2.00\pic\include\pic16f877a.h"
   148                           CCPR2L equ 01Bh ;# 
   149  001B                     # 1089 "C:\Program Files (x86)\Microchip\xc8\v2.00\pic\include\pic16f877a.h"
   150                           CCPR2H equ 01Ch ;# 
   151  001C                     # 1096 "C:\Program Files (x86)\Microchip\xc8\v2.00\pic\include\pic16f877a.h"
   152                           CCP2CON equ 01Dh ;# 
   153  001D                     # 1154 "C:\Program Files (x86)\Microchip\xc8\v2.00\pic\include\pic16f877a.h"
   154                           ADRESH equ 01Eh ;# 
   155  001E                     # 1161 "C:\Program Files (x86)\Microchip\xc8\v2.00\pic\include\pic16f877a.h"
   156                           ADCON0 equ 01Fh ;# 
   157  001F                     # 1257 "C:\Program Files (x86)\Microchip\xc8\v2.00\pic\include\pic16f877a.h"
   158                           OPTION_REG equ 081h ;# 
   159  0081                     # 1327 "C:\Program Files (x86)\Microchip\xc8\v2.00\pic\include\pic16f877a.h"
   160                           TRISA equ 085h ;# 
   161  0085                     # 1377 "C:\Program Files (x86)\Microchip\xc8\v2.00\pic\include\pic16f877a.h"
   162                           TRISB equ 086h ;# 
   163  0086                     # 1439 "C:\Program Files (x86)\Microchip\xc8\v2.00\pic\include\pic16f877a.h"
   164                           TRISC equ 087h ;# 
   165  0087                     # 1501 "C:\Program Files (x86)\Microchip\xc8\v2.00\pic\include\pic16f877a.h"
   166                           TRISD equ 088h ;# 
   167  0088                     # 1563 "C:\Program Files (x86)\Microchip\xc8\v2.00\pic\include\pic16f877a.h"
   168                           TRISE equ 089h ;# 
   169  0089                     # 1620 "C:\Program Files (x86)\Microchip\xc8\v2.00\pic\include\pic16f877a.h"
   170                           PIE1 equ 08Ch ;# 
   171  008C                     # 1682 "C:\Program Files (x86)\Microchip\xc8\v2.00\pic\include\pic16f877a.h"
   172                           PIE2 equ 08Dh ;# 
   173  008D                     # 1722 "C:\Program Files (x86)\Microchip\xc8\v2.00\pic\include\pic16f877a.h"
   174                           PCON equ 08Eh ;# 
   175  008E                     # 1756 "C:\Program Files (x86)\Microchip\xc8\v2.00\pic\include\pic16f877a.h"
   176                           SSPCON2 equ 091h ;# 
   177  0091                     # 1818 "C:\Program Files (x86)\Microchip\xc8\v2.00\pic\include\pic16f877a.h"
   178                           PR2 equ 092h ;# 
   179  0092                     # 1825 "C:\Program Files (x86)\Microchip\xc8\v2.00\pic\include\pic16f877a.h"
   180                           SSPADD equ 093h ;# 
   181  0093                     # 1832 "C:\Program Files (x86)\Microchip\xc8\v2.00\pic\include\pic16f877a.h"
   182                           SSPSTAT equ 094h ;# 
   183  0094                     # 2001 "C:\Program Files (x86)\Microchip\xc8\v2.00\pic\include\pic16f877a.h"
   184                           TXSTA equ 098h ;# 
   185  0098                     # 2082 "C:\Program Files (x86)\Microchip\xc8\v2.00\pic\include\pic16f877a.h"
   186                           SPBRG equ 099h ;# 
   187  0099                     # 2089 "C:\Program Files (x86)\Microchip\xc8\v2.00\pic\include\pic16f877a.h"
   188                           CMCON equ 09Ch ;# 
   189  009C                     # 2159 "C:\Program Files (x86)\Microchip\xc8\v2.00\pic\include\pic16f877a.h"
   190                           CVRCON equ 09Dh ;# 
   191  009D                     # 2224 "C:\Program Files (x86)\Microchip\xc8\v2.00\pic\include\pic16f877a.h"
   192                           ADRESL equ 09Eh ;# 
   193  009E                     # 2231 "C:\Program Files (x86)\Microchip\xc8\v2.00\pic\include\pic16f877a.h"
   194                           ADCON1 equ 09Fh ;# 
   195  009F                     # 2290 "C:\Program Files (x86)\Microchip\xc8\v2.00\pic\include\pic16f877a.h"
   196                           EEDATA equ 010Ch ;# 
   197  010C                     # 2297 "C:\Program Files (x86)\Microchip\xc8\v2.00\pic\include\pic16f877a.h"
   198                           EEADR equ 010Dh ;# 
   199  010D                     # 2304 "C:\Program Files (x86)\Microchip\xc8\v2.00\pic\include\pic16f877a.h"
   200                           EEDATH equ 010Eh ;# 
   201  010E                     # 2311 "C:\Program Files (x86)\Microchip\xc8\v2.00\pic\include\pic16f877a.h"
   202                           EEADRH equ 010Fh ;# 
   203  010F                     # 2318 "C:\Program Files (x86)\Microchip\xc8\v2.00\pic\include\pic16f877a.h"
   204                           EECON1 equ 018Ch ;# 
   205  018C                     # 2363 "C:\Program Files (x86)\Microchip\xc8\v2.00\pic\include\pic16f877a.h"
   206                           EECON2 equ 018Dh ;# 
   207  018D                     # 54 "C:\Program Files (x86)\Microchip\xc8\v2.00\pic\include\pic16f877a.h"
   208                           INDF equ 00h ;# 
   209  0000                     # 61 "C:\Program Files (x86)\Microchip\xc8\v2.00\pic\include\pic16f877a.h"
   210                           TMR0 equ 01h ;# 
   211  0001                     # 68 "C:\Program Files (x86)\Microchip\xc8\v2.00\pic\include\pic16f877a.h"
   212                           PCL equ 02h ;# 
   213  0002                     # 75 "C:\Program Files (x86)\Microchip\xc8\v2.00\pic\include\pic16f877a.h"
   214                           STATUS equ 03h ;# 
   215  0003                     # 161 "C:\Program Files (x86)\Microchip\xc8\v2.00\pic\include\pic16f877a.h"
   216                           FSR equ 04h ;# 
   217  0004                     # 168 "C:\Program Files (x86)\Microchip\xc8\v2.00\pic\include\pic16f877a.h"
   218                           PORTA equ 05h ;# 
   219  0005                     # 218 "C:\Program Files (x86)\Microchip\xc8\v2.00\pic\include\pic16f877a.h"
   220                           PORTB equ 06h ;# 
   221  0006                     # 280 "C:\Program Files (x86)\Microchip\xc8\v2.00\pic\include\pic16f877a.h"
   222                           PORTC equ 07h ;# 
   223  0007                     # 342 "C:\Program Files (x86)\Microchip\xc8\v2.00\pic\include\pic16f877a.h"
   224                           PORTD equ 08h ;# 
   225  0008                     # 404 "C:\Program Files (x86)\Microchip\xc8\v2.00\pic\include\pic16f877a.h"
   226                           PORTE equ 09h ;# 
   227  0009                     # 436 "C:\Program Files (x86)\Microchip\xc8\v2.00\pic\include\pic16f877a.h"
   228                           PCLATH equ 0Ah ;# 
   229  000A                     # 456 "C:\Program Files (x86)\Microchip\xc8\v2.00\pic\include\pic16f877a.h"
   230                           INTCON equ 0Bh ;# 
   231  000B                     # 534 "C:\Program Files (x86)\Microchip\xc8\v2.00\pic\include\pic16f877a.h"
   232                           PIR1 equ 0Ch ;# 
   233  000C                     # 596 "C:\Program Files (x86)\Microchip\xc8\v2.00\pic\include\pic16f877a.h"
   234                           PIR2 equ 0Dh ;# 
   235  000D                     # 636 "C:\Program Files (x86)\Microchip\xc8\v2.00\pic\include\pic16f877a.h"
   236                           TMR1 equ 0Eh ;# 
   237  000E                     # 643 "C:\Program Files (x86)\Microchip\xc8\v2.00\pic\include\pic16f877a.h"
   238                           TMR1L equ 0Eh ;# 
   239  000E                     # 650 "C:\Program Files (x86)\Microchip\xc8\v2.00\pic\include\pic16f877a.h"
   240                           TMR1H equ 0Fh ;# 
   241  000F                     # 657 "C:\Program Files (x86)\Microchip\xc8\v2.00\pic\include\pic16f877a.h"
   242                           T1CON equ 010h ;# 
   243  0010                     # 732 "C:\Program Files (x86)\Microchip\xc8\v2.00\pic\include\pic16f877a.h"
   244                           TMR2 equ 011h ;# 
   245  0011                     # 739 "C:\Program Files (x86)\Microchip\xc8\v2.00\pic\include\pic16f877a.h"
   246                           T2CON equ 012h ;# 
   247  0012                     # 810 "C:\Program Files (x86)\Microchip\xc8\v2.00\pic\include\pic16f877a.h"
   248                           SSPBUF equ 013h ;# 
   249  0013                     # 817 "C:\Program Files (x86)\Microchip\xc8\v2.00\pic\include\pic16f877a.h"
   250                           SSPCON equ 014h ;# 
   251  0014                     # 887 "C:\Program Files (x86)\Microchip\xc8\v2.00\pic\include\pic16f877a.h"
   252                           CCPR1 equ 015h ;# 
   253  0015                     # 894 "C:\Program Files (x86)\Microchip\xc8\v2.00\pic\include\pic16f877a.h"
   254                           CCPR1L equ 015h ;# 
   255  0015                     # 901 "C:\Program Files (x86)\Microchip\xc8\v2.00\pic\include\pic16f877a.h"
   256                           CCPR1H equ 016h ;# 
   257  0016                     # 908 "C:\Program Files (x86)\Microchip\xc8\v2.00\pic\include\pic16f877a.h"
   258                           CCP1CON equ 017h ;# 
   259  0017                     # 966 "C:\Program Files (x86)\Microchip\xc8\v2.00\pic\include\pic16f877a.h"
   260                           RCSTA equ 018h ;# 
   261  0018                     # 1061 "C:\Program Files (x86)\Microchip\xc8\v2.00\pic\include\pic16f877a.h"
   262                           TXREG equ 019h ;# 
   263  0019                     # 1068 "C:\Program Files (x86)\Microchip\xc8\v2.00\pic\include\pic16f877a.h"
   264                           RCREG equ 01Ah ;# 
   265  001A                     # 1075 "C:\Program Files (x86)\Microchip\xc8\v2.00\pic\include\pic16f877a.h"
   266                           CCPR2 equ 01Bh ;# 
   267  001B                     # 1082 "C:\Program Files (x86)\Microchip\xc8\v2.00\pic\include\pic16f877a.h"
   268                           CCPR2L equ 01Bh ;# 
   269  001B                     # 1089 "C:\Program Files (x86)\Microchip\xc8\v2.00\pic\include\pic16f877a.h"
   270                           CCPR2H equ 01Ch ;# 
   271  001C                     # 1096 "C:\Program Files (x86)\Microchip\xc8\v2.00\pic\include\pic16f877a.h"
   272                           CCP2CON equ 01Dh ;# 
   273  001D                     # 1154 "C:\Program Files (x86)\Microchip\xc8\v2.00\pic\include\pic16f877a.h"
   274                           ADRESH equ 01Eh ;# 
   275  001E                     # 1161 "C:\Program Files (x86)\Microchip\xc8\v2.00\pic\include\pic16f877a.h"
   276                           ADCON0 equ 01Fh ;# 
   277  001F                     # 1257 "C:\Program Files (x86)\Microchip\xc8\v2.00\pic\include\pic16f877a.h"
   278                           OPTION_REG equ 081h ;# 
   279  0081                     # 1327 "C:\Program Files (x86)\Microchip\xc8\v2.00\pic\include\pic16f877a.h"
   280                           TRISA equ 085h ;# 
   281  0085                     # 1377 "C:\Program Files (x86)\Microchip\xc8\v2.00\pic\include\pic16f877a.h"
   282                           TRISB equ 086h ;# 
   283  0086                     # 1439 "C:\Program Files (x86)\Microchip\xc8\v2.00\pic\include\pic16f877a.h"
   284                           TRISC equ 087h ;# 
   285  0087                     # 1501 "C:\Program Files (x86)\Microchip\xc8\v2.00\pic\include\pic16f877a.h"
   286                           TRISD equ 088h ;# 
   287  0088                     # 1563 "C:\Program Files (x86)\Microchip\xc8\v2.00\pic\include\pic16f877a.h"
   288                           TRISE equ 089h ;# 
   289  0089                     # 1620 "C:\Program Files (x86)\Microchip\xc8\v2.00\pic\include\pic16f877a.h"
   290                           PIE1 equ 08Ch ;# 
   291  008C                     # 1682 "C:\Program Files (x86)\Microchip\xc8\v2.00\pic\include\pic16f877a.h"
   292                           PIE2 equ 08Dh ;# 
   293  008D                     # 1722 "C:\Program Files (x86)\Microchip\xc8\v2.00\pic\include\pic16f877a.h"
   294                           PCON equ 08Eh ;# 
   295  008E                     # 1756 "C:\Program Files (x86)\Microchip\xc8\v2.00\pic\include\pic16f877a.h"
   296                           SSPCON2 equ 091h ;# 
   297  0091                     # 1818 "C:\Program Files (x86)\Microchip\xc8\v2.00\pic\include\pic16f877a.h"
   298                           PR2 equ 092h ;# 
   299  0092                     # 1825 "C:\Program Files (x86)\Microchip\xc8\v2.00\pic\include\pic16f877a.h"
   300                           SSPADD equ 093h ;# 
   301  0093                     # 1832 "C:\Program Files (x86)\Microchip\xc8\v2.00\pic\include\pic16f877a.h"
   302                           SSPSTAT equ 094h ;# 
   303  0094                     # 2001 "C:\Program Files (x86)\Microchip\xc8\v2.00\pic\include\pic16f877a.h"
   304                           TXSTA equ 098h ;# 
   305  0098                     # 2082 "C:\Program Files (x86)\Microchip\xc8\v2.00\pic\include\pic16f877a.h"
   306                           SPBRG equ 099h ;# 
   307  0099                     # 2089 "C:\Program Files (x86)\Microchip\xc8\v2.00\pic\include\pic16f877a.h"
   308                           CMCON equ 09Ch ;# 
   309  009C                     # 2159 "C:\Program Files (x86)\Microchip\xc8\v2.00\pic\include\pic16f877a.h"
   310                           CVRCON equ 09Dh ;# 
   311  009D                     # 2224 "C:\Program Files (x86)\Microchip\xc8\v2.00\pic\include\pic16f877a.h"
   312                           ADRESL equ 09Eh ;# 
   313  009E                     # 2231 "C:\Program Files (x86)\Microchip\xc8\v2.00\pic\include\pic16f877a.h"
   314                           ADCON1 equ 09Fh ;# 
   315  009F                     # 2290 "C:\Program Files (x86)\Microchip\xc8\v2.00\pic\include\pic16f877a.h"
   316                           EEDATA equ 010Ch ;# 
   317  010C                     # 2297 "C:\Program Files (x86)\Microchip\xc8\v2.00\pic\include\pic16f877a.h"
   318                           EEADR equ 010Dh ;# 
   319  010D                     # 2304 "C:\Program Files (x86)\Microchip\xc8\v2.00\pic\include\pic16f877a.h"
   320                           EEDATH equ 010Eh ;# 
   321  010E                     # 2311 "C:\Program Files (x86)\Microchip\xc8\v2.00\pic\include\pic16f877a.h"
   322                           EEADRH equ 010Fh ;# 
   323  010F                     # 2318 "C:\Program Files (x86)\Microchip\xc8\v2.00\pic\include\pic16f877a.h"
   324                           EECON1 equ 018Ch ;# 
   325  018C                     # 2363 "C:\Program Files (x86)\Microchip\xc8\v2.00\pic\include\pic16f877a.h"
   326                           EECON2 equ 018Dh ;# 
   327  018D                     	FNCALL	_main,_ADC_Initialize
   328                           	FNCALL	_main,_ADC_Read
   329                           	FNCALL	_main,_Lcd_Clear
   330                           	FNCALL	_main,_Lcd_Init
   331                           	FNCALL	_main,_Lcd_Set_Cursor
   332                           	FNCALL	_main,_Lcd_Write_Char
   333                           	FNCALL	_main,_Lcd_Write_String
   334                           	FNCALL	_main,_UART_Get_Char
   335                           	FNCALL	_main,_UART_Init
   336                           	FNCALL	_main,_UART_Send_Char
   337                           	FNCALL	_main,___awdiv
   338                           	FNCALL	_main,___awmod
   339                           	FNCALL	_main,___fldiv
   340                           	FNCALL	_main,___flmul
   341                           	FNCALL	_main,___fltol
   342                           	FNCALL	_main,___xxtofl
   343                           	FNCALL	_main,_printf
   344                           	FNCALL	_printf,_putch
   345                           	FNCALL	_putch,_UART_Send_Char
   346                           	FNCALL	___flmul,__Umul8_16
   347                           	FNCALL	_Lcd_Write_String,_Lcd_Write_Char
   348                           	FNCALL	_Lcd_Write_Char,_Lcd_Port
   349                           	FNCALL	_Lcd_Set_Cursor,_Lcd_Cmd
   350                           	FNCALL	_Lcd_Init,_Lcd_Cmd
   351                           	FNCALL	_Lcd_Init,_Lcd_Port
   352                           	FNCALL	_Lcd_Clear,_Lcd_Cmd
   353                           	FNCALL	_Lcd_Cmd,_Lcd_Port
   354                           	FNROOT	_main
   355                           	global	main@F1060
   356                           psect	idataBANK1,class=CODE,space=0,delta=2,noexec
   357                           global __pidataBANK1
   358                           __pidataBANK1:
   359  0ADC                     	file	"ROK5ZAD3.c"
   360                           	line	210
   361                           
   362                           ;initializer for main@F1060
   363                           	retlw	03Fh
   364  0ADC  343F               	retlw	06h
   365  0ADD  3406               	retlw	05Bh
   366  0ADE  345B               	retlw	04Fh
   367  0ADF  344F               	retlw	066h
   368  0AE0  3466               	retlw	06Dh
   369  0AE1  346D               	retlw	07Dh
   370  0AE2  347D               	retlw	07h
   371  0AE3  3407               	retlw	07Fh
   372  0AE4  347F               	retlw	06Fh
   373  0AE5  346F               	global	_PORTB
   374                           _PORTB	set	0x6
   375  0006                     	global	_ADRESH
   376                           _ADRESH	set	0x1E
   377  001E                     	global	_ADCON0
   378                           _ADCON0	set	0x1F
   379  001F                     	global	_RCREG
   380                           _RCREG	set	0x1A
   381  001A                     	global	_TXREG
   382                           _TXREG	set	0x19
   383  0019                     	global	_RE1
   384                           _RE1	set	0x49
   385  0049                     	global	_RE0
   386                           _RE0	set	0x48
   387  0048                     	global	_RD1
   388                           _RD1	set	0x41
   389  0041                     	global	_RD0
   390                           _RD0	set	0x40
   391  0040                     	global	_RC5
   392                           _RC5	set	0x3D
   393  003D                     	global	_RC4
   394                           _RC4	set	0x3C
   395  003C                     	global	_RC3
   396                           _RC3	set	0x3B
   397  003B                     	global	_RC2
   398                           _RC2	set	0x3A
   399  003A                     	global	_RC1
   400                           _RC1	set	0x39
   401  0039                     	global	_RC0
   402                           _RC0	set	0x38
   403  0038                     	global	_GO_nDONE
   404                           _GO_nDONE	set	0xFA
   405  00FA                     	global	_RCIF
   406                           _RCIF	set	0x65
   407  0065                     	global	_OERR
   408                           _OERR	set	0xC1
   409  00C1                     	global	_TXIF
   410                           _TXIF	set	0x64
   411  0064                     	global	_RX9
   412                           _RX9	set	0xC6
   413  00C6                     	global	_CREN
   414                           _CREN	set	0xC4
   415  00C4                     	global	_SPEN
   416                           _SPEN	set	0xC7
   417  00C7                     	global	_RD3
   418                           _RD3	set	0x43
   419  0043                     	global	_RD2
   420                           _RD2	set	0x42
   421  0042                     	global	_RD7
   422                           _RD7	set	0x47
   423  0047                     	global	_RD6
   424                           _RD6	set	0x46
   425  0046                     	global	_RD5
   426                           _RD5	set	0x45
   427  0045                     	global	_RD4
   428                           _RD4	set	0x44
   429  0044                     	global	_TRISD
   430                           _TRISD	set	0x88
   431  0088                     	global	_TRISB
   432                           _TRISB	set	0x86
   433  0086                     	global	_ADRESL
   434                           _ADRESL	set	0x9E
   435  009E                     	global	_ADCON1
   436                           _ADCON1	set	0x9F
   437  009F                     	global	_SPBRG
   438                           _SPBRG	set	0x99
   439  0099                     	global	_TRISE1
   440                           _TRISE1	set	0x449
   441  0449                     	global	_TRISE0
   442                           _TRISE0	set	0x448
   443  0448                     	global	_TRISC5
   444                           _TRISC5	set	0x43D
   445  043D                     	global	_TRISC4
   446                           _TRISC4	set	0x43C
   447  043C                     	global	_TRISC3
   448                           _TRISC3	set	0x43B
   449  043B                     	global	_TRISC2
   450                           _TRISC2	set	0x43A
   451  043A                     	global	_TRISC1
   452                           _TRISC1	set	0x439
   453  0439                     	global	_TRISC0
   454                           _TRISC0	set	0x438
   455  0438                     	global	_TX9
   456                           _TX9	set	0x4C6
   457  04C6                     	global	_TXEN
   458                           _TXEN	set	0x4C5
   459  04C5                     	global	_SYNC
   460                           _SYNC	set	0x4C4
   461  04C4                     	global	_BRGH
   462                           _BRGH	set	0x4C2
   463  04C2                     	global	_TRISC7
   464                           _TRISC7	set	0x43F
   465  043F                     	global	_TRISC6
   466                           _TRISC6	set	0x43E
   467  043E                     psect	strings,class=STRING,delta=2,noexec
   468                           global __pstrings
   469                           __pstrings:
   470  0800                     stringtab:
   471  0800                     	global    __stringtab
   472                           __stringtab:
   473  0800                     ;	String table - string pointers are 2 bytes each
   474                           	btfsc	(btemp+1),7
   475  0800  1BFF               	ljmp	stringcode
   476  0801  280A               	bcf	status,7
   477  0802  1383               	btfsc	(btemp+1),0
   478  0803  187F               	bsf	status,7
   479  0804  1783               	movf	indf,w
   480  0805  0800               	incf fsr
   481  0806  0A84               skipnz
   482  0807  1903               incf btemp+1
   483  0808  0AFF               	return
   484  0809  0008               stringcode:
   485  080A                     	movf btemp+1,w
   486  080A  087F               andlw 7Fh
   487  080B  397F               movwf	pclath
   488  080C  008A               	movf	fsr,w
   489  080D  0804               incf fsr
   490  080E  0A84               skipnz
   491  080F  1903               incf btemp+1
   492  0810  0AFF               	movwf pc
   493  0811  0082               	global __stringbase
   494                           __stringbase:
   495  0812                     	global    __end_of__stringtab
   496                           __end_of__stringtab:
   497  0812                     psect	stringtext,class=STRCODE,delta=2,reloc=256,noexec
   498                           global __pstringtext
   499                           __pstringtext:
   500  1000                     	
   501                           STR_2:	
   502  1000                     	retlw	13
   503  1000  340D               	retlw	49	;'1'
   504  1001  3431               	retlw	46	;'.'
   505  1002  342E               	retlw	32	;' '
   506  1003  3420               	retlw	85	;'U'
   507  1004  3455               	retlw	112	;'p'
   508  1005  3470               	retlw	97	;'a'
   509  1006  3461               	retlw	108	;'l'
   510  1007  346C               	retlw	105	;'i'
   511  1008  3469               	retlw	32	;' '
   512  1009  3420               	retlw	115	;'s'
   513  100A  3473               	retlw	118	;'v'
   514  100B  3476               	retlw	97	;'a'
   515  100C  3461               	retlw	107	;'k'
   516  100D  346B               	retlw	117	;'u'
   517  100E  3475               	retlw	32	;' '
   518  100F  3420               	retlw	100	;'d'
   519  1010  3464               	retlw	114	;'r'
   520  1011  3472               	retlw	117	;'u'
   521  1012  3475               	retlw	103	;'g'
   522  1013  3467               	retlw	117	;'u'
   523  1014  3475               	retlw	32	;' '
   524  1015  3420               	retlw	100	;'d'
   525  1016  3464               	retlw	105	;'i'
   526  1017  3469               	retlw	111	;'o'
   527  1018  346F               	retlw	100	;'d'
   528  1019  3464               	retlw	117	;'u'
   529  101A  3475               	retlw	32	;' '
   530  101B  3420               	retlw	40	;'('
   531  101C  3428               	retlw	111	;'o'
   532  101D  346F               	retlw	100	;'d'
   533  101E  3464               	retlw	32	;' '
   534  101F  3420               	retlw	117	;'u'
   535  1020  3475               	retlw	107	;'k'
   536  1021  346B               	retlw	117	;'u'
   537  1022  3475               	retlw	112	;'p'
   538  1023  3470               	retlw	110	;'n'
   539  1024  346E               	retlw	111	;'o'
   540  1025  346F               	retlw	32	;' '
   541  1026  3420               	retlw	49	;'1'
   542  1027  3431               	retlw	48	;'0'
   543  1028  3430               	retlw	32	;' '
   544  1029  3420               	retlw	100	;'d'
   545  102A  3464               	retlw	105	;'i'
   546  102B  3469               	retlw	111	;'o'
   547  102C  346F               	retlw	100	;'d'
   548  102D  3464               	retlw	97	;'a'
   549  102E  3461               	retlw	41	;')'
   550  102F  3429               	retlw	13
   551  1030  340D               	retlw	13
   552  1031  340D               	retlw	0
   553  1032  3400               psect	stringtext
   554                           	
   555                           STR_3:	
   556  1033                     	retlw	13
   557  1033  340D               	retlw	50	;'2'
   558  1034  3432               	retlw	46	;'.'
   559  1035  342E               	retlw	32	;' '
   560  1036  3420               	retlw	80	;'P'
   561  1037  3450               	retlw	111	;'o'
   562  1038  346F               	retlw	107	;'k'
   563  1039  346B               	retlw	114	;'r'
   564  103A  3472               	retlw	101	;'e'
   565  103B  3465               	retlw	110	;'n'
   566  103C  346E               	retlw	105	;'i'
   567  103D  3469               	retlw	32	;' '
   568  103E  3420               	retlw	98	;'b'
   569  103F  3462               	retlw	114	;'r'
   570  1040  3472               	retlw	111	;'o'
   571  1041  346F               	retlw	106	;'j'
   572  1042  346A               	retlw	97	;'a'
   573  1043  3461               	retlw	99	;'c'
   574  1044  3463               	retlw	32	;' '
   575  1045  3420               	retlw	110	;'n'
   576  1046  346E               	retlw	97	;'a'
   577  1047  3461               	retlw	32	;' '
   578  1048  3420               	retlw	55	;'7'
   579  1049  3437               	retlw	32	;' '
   580  104A  3420               	retlw	115	;'s'
   581  104B  3473               	retlw	101	;'e'
   582  104C  3465               	retlw	103	;'g'
   583  104D  3467               	retlw	109	;'m'
   584  104E  346D               	retlw	101	;'e'
   585  104F  3465               	retlw	110	;'n'
   586  1050  346E               	retlw	116	;'t'
   587  1051  3474               	retlw	110	;'n'
   588  1052  346E               	retlw	111	;'o'
   589  1053  346F               	retlw	109	;'m'
   590  1054  346D               	retlw	32	;' '
   591  1055  3420               	retlw	100	;'d'
   592  1056  3464               	retlw	105	;'i'
   593  1057  3469               	retlw	115	;'s'
   594  1058  3473               	retlw	112	;'p'
   595  1059  3470               	retlw	108	;'l'
   596  105A  346C               	retlw	101	;'e'
   597  105B  3465               	retlw	106	;'j'
   598  105C  346A               	retlw	117	;'u'
   599  105D  3475               	retlw	0
   600  105E  3400               psect	stringtext
   601                           	
   602                           STR_1:	
   603  105F                     	retlw	68	;'D'
   604  105F  3444               	retlw	111	;'o'
   605  1060  346F               	retlw	98	;'b'
   606  1061  3462               	retlw	114	;'r'
   607  1062  3472               	retlw	111	;'o'
   608  1063  346F               	retlw	100	;'d'
   609  1064  3464               	retlw	111	;'o'
   610  1065  346F               	retlw	115	;'s'
   611  1066  3473               	retlw	108	;'l'
   612  1067  346C               	retlw	105	;'i'
   613  1068  3469               	retlw	33	;'!'
   614  1069  3421               	retlw	32	;' '
   615  106A  3420               	retlw	79	;'O'
   616  106B  344F               	retlw	100	;'d'
   617  106C  3464               	retlw	97	;'a'
   618  106D  3461               	retlw	98	;'b'
   619  106E  3462               	retlw	101	;'e'
   620  106F  3465               	retlw	114	;'r'
   621  1070  3472               	retlw	105	;'i'
   622  1071  3469               	retlw	116	;'t'
   623  1072  3474               	retlw	101	;'e'
   624  1073  3465               	retlw	32	;' '
   625  1074  3420               	retlw	111	;'o'
   626  1075  346F               	retlw	112	;'p'
   627  1076  3470               	retlw	99	;'c'
   628  1077  3463               	retlw	105	;'i'
   629  1078  3469               	retlw	106	;'j'
   630  1079  346A               	retlw	117	;'u'
   631  107A  3475               	retlw	32	;' '
   632  107B  3420               	retlw	49	;'1'
   633  107C  3431               	retlw	44	;','
   634  107D  342C               	retlw	32	;' '
   635  107E  3420               	retlw	50	;'2'
   636  107F  3432               	retlw	32	;' '
   637  1080  3420               	retlw	105	;'i'
   638  1081  3469               	retlw	108	;'l'
   639  1082  346C               	retlw	105	;'i'
   640  1083  3469               	retlw	32	;' '
   641  1084  3420               	retlw	51	;'3'
   642  1085  3433               	retlw	13
   643  1086  340D               	retlw	13
   644  1087  340D               	retlw	0
   645  1088  3400               psect	stringtext
   646                           	
   647                           STR_4:	
   648  1089                     	retlw	13
   649  1089  340D               	retlw	107	;'k'
   650  108A  346B               	retlw	111	;'o'
   651  108B  346F               	retlw	106	;'j'
   652  108C  346A               	retlw	105	;'i'
   653  108D  3469               	retlw	32	;' '
   654  108E  3420               	retlw	98	;'b'
   655  108F  3462               	retlw	114	;'r'
   656  1090  3472               	retlw	111	;'o'
   657  1091  346F               	retlw	106	;'j'
   658  1092  346A               	retlw	105	;'i'
   659  1093  3469               	retlw	32	;' '
   660  1094  3420               	retlw	111	;'o'
   661  1095  346F               	retlw	100	;'d'
   662  1096  3464               	retlw	32	;' '
   663  1097  3420               	retlw	51	;'3'
   664  1098  3433               	retlw	32	;' '
   665  1099  3420               	retlw	100	;'d'
   666  109A  3464               	retlw	111	;'o'
   667  109B  346F               	retlw	32	;' '
   668  109C  3420               	retlw	56	;'8'
   669  109D  3438               	retlw	32	;' '
   670  109E  3420               	retlw	112	;'p'
   671  109F  3470               	retlw	101	;'e'
   672  10A0  3465               	retlw	116	;'t'
   673  10A1  3474               	retlw	32	;' '
   674  10A2  3420               	retlw	112	;'p'
   675  10A3  3470               	retlw	117	;'u'
   676  10A4  3475               	retlw	116	;'t'
   677  10A5  3474               	retlw	97	;'a'
   678  10A6  3461               	retlw	13
   679  10A7  340D               	retlw	13
   680  10A8  340D               	retlw	0
   681  10A9  3400               psect	stringtext
   682                           	
   683                           STR_5:	
   684  10AA                     	retlw	13
   685  10AA  340D               	retlw	51	;'3'
   686  10AB  3433               	retlw	46	;'.'
   687  10AC  342E               	retlw	32	;' '
   688  10AD  3420               	retlw	84	;'T'
   689  10AE  3454               	retlw	114	;'r'
   690  10AF  3472               	retlw	101	;'e'
   691  10B0  3465               	retlw	110	;'n'
   692  10B1  346E               	retlw	117	;'u'
   693  10B2  3475               	retlw	116	;'t'
   694  10B3  3474               	retlw	110	;'n'
   695  10B4  346E               	retlw	97	;'a'
   696  10B5  3461               	retlw	32	;' '
   697  10B6  3420               	retlw	116	;'t'
   698  10B7  3474               	retlw	101	;'e'
   699  10B8  3465               	retlw	109	;'m'
   700  10B9  346D               	retlw	112	;'p'
   701  10BA  3470               	retlw	101	;'e'
   702  10BB  3465               	retlw	114	;'r'
   703  10BC  3472               	retlw	97	;'a'
   704  10BD  3461               	retlw	116	;'t'
   705  10BE  3474               	retlw	117	;'u'
   706  10BF  3475               	retlw	114	;'r'
   707  10C0  3472               	retlw	97	;'a'
   708  10C1  3461               	retlw	13
   709  10C2  340D               	retlw	13
   710  10C3  340D               	retlw	0
   711  10C4  3400               psect	stringtext
   712                           	
   713                           STR_6:	
   714  10C5                     	retlw	13
   715  10C5  340D               	retlw	85	;'U'
   716  10C6  3455               	retlw	110	;'n'
   717  10C7  346E               	retlw	101	;'e'
   718  10C8  3465               	retlw	115	;'s'
   719  10C9  3473               	retlw	105	;'i'
   720  10CA  3469               	retlw	116	;'t'
   721  10CB  3474               	retlw	101	;'e'
   722  10CC  3465               	retlw	32	;' '
   723  10CD  3420               	retlw	122	;'z'
   724  10CE  347A               	retlw	101	;'e'
   725  10CF  3465               	retlw	108	;'l'
   726  10D0  346C               	retlw	106	;'j'
   727  10D1  346A               	retlw	101	;'e'
   728  10D2  3465               	retlw	110	;'n'
   729  10D3  346E               	retlw	117	;'u'
   730  10D4  3475               	retlw	32	;' '
   731  10D5  3420               	retlw	111	;'o'
   732  10D6  346F               	retlw	112	;'p'
   733  10D7  3470               	retlw	99	;'c'
   734  10D8  3463               	retlw	105	;'i'
   735  10D9  3469               	retlw	106	;'j'
   736  10DA  346A               	retlw	117	;'u'
   737  10DB  3475               	retlw	58	;':'
   738  10DC  343A               	retlw	32	;' '
   739  10DD  3420               	retlw	0
   740  10DE  3400               psect	stringtext
   741                           	
   742                           STR_8:	
   743  10DF                     	retlw	13
   744  10DF  340D               	retlw	13
   745  10E0  340D               	retlw	73	;'I'
   746  10E1  3449               	retlw	122	;'z'
   747  10E2  347A               	retlw	97	;'a'
   748  10E3  3461               	retlw	98	;'b'
   749  10E4  3462               	retlw	114	;'r'
   750  10E5  3472               	retlw	97	;'a'
   751  10E6  3461               	retlw	108	;'l'
   752  10E7  346C               	retlw	105	;'i'
   753  10E8  3469               	retlw	32	;' '
   754  10E9  3420               	retlw	115	;'s'
   755  10EA  3473               	retlw	116	;'t'
   756  10EB  3474               	retlw	101	;'e'
   757  10EC  3465               	retlw	32	;' '
   758  10ED  3420               	retlw	111	;'o'
   759  10EE  346F               	retlw	112	;'p'
   760  10EF  3470               	retlw	99	;'c'
   761  10F0  3463               	retlw	105	;'i'
   762  10F1  3469               	retlw	106	;'j'
   763  10F2  346A               	retlw	117	;'u'
   764  10F3  3475               	retlw	32	;' '
   765  10F4  3420               	retlw	49	;'1'
   766  10F5  3431               	retlw	46	;'.'
   767  10F6  342E               	retlw	0
   768  10F7  3400               psect	stringtext
   769                           	
   770                           STR_11:	
   771  10F8                     	retlw	13
   772  10F8  340D               	retlw	13
   773  10F9  340D               	retlw	73	;'I'
   774  10FA  3449               	retlw	122	;'z'
   775  10FB  347A               	retlw	97	;'a'
   776  10FC  3461               	retlw	98	;'b'
   777  10FD  3462               	retlw	114	;'r'
   778  10FE  3472               	retlw	97	;'a'
   779  10FF  3461               	retlw	108	;'l'
   780  1100  346C               	retlw	105	;'i'
   781  1101  3469               	retlw	32	;' '
   782  1102  3420               	retlw	115	;'s'
   783  1103  3473               	retlw	116	;'t'
   784  1104  3474               	retlw	101	;'e'
   785  1105  3465               	retlw	32	;' '
   786  1106  3420               	retlw	111	;'o'
   787  1107  346F               	retlw	112	;'p'
   788  1108  3470               	retlw	99	;'c'
   789  1109  3463               	retlw	105	;'i'
   790  110A  3469               	retlw	106	;'j'
   791  110B  346A               	retlw	117	;'u'
   792  110C  3475               	retlw	32	;' '
   793  110D  3420               	retlw	50	;'2'
   794  110E  3432               	retlw	46	;'.'
   795  110F  342E               	retlw	0
   796  1110  3400               psect	stringtext
   797                           	
   798                           STR_14:	
   799  1111                     	retlw	13
   800  1111  340D               	retlw	13
   801  1112  340D               	retlw	73	;'I'
   802  1113  3449               	retlw	122	;'z'
   803  1114  347A               	retlw	97	;'a'
   804  1115  3461               	retlw	98	;'b'
   805  1116  3462               	retlw	114	;'r'
   806  1117  3472               	retlw	97	;'a'
   807  1118  3461               	retlw	108	;'l'
   808  1119  346C               	retlw	105	;'i'
   809  111A  3469               	retlw	32	;' '
   810  111B  3420               	retlw	115	;'s'
   811  111C  3473               	retlw	116	;'t'
   812  111D  3474               	retlw	101	;'e'
   813  111E  3465               	retlw	32	;' '
   814  111F  3420               	retlw	111	;'o'
   815  1120  346F               	retlw	112	;'p'
   816  1121  3470               	retlw	99	;'c'
   817  1122  3463               	retlw	105	;'i'
   818  1123  3469               	retlw	106	;'j'
   819  1124  346A               	retlw	117	;'u'
   820  1125  3475               	retlw	32	;' '
   821  1126  3420               	retlw	51	;'3'
   822  1127  3433               	retlw	46	;'.'
   823  1128  342E               	retlw	0
   824  1129  3400               psect	stringtext
   825                           	
   826                           STR_10:	
   827  112A                     	retlw	100	;'d'
   828  112A  3464               	retlw	105	;'i'
   829  112B  3469               	retlw	111	;'o'
   830  112C  346F               	retlw	100	;'d'
   831  112D  3464               	retlw	97	;'a'
   832  112E  3461               	retlw	32	;' '
   833  112F  3420               	retlw	117	;'u'
   834  1130  3475               	retlw	112	;'p'
   835  1131  3470               	retlw	97	;'a'
   836  1132  3461               	retlw	108	;'l'
   837  1133  346C               	retlw	106	;'j'
   838  1134  346A               	retlw	101	;'e'
   839  1135  3465               	retlw	110	;'n'
   840  1136  346E               	retlw	97	;'a'
   841  1137  3461               	retlw	33	;'!'
   842  1138  3421               	retlw	0
   843  1139  3400               psect	stringtext
   844                           	
   845                           STR_12:	
   846  113A                     	retlw	66	;'B'
   847  113A  3442               	retlw	114	;'r'
   848  113B  3472               	retlw	111	;'o'
   849  113C  346F               	retlw	106	;'j'
   850  113D  346A               	retlw	97	;'a'
   851  113E  3461               	retlw	110	;'n'
   852  113F  346E               	retlw	106	;'j'
   853  1140  346A               	retlw	101	;'e'
   854  1141  3465               	retlw	32	;' '
   855  1142  3420               	retlw	53	;'5'
   856  1143  3435               	retlw	32	;' '
   857  1144  3420               	retlw	112	;'p'
   858  1145  3470               	retlw	117	;'u'
   859  1146  3475               	retlw	116	;'t'
   860  1147  3474               	retlw	97	;'a'
   861  1148  3461               	retlw	0
   862  1149  3400               psect	stringtext
   863                           	
   864                           STR_9:	
   865  114A                     	retlw	83	;'S'
   866  114A  3453               	retlw	118	;'v'
   867  114B  3476               	retlw	97	;'a'
   868  114C  3461               	retlw	107	;'k'
   869  114D  346B               	retlw	97	;'a'
   870  114E  3461               	retlw	32	;' '
   871  114F  3420               	retlw	100	;'d'
   872  1150  3464               	retlw	114	;'r'
   873  1151  3472               	retlw	117	;'u'
   874  1152  3475               	retlw	103	;'g'
   875  1153  3467               	retlw	97	;'a'
   876  1154  3461               	retlw	0
   877  1155  3400               psect	stringtext
   878                           	
   879                           STR_15:	
   880  1156                     	retlw	84	;'T'
   881  1156  3454               	retlw	101	;'e'
   882  1157  3465               	retlw	109	;'m'
   883  1158  346D               	retlw	112	;'p'
   884  1159  3470               	retlw	101	;'e'
   885  115A  3465               	retlw	114	;'r'
   886  115B  3472               	retlw	97	;'a'
   887  115C  3461               	retlw	116	;'t'
   888  115D  3474               	retlw	117	;'u'
   889  115E  3475               	retlw	114	;'r'
   890  115F  3472               	retlw	97	;'a'
   891  1160  3461               	retlw	0
   892  1161  3400               psect	stringtext
   893                           	
   894                           STR_13:	
   895  1162                     	retlw	111	;'o'
   896  1162  346F               	retlw	100	;'d'
   897  1163  3464               	retlw	32	;' '
   898  1164  3420               	retlw	48	;'0'
   899  1165  3430               	retlw	32	;' '
   900  1166  3420               	retlw	100	;'d'
   901  1167  3464               	retlw	111	;'o'
   902  1168  346F               	retlw	32	;' '
   903  1169  3420               	retlw	56	;'8'
   904  116A  3438               	retlw	58	;':'
   905  116B  343A               	retlw	0
   906  116C  3400               psect	stringtext
   907                           	
   908                           STR_17:	
   909  116D                     	retlw	67	;'C'
   910  116D  3443               	retlw	0
   911  116E  3400               psect	stringtext
   912                           STR_16	equ	STR_8+23
   913  10F6                     STR_7	equ	STR_2+48
   914  1030                     ; #config settings
   915                           global __CFG_FOSC$HS
   916                           __CFG_FOSC$HS equ 0x0
   917  0000                     global __CFG_WDTE$OFF
   918                           __CFG_WDTE$OFF equ 0x0
   919  0000                     global __CFG_PWRTE$OFF
   920                           __CFG_PWRTE$OFF equ 0x0
   921  0000                     global __CFG_BOREN$OFF
   922                           __CFG_BOREN$OFF equ 0x0
   923  0000                     global __CFG_LVP$ON
   924                           __CFG_LVP$ON equ 0x0
   925  0000                     global __CFG_CPD$OFF
   926                           __CFG_CPD$OFF equ 0x0
   927  0000                     global __CFG_WRT$OFF
   928                           __CFG_WRT$OFF equ 0x0
   929  0000                     global __CFG_CP$OFF
   930                           __CFG_CP$OFF equ 0x0
   931  0000                     	file	"C:\Users\sabic\AppData\Local\Temp\s45c."
   932                           	line	#
   933                           psect cinit,class=CODE,delta=2
   934                           global start_initialization
   935                           start_initialization:
   936  07EE                     
   937                           global __initialization
   938                           __initialization:
   939  07EE                     psect	dataBANK1,class=BANK1,space=1,noexec
   940                           global __pdataBANK1
   941                           __pdataBANK1:
   942  00A0                     	file	"ROK5ZAD3.c"
   943                           	line	210
   944                           main@F1060:
   945  00A0                            ds      10
   946  00A0                     
   947                           	file	"C:\Users\sabic\AppData\Local\Temp\s45c."
   948                           	line	#
   949                           global btemp
   950                           psect inittext,class=CODE,delta=2
   951                           global init_fetch0,btemp
   952                           ;	Called with low address in FSR and high address in W
   953                           init_fetch0:
   954  0B04                     	movf btemp,w
   955  0B04  087E               	movwf pclath
   956  0B05  008A               	movf btemp+1,w
   957  0B06  087F               	movwf pc
   958  0B07  0082               global init_ram0
   959                           ;Called with:
   960                           ;	high address of idata address in btemp 
   961                           ;	low address of idata address in btemp+1 
   962                           ;	low address of data in FSR
   963                           ;	high address + 1 of data in btemp-1
   964                           init_ram0:
   965  0B08                     	fcall init_fetch0
   966  0B08  120A  158A  2304  120A  158A  	movwf indf,f
   967  0B0D  0080               	incf fsr,f
   968  0B0E  0A84               	movf fsr,w
   969  0B0F  0804               	xorwf btemp-1,w
   970  0B10  067D               	btfsc status,2
   971  0B11  1903               	retlw 0
   972  0B12  3400               	incf btemp+1,f
   973  0B13  0AFF               	btfsc status,2
   974  0B14  1903               	incf btemp,f
   975  0B15  0AFE               	goto init_ram0
   976  0B16  2B08               ; Initialize objects allocated to BANK1
   977                           psect cinit,class=CODE,delta=2,merge=1
   978                           global init_ram0, __pidataBANK1
   979                           	bcf	status, 7	;select IRP bank0
   980  07EE  1383               	movlw low(__pdataBANK1+10)
   981  07EF  30AA               	movwf btemp-1,f
   982  07F0  00FD               	movlw high(__pidataBANK1)
   983  07F1  300A               	movwf btemp,f
   984  07F2  00FE               	movlw low(__pidataBANK1)
   985  07F3  30DC               	movwf btemp+1,f
   986  07F4  00FF               	movlw low(__pdataBANK1)
   987  07F5  30A0               	movwf fsr,f
   988  07F6  0084               	fcall init_ram0
   989  07F7  120A  158A  2308  120A  118A  psect cinit,class=CODE,delta=2,merge=1
   990                           global end_of_initialization,__end_of__initialization
   991                           
   992                           ;End of C runtime variable initialization code
   993                           
   994                           end_of_initialization:
   995  07FC                     __end_of__initialization:
   996  07FC                     clrf status
   997  07FC  0183               ljmp _main	;jump to C main() function
   998  07FD  120A  118A  2973   psect	cstackCOMMON,class=COMMON,space=1,noexec
   999                           global __pcstackCOMMON
  1000                           __pcstackCOMMON:
  1001  0070                     ?_Lcd_Port:	; 1 bytes @ 0x0
  1002  0070                     ??_Lcd_Port:	; 1 bytes @ 0x0
  1003  0070                     ?_Lcd_Cmd:	; 1 bytes @ 0x0
  1004  0070                     ?_Lcd_Init:	; 1 bytes @ 0x0
  1005  0070                     ?_Lcd_Write_Char:	; 1 bytes @ 0x0
  1006  0070                     ?_UART_Init:	; 1 bytes @ 0x0
  1007  0070                     ??_UART_Init:	; 1 bytes @ 0x0
  1008  0070                     ?_UART_Send_Char:	; 1 bytes @ 0x0
  1009  0070                     ??_UART_Send_Char:	; 1 bytes @ 0x0
  1010  0070                     ?_UART_Get_Char:	; 1 bytes @ 0x0
  1011  0070                     ??_UART_Get_Char:	; 1 bytes @ 0x0
  1012  0070                     ?_putch:	; 1 bytes @ 0x0
  1013  0070                     ?_ADC_Initialize:	; 1 bytes @ 0x0
  1014  0070                     ??_ADC_Initialize:	; 1 bytes @ 0x0
  1015  0070                     ?_main:	; 1 bytes @ 0x0
  1016  0070                     	global	?__Umul8_16
  1017                           ?__Umul8_16:	; 2 bytes @ 0x0
  1018  0070                     ?_Lcd_Clear:	; 2 bytes @ 0x0
  1019  0070                     	global	?_ADC_Read
  1020                           ?_ADC_Read:	; 2 bytes @ 0x0
  1021  0070                     	global	?___awdiv
  1022                           ?___awdiv:	; 2 bytes @ 0x0
  1023  0070                     	global	?___fldiv
  1024                           ?___fldiv:	; 4 bytes @ 0x0
  1025  0070                     	global	Lcd_Port@a
  1026                           Lcd_Port@a:	; 1 bytes @ 0x0
  1027  0070                     	global	UART_Send_Char@a
  1028                           UART_Send_Char@a:	; 1 bytes @ 0x0
  1029  0070                     	global	__Umul8_16@multiplicand
  1030                           __Umul8_16@multiplicand:	; 1 bytes @ 0x0
  1031  0070                     	global	___awdiv@divisor
  1032                           ___awdiv@divisor:	; 2 bytes @ 0x0
  1033  0070                     	global	___fldiv@a
  1034                           ___fldiv@a:	; 4 bytes @ 0x0
  1035  0070                     	ds	1
  1036  0070                     ??_Lcd_Cmd:	; 1 bytes @ 0x1
  1037  0071                     ??_Lcd_Write_Char:	; 1 bytes @ 0x1
  1038  0071                     ??_putch:	; 1 bytes @ 0x1
  1039  0071                     	global	putch@a
  1040                           putch@a:	; 1 bytes @ 0x1
  1041  0071                     	ds	1
  1042  0071                     ??__Umul8_16:	; 1 bytes @ 0x2
  1043  0072                     ??_ADC_Read:	; 1 bytes @ 0x2
  1044  0072                     	global	?_printf
  1045                           ?_printf:	; 2 bytes @ 0x2
  1046  0072                     	global	Lcd_Write_Char@temp
  1047                           Lcd_Write_Char@temp:	; 1 bytes @ 0x2
  1048  0072                     	global	printf@f
  1049                           printf@f:	; 2 bytes @ 0x2
  1050  0072                     	global	___awdiv@dividend
  1051                           ___awdiv@dividend:	; 2 bytes @ 0x2
  1052  0072                     	ds	1
  1053  0072                     	global	Lcd_Cmd@a
  1054                           Lcd_Cmd@a:	; 1 bytes @ 0x3
  1055  0073                     	global	Lcd_Write_Char@y
  1056                           Lcd_Write_Char@y:	; 1 bytes @ 0x3
  1057  0073                     	ds	1
  1058  0073                     ??_printf:	; 1 bytes @ 0x4
  1059  0074                     ??_Lcd_Clear:	; 1 bytes @ 0x4
  1060  0074                     ?_Lcd_Set_Cursor:	; 1 bytes @ 0x4
  1061  0074                     ??_Lcd_Init:	; 1 bytes @ 0x4
  1062  0074                     ??___awdiv:	; 1 bytes @ 0x4
  1063  0074                     	global	Lcd_Set_Cursor@b
  1064                           Lcd_Set_Cursor@b:	; 1 bytes @ 0x4
  1065  0074                     	global	Lcd_Write_Char@a
  1066                           Lcd_Write_Char@a:	; 1 bytes @ 0x4
  1067  0074                     	global	ADC_Read@channel
  1068                           ADC_Read@channel:	; 1 bytes @ 0x4
  1069  0074                     	global	__Umul8_16@product
  1070                           __Umul8_16@product:	; 2 bytes @ 0x4
  1071  0074                     	global	___fldiv@b
  1072                           ___fldiv@b:	; 4 bytes @ 0x4
  1073  0074                     	ds	1
  1074  0074                     ??_Lcd_Set_Cursor:	; 1 bytes @ 0x5
  1075  0075                     ?_Lcd_Write_String:	; 1 bytes @ 0x5
  1076  0075                     	global	?___xxtofl
  1077                           ?___xxtofl:	; 4 bytes @ 0x5
  1078  0075                     	global	___awdiv@counter
  1079                           ___awdiv@counter:	; 1 bytes @ 0x5
  1080  0075                     	global	Lcd_Write_String@a
  1081                           Lcd_Write_String@a:	; 2 bytes @ 0x5
  1082  0075                     	global	___xxtofl@val
  1083                           ___xxtofl@val:	; 4 bytes @ 0x5
  1084  0075                     	ds	1
  1085  0075                     	global	___awdiv@sign
  1086                           ___awdiv@sign:	; 1 bytes @ 0x6
  1087  0076                     	global	__Umul8_16@word_mpld
  1088                           __Umul8_16@word_mpld:	; 2 bytes @ 0x6
  1089  0076                     	ds	1
  1090  0076                     ??_Lcd_Write_String:	; 1 bytes @ 0x7
  1091  0077                     	global	Lcd_Set_Cursor@a
  1092                           Lcd_Set_Cursor@a:	; 1 bytes @ 0x7
  1093  0077                     	global	printf@ap
  1094                           printf@ap:	; 1 bytes @ 0x7
  1095  0077                     	global	___awdiv@quotient
  1096                           ___awdiv@quotient:	; 2 bytes @ 0x7
  1097  0077                     	ds	1
  1098  0077                     ??___fldiv:	; 1 bytes @ 0x8
  1099  0078                     	global	Lcd_Set_Cursor@z
  1100                           Lcd_Set_Cursor@z:	; 1 bytes @ 0x8
  1101  0078                     	global	printf@c
  1102                           printf@c:	; 1 bytes @ 0x8
  1103  0078                     	global	__Umul8_16@multiplier
  1104                           __Umul8_16@multiplier:	; 1 bytes @ 0x8
  1105  0078                     	ds	1
  1106  0078                     ??___flmul:	; 1 bytes @ 0x9
  1107  0079                     ??___xxtofl:	; 1 bytes @ 0x9
  1108  0079                     	global	?___awmod
  1109                           ?___awmod:	; 2 bytes @ 0x9
  1110  0079                     	global	Lcd_Set_Cursor@y
  1111                           Lcd_Set_Cursor@y:	; 1 bytes @ 0x9
  1112  0079                     	global	___awmod@divisor
  1113                           ___awmod@divisor:	; 2 bytes @ 0x9
  1114  0079                     	ds	1
  1115  0079                     	global	Lcd_Set_Cursor@temp
  1116                           Lcd_Set_Cursor@temp:	; 1 bytes @ 0xA
  1117  007A                     	global	Lcd_Write_String@i
  1118                           Lcd_Write_String@i:	; 2 bytes @ 0xA
  1119  007A                     	ds	1
  1120  007A                     	global	___awmod@dividend
  1121                           ___awmod@dividend:	; 2 bytes @ 0xB
  1122  007B                     	ds	2
  1123  007B                     ??___awmod:	; 1 bytes @ 0xD
  1124  007D                     	ds	1
  1125  007D                     psect	cstackBANK0,class=BANK0,space=1,noexec
  1126                           global __pcstackBANK0
  1127                           __pcstackBANK0:
  1128  0020                     	global	?___flmul
  1129                           ?___flmul:	; 4 bytes @ 0x0
  1130  0020                     	global	___awmod@counter
  1131                           ___awmod@counter:	; 1 bytes @ 0x0
  1132  0020                     	global	___xxtofl@sign
  1133                           ___xxtofl@sign:	; 1 bytes @ 0x0
  1134  0020                     	global	___fldiv@rem
  1135                           ___fldiv@rem:	; 4 bytes @ 0x0
  1136  0020                     	global	___flmul@b
  1137                           ___flmul@b:	; 4 bytes @ 0x0
  1138  0020                     	ds	1
  1139  0020                     	global	___awmod@sign
  1140                           ___awmod@sign:	; 1 bytes @ 0x1
  1141  0021                     	global	___xxtofl@exp
  1142                           ___xxtofl@exp:	; 1 bytes @ 0x1
  1143  0021                     	ds	1
  1144  0021                     	global	___xxtofl@arg
  1145                           ___xxtofl@arg:	; 4 bytes @ 0x2
  1146  0022                     	ds	2
  1147  0022                     	global	___fldiv@sign
  1148                           ___fldiv@sign:	; 1 bytes @ 0x4
  1149  0024                     	global	___flmul@a
  1150                           ___flmul@a:	; 4 bytes @ 0x4
  1151  0024                     	ds	1
  1152  0024                     	global	___fldiv@new_exp
  1153                           ___fldiv@new_exp:	; 2 bytes @ 0x5
  1154  0025                     	ds	2
  1155  0025                     	global	___fldiv@grs
  1156                           ___fldiv@grs:	; 4 bytes @ 0x7
  1157  0027                     	ds	1
  1158  0027                     	global	___flmul@sign
  1159                           ___flmul@sign:	; 1 bytes @ 0x8
  1160  0028                     	ds	1
  1161  0028                     	global	___flmul@grs
  1162                           ___flmul@grs:	; 4 bytes @ 0x9
  1163  0029                     	ds	2
  1164  0029                     	global	___fldiv@bexp
  1165                           ___fldiv@bexp:	; 1 bytes @ 0xB
  1166  002B                     	ds	1
  1167  002B                     	global	___fldiv@aexp
  1168                           ___fldiv@aexp:	; 1 bytes @ 0xC
  1169  002C                     	ds	1
  1170  002C                     	global	___flmul@aexp
  1171                           ___flmul@aexp:	; 1 bytes @ 0xD
  1172  002D                     	ds	1
  1173  002D                     	global	___flmul@bexp
  1174                           ___flmul@bexp:	; 1 bytes @ 0xE
  1175  002E                     	ds	1
  1176  002E                     	global	___flmul@prod
  1177                           ___flmul@prod:	; 4 bytes @ 0xF
  1178  002F                     	ds	4
  1179  002F                     	global	___flmul@temp
  1180                           ___flmul@temp:	; 2 bytes @ 0x13
  1181  0033                     	ds	2
  1182  0033                     	global	?___fltol
  1183                           ?___fltol:	; 4 bytes @ 0x15
  1184  0035                     	global	___fltol@f1
  1185                           ___fltol@f1:	; 4 bytes @ 0x15
  1186  0035                     	ds	4
  1187  0035                     ??___fltol:	; 1 bytes @ 0x19
  1188  0039                     	ds	5
  1189  0039                     	global	___fltol@sign1
  1190                           ___fltol@sign1:	; 1 bytes @ 0x1E
  1191  003E                     	ds	1
  1192  003E                     	global	___fltol@exp1
  1193                           ___fltol@exp1:	; 1 bytes @ 0x1F
  1194  003F                     	ds	1
  1195  003F                     ??_main:	; 1 bytes @ 0x20
  1196  0040                     	ds	4
  1197  0040                     	global	main@DISPLEJ
  1198                           main@DISPLEJ:	; 10 bytes @ 0x24
  1199  0044                     	ds	10
  1200  0044                     	global	main@adc
  1201                           main@adc:	; 4 bytes @ 0x2E
  1202  004E                     	ds	4
  1203  004E                     	global	main@volt
  1204                           main@volt:	; 4 bytes @ 0x32
  1205  0052                     	ds	4
  1206  0052                     	global	main@temp
  1207                           main@temp:	; 4 bytes @ 0x36
  1208  0056                     	ds	4
  1209  0056                     	global	main@c1
  1210                           main@c1:	; 2 bytes @ 0x3A
  1211  005A                     	ds	2
  1212  005A                     	global	main@c2
  1213                           main@c2:	; 2 bytes @ 0x3C
  1214  005C                     	ds	2
  1215  005C                     	global	main@c3
  1216                           main@c3:	; 2 bytes @ 0x3E
  1217  005E                     	ds	2
  1218  005E                     	global	main@c4
  1219                           main@c4:	; 2 bytes @ 0x40
  1220  0060                     	ds	2
  1221  0060                     	global	main@i
  1222                           main@i:	; 2 bytes @ 0x42
  1223  0062                     	ds	2
  1224  0062                     	global	main@broj
  1225                           main@broj:	; 1 bytes @ 0x44
  1226  0064                     	ds	1
  1227  0064                     	global	main@opcija
  1228                           main@opcija:	; 2 bytes @ 0x45
  1229  0065                     	ds	2
  1230  0065                     	global	main@temp1
  1231                           main@temp1:	; 2 bytes @ 0x47
  1232  0067                     	ds	2
  1233  0067                     ;!
  1234                           ;!Data Sizes:
  1235                           ;!    Strings     367
  1236                           ;!    Constant    0
  1237                           ;!    Data        10
  1238                           ;!    BSS         0
  1239                           ;!    Persistent  0
  1240                           ;!    Stack       0
  1241                           ;!
  1242                           ;!Auto Spaces:
  1243                           ;!    Space          Size  Autos    Used
  1244                           ;!    COMMON           14     14      14
  1245                           ;!    BANK0            80     73      73
  1246                           ;!    BANK1            80      0      10
  1247                           ;!    BANK3            96      0       0
  1248                           ;!    BANK2            96      0       0
  1249                           
  1250                           ;!
  1251                           ;!Pointer List with Targets:
  1252                           ;!
  1253                           ;!    printf@f	PTR const unsigned char  size(2) Largest target is 51
  1254                           ;!		 -> STR_14(CODE[25]), STR_11(CODE[25]), STR_8(CODE[25]), STR_7(CODE[3]), 
  1255                           ;!		 -> STR_6(CODE[26]), STR_5(CODE[27]), STR_4(CODE[33]), STR_3(CODE[44]), 
  1256                           ;!		 -> STR_2(CODE[51]), STR_1(CODE[42]), 
  1257                           ;!
  1258                           ;!    printf@ap	PTR void [1] size(1) Largest target is 2
  1259                           ;!		 -> ?_printf(COMMON[2]), 
  1260                           ;!
  1261                           ;!    Lcd_Write_String@a	PTR unsigned char  size(2) Largest target is 16
  1262                           ;!		 -> STR_17(CODE[2]), STR_16(CODE[2]), STR_15(CODE[12]), STR_13(CODE[11]), 
  1263                           ;!		 -> STR_12(CODE[16]), STR_10(CODE[16]), STR_9(CODE[12]), 
  1264                           ;!
  1265                           
  1266                           
  1267                           ;!
  1268                           ;!Critical Paths under _main in COMMON
  1269                           ;!
  1270                           ;!    _main->___awmod
  1271                           ;!    _main->___flmul
  1272                           ;!    _printf->_putch
  1273                           ;!    _putch->_UART_Send_Char
  1274                           ;!    ___xxtofl->_ADC_Read
  1275                           ;!    ___fltol->___flmul
  1276                           ;!    ___flmul->__Umul8_16
  1277                           ;!    ___awmod->___awdiv
  1278                           ;!    _Lcd_Write_String->_Lcd_Write_Char
  1279                           ;!    _Lcd_Write_Char->_Lcd_Port
  1280                           ;!    _Lcd_Set_Cursor->_Lcd_Cmd
  1281                           ;!    _Lcd_Init->_Lcd_Cmd
  1282                           ;!    _Lcd_Clear->_Lcd_Cmd
  1283                           ;!    _Lcd_Cmd->_Lcd_Port
  1284                           ;!
  1285                           ;!Critical Paths under _main in BANK0
  1286                           ;!
  1287                           ;!    _main->___fltol
  1288                           ;!    ___fltol->___flmul
  1289                           ;!
  1290                           ;!Critical Paths under _main in BANK1
  1291                           ;!
  1292                           ;!    None.
  1293                           ;!
  1294                           ;!Critical Paths under _main in BANK3
  1295                           ;!
  1296                           ;!    None.
  1297                           ;!
  1298                           ;!Critical Paths under _main in BANK2
  1299                           ;!
  1300                           ;!    None.
  1301                           
  1302 ;;
  1303 ;;Main: autosize = 0, tempsize = 4, incstack = 0, save=0
  1304 ;;
  1305                           
  1306                           ;!
  1307                           ;!Call Graph Tables:
  1308                           ;!
  1309                           ;! ---------------------------------------------------------------------------------
  1310                           ;! (Depth) Function   	        Calls       Base Space   Used Autos Params    Refs
  1311                           ;! ---------------------------------------------------------------------------------
  1312                           ;! (0) _main                                                41    41      0    9655
  1313                           ;!                                             32 BANK0     41    41      0
  1314                           ;!                     _ADC_Initialize
  1315                           ;!                           _ADC_Read
  1316                           ;!                          _Lcd_Clear
  1317                           ;!                           _Lcd_Init
  1318                           ;!                     _Lcd_Set_Cursor
  1319                           ;!                     _Lcd_Write_Char
  1320                           ;!                   _Lcd_Write_String
  1321                           ;!                      _UART_Get_Char
  1322                           ;!                          _UART_Init
  1323                           ;!                     _UART_Send_Char
  1324                           ;!                            ___awdiv
  1325                           ;!                            ___awmod
  1326                           ;!                            ___fldiv
  1327                           ;!                            ___flmul
  1328                           ;!                            ___fltol
  1329                           ;!                           ___xxtofl
  1330                           ;!                             _printf
  1331                           ;! ---------------------------------------------------------------------------------
  1332                           ;! (1) _printf                                              19    17      2     850
  1333                           ;!                                              2 COMMON     7     5      2
  1334                           ;!                              _putch
  1335                           ;! ---------------------------------------------------------------------------------
  1336                           ;! (2) _putch                                                1     1      0      44
  1337                           ;!                                              1 COMMON     1     1      0
  1338                           ;!                     _UART_Send_Char
  1339                           ;! ---------------------------------------------------------------------------------
  1340                           ;! (3) _UART_Send_Char                                       1     1      0      22
  1341                           ;!                                              0 COMMON     1     1      0
  1342                           ;! ---------------------------------------------------------------------------------
  1343                           ;! (1) ___xxtofl                                            14    10      4     398
  1344                           ;!                                              5 COMMON     8     4      4
  1345                           ;!                                              0 BANK0      6     6      0
  1346                           ;!                           _ADC_Read (ARG)
  1347                           ;! ---------------------------------------------------------------------------------
  1348                           ;! (1) ___fltol                                             11     7      4     305
  1349                           ;!                                             21 BANK0     11     7      4
  1350                           ;!                            ___flmul (ARG)
  1351                           ;! ---------------------------------------------------------------------------------
  1352                           ;! (1) ___flmul                                             26    18      8    2569
  1353                           ;!                                              9 COMMON     5     5      0
  1354                           ;!                                              0 BANK0     21    13      8
  1355                           ;!                          __Umul8_16
  1356                           ;! ---------------------------------------------------------------------------------
  1357                           ;! (2) __Umul8_16                                            9     7      2     799
  1358                           ;!                                              0 COMMON     9     7      2
  1359                           ;! ---------------------------------------------------------------------------------
  1360                           ;! (1) ___fldiv                                             26    18      8    1273
  1361                           ;!                                              0 COMMON    13     5      8
  1362                           ;!                                              0 BANK0     13    13      0
  1363                           ;! ---------------------------------------------------------------------------------
  1364                           ;! (1) ___awmod                                              7     3      4     904
  1365                           ;!                                              9 COMMON     5     1      4
  1366                           ;!                                              0 BANK0      2     2      0
  1367                           ;!                            ___awdiv (ARG)
  1368                           ;! ---------------------------------------------------------------------------------
  1369                           ;! (1) ___awdiv                                              9     5      4     756
  1370                           ;!                                              0 COMMON     9     5      4
  1371                           ;! ---------------------------------------------------------------------------------
  1372                           ;! (1) _UART_Init                                            0     0      0       0
  1373                           ;! ---------------------------------------------------------------------------------
  1374                           ;! (1) _UART_Get_Char                                        0     0      0       0
  1375                           ;! ---------------------------------------------------------------------------------
  1376                           ;! (1) _Lcd_Write_String                                     7     5      2     800
  1377                           ;!                                              5 COMMON     7     5      2
  1378                           ;!                     _Lcd_Write_Char
  1379                           ;! ---------------------------------------------------------------------------------
  1380                           ;! (2) _Lcd_Write_Char                                       4     4      0     178
  1381                           ;!                                              1 COMMON     4     4      0
  1382                           ;!                           _Lcd_Port
  1383                           ;! ---------------------------------------------------------------------------------
  1384                           ;! (1) _Lcd_Set_Cursor                                       7     6      1     836
  1385                           ;!                                              4 COMMON     7     6      1
  1386                           ;!                            _Lcd_Cmd
  1387                           ;! ---------------------------------------------------------------------------------
  1388                           ;! (1) _Lcd_Init                                             2     2      0     198
  1389                           ;!                                              4 COMMON     2     2      0
  1390                           ;!                            _Lcd_Cmd
  1391                           ;!                           _Lcd_Port
  1392                           ;! ---------------------------------------------------------------------------------
  1393                           ;! (1) _Lcd_Clear                                            0     0      0     110
  1394                           ;!                            _Lcd_Cmd
  1395                           ;! ---------------------------------------------------------------------------------
  1396                           ;! (2) _Lcd_Cmd                                              3     3      0     110
  1397                           ;!                                              1 COMMON     3     3      0
  1398                           ;!                           _Lcd_Port
  1399                           ;! ---------------------------------------------------------------------------------
  1400                           ;! (3) _Lcd_Port                                             1     1      0      88
  1401                           ;!                                              0 COMMON     1     1      0
  1402                           ;! ---------------------------------------------------------------------------------
  1403                           ;! (1) _ADC_Read                                             5     3      2      22
  1404                           ;!                                              0 COMMON     5     3      2
  1405                           ;! ---------------------------------------------------------------------------------
  1406                           ;! (1) _ADC_Initialize                                       0     0      0       0
  1407                           ;! ---------------------------------------------------------------------------------
  1408                           ;! Estimated maximum stack depth 3
  1409                           ;! ---------------------------------------------------------------------------------
  1410                           ;!
  1411                           ;! Call Graph Graphs:
  1412                           ;!
  1413                           ;! _main (ROOT)
  1414                           ;!   _ADC_Initialize
  1415                           ;!   _ADC_Read
  1416                           ;!   _Lcd_Clear
  1417                           ;!     _Lcd_Cmd
  1418                           ;!       _Lcd_Port
  1419                           ;!   _Lcd_Init
  1420                           ;!     _Lcd_Cmd
  1421                           ;!       _Lcd_Port
  1422                           ;!     _Lcd_Port
  1423                           ;!   _Lcd_Set_Cursor
  1424                           ;!     _Lcd_Cmd
  1425                           ;!       _Lcd_Port
  1426                           ;!   _Lcd_Write_Char
  1427                           ;!     _Lcd_Port
  1428                           ;!   _Lcd_Write_String
  1429                           ;!     _Lcd_Write_Char
  1430                           ;!       _Lcd_Port
  1431                           ;!   _UART_Get_Char
  1432                           ;!   _UART_Init
  1433                           ;!   _UART_Send_Char
  1434                           ;!   ___awdiv
  1435                           ;!   ___awmod
  1436                           ;!     ___awdiv (ARG)
  1437                           ;!   ___fldiv
  1438                           ;!   ___flmul
  1439                           ;!     __Umul8_16
  1440                           ;!   ___fltol
  1441                           ;!     ___flmul (ARG)
  1442                           ;!       __Umul8_16
  1443                           ;!   ___xxtofl
  1444                           ;!     _ADC_Read (ARG)
  1445                           ;!   _printf
  1446                           ;!     _putch
  1447                           ;!       _UART_Send_Char
  1448                           ;!
  1449                           
  1450                           ;! Address spaces:
  1451                           
  1452                           ;!Name               Size   Autos  Total    Cost      Usage
  1453                           ;!BANK3               60      0       0       9        0.0%
  1454                           ;!BITBANK3            60      0       0       8        0.0%
  1455                           ;!SFR3                 0      0       0       4        0.0%
  1456                           ;!BITSFR3              0      0       0       4        0.0%
  1457                           ;!BANK2               60      0       0      11        0.0%
  1458                           ;!BITBANK2            60      0       0      10        0.0%
  1459                           ;!SFR2                 0      0       0       5        0.0%
  1460                           ;!BITSFR2              0      0       0       5        0.0%
  1461                           ;!BANK1               50      0       A       7       12.5%
  1462                           ;!BITBANK1            50      0       0       6        0.0%
  1463                           ;!SFR1                 0      0       0       2        0.0%
  1464                           ;!BITSFR1              0      0       0       2        0.0%
  1465                           ;!BANK0               50     49      49       5       91.3%
  1466                           ;!BITBANK0            50      0       0       4        0.0%
  1467                           ;!SFR0                 0      0       0       1        0.0%
  1468                           ;!BITSFR0              0      0       0       1        0.0%
  1469                           ;!COMMON               E      E       E       1      100.0%
  1470                           ;!BITCOMMON            E      0       0       0        0.0%
  1471                           ;!CODE                 0      0       0       0        0.0%
  1472                           ;!DATA                 0      0      61      12        0.0%
  1473                           ;!ABS                  0      0      61       3        0.0%
  1474                           ;!NULL                 0      0       0       0        0.0%
  1475                           ;!STACK                0      0       0       2        0.0%
  1476                           ;!EEDATA             100      0       0       0        0.0%
  1477                           
  1478                           	global	_main
  1479                           
  1480 ;; *************** function _main *****************
  1481 ;; Defined at:
  1482 ;;		line 194 in file "ROK5ZAD3.c"
  1483 ;; Parameters:    Size  Location     Type
  1484 ;;		None
  1485 ;; Auto vars:     Size  Location     Type
  1486 ;;  i               2   66[BANK0 ] int 
  1487 ;;  DISPLEJ        10   36[BANK0 ] unsigned char [10]
  1488 ;;  temp            4   54[BANK0 ] float 
  1489 ;;  volt            4   50[BANK0 ] float 
  1490 ;;  adc             4   46[BANK0 ] float 
  1491 ;;  temp1           2   71[BANK0 ] int 
  1492 ;;  opcija          2   69[BANK0 ] int 
  1493 ;;  c4              2   64[BANK0 ] int 
  1494 ;;  c3              2   62[BANK0 ] int 
  1495 ;;  c2              2   60[BANK0 ] int 
  1496 ;;  c1              2   58[BANK0 ] int 
  1497 ;;  broj            1   68[BANK0 ] unsigned char 
  1498 ;; Return value:  Size  Location     Type
  1499 ;;                  1    wreg      void 
  1500 ;; Registers used:
  1501 ;;		wreg, fsr0l, fsr0h, status,2, status,0, btemp+1, pclath, cstack
  1502 ;; Tracked objects:
  1503 ;;		On entry : B00/0
  1504 ;;		On exit  : 0/0
  1505 ;;		Unchanged: 0/0
  1506 ;; Data sizes:     COMMON   BANK0   BANK1   BANK3   BANK2
  1507 ;;      Params:         0       0       0       0       0
  1508 ;;      Locals:         0      37       0       0       0
  1509 ;;      Temps:          0       4       0       0       0
  1510 ;;      Totals:         0      41       0       0       0
  1511 ;;Total ram usage:       41 bytes
  1512 ;; Hardware stack levels required when called:    3
  1513 ;; This function calls:
  1514 ;;		_ADC_Initialize
  1515 ;;		_ADC_Read
  1516 ;;		_Lcd_Clear
  1517 ;;		_Lcd_Init
  1518 ;;		_Lcd_Set_Cursor
  1519 ;;		_Lcd_Write_Char
  1520 ;;		_Lcd_Write_String
  1521 ;;		_UART_Get_Char
  1522 ;;		_UART_Init
  1523 ;;		_UART_Send_Char
  1524 ;;		___awdiv
  1525 ;;		___awmod
  1526 ;;		___fldiv
  1527 ;;		___flmul
  1528 ;;		___fltol
  1529 ;;		___xxtofl
  1530 ;;		_printf
  1531 ;; This function is called by:
  1532 ;;		Startup code after reset
  1533 ;; This function uses a non-reentrant model
  1534 ;;
  1535                           psect	maintext,global,class=CODE,delta=2,split=1,group=0
  1536                           	file	"ROK5ZAD3.c"
  1537                           	line	194
  1538                           global __pmaintext
  1539                           __pmaintext:	;psect for function _main
  1540  0173                     psect	maintext
  1541                           	file	"ROK5ZAD3.c"
  1542                           	line	194
  1543                           	global	__size_of_main
  1544                           	__size_of_main	equ	__end_of_main-_main
  1545  0306                     	
  1546                           _main:	
  1547  0173                     ;incstack = 0
  1548                           	opt	stack 5
  1549                           ; Regs used in _main: [wreg-fsr0h+status,2+status,0+btemp+1+pclath+cstack]
  1550                           	line	197
  1551                           	
  1552                           l2151:	
  1553  0173                     ;ROK5ZAD3.c: 197:     PORTB=0;
  1554                           	bcf	status, 5	;RP0=0, select bank0
  1555  0173  1283               	bcf	status, 6	;RP1=0, select bank0
  1556  0174  1303               	clrf	(6)	;volatile
  1557  0175  0186               	line	198
  1558                           ;ROK5ZAD3.c: 198:     TRISB=0;
  1559                           	bsf	status, 5	;RP0=1, select bank1
  1560  0176  1683               	bcf	status, 6	;RP1=0, select bank1
  1561  0177  1303               	clrf	(134)^080h	;volatile
  1562  0178  0186               	line	199
  1563                           	
  1564                           l2153:	
  1565  0179                     ;ROK5ZAD3.c: 199:     TRISC0=0;
  1566                           	bcf	(1080/8)^080h,(1080)&7	;volatile
  1567  0179  1007               	line	200
  1568                           	
  1569                           l2155:	
  1570  017A                     ;ROK5ZAD3.c: 200:     TRISC1=0;
  1571                           	bcf	(1081/8)^080h,(1081)&7	;volatile
  1572  017A  1087               	line	201
  1573                           	
  1574                           l2157:	
  1575  017B                     ;ROK5ZAD3.c: 201:     TRISC2=0;
  1576                           	bcf	(1082/8)^080h,(1082)&7	;volatile
  1577  017B  1107               	line	202
  1578                           	
  1579                           l2159:	
  1580  017C                     ;ROK5ZAD3.c: 202:     TRISC3=0;
  1581                           	bcf	(1083/8)^080h,(1083)&7	;volatile
  1582  017C  1187               	line	203
  1583                           	
  1584                           l2161:	
  1585  017D                     ;ROK5ZAD3.c: 203:     TRISC4=0;
  1586                           	bcf	(1084/8)^080h,(1084)&7	;volatile
  1587  017D  1207               	line	204
  1588                           	
  1589                           l2163:	
  1590  017E                     ;ROK5ZAD3.c: 204:     TRISC5=0;
  1591                           	bcf	(1085/8)^080h,(1085)&7	;volatile
  1592  017E  1287               	line	205
  1593                           	
  1594                           l2165:	
  1595  017F                     ;ROK5ZAD3.c: 205:     TRISE0=0;
  1596                           	bcf	(1096/8)^080h,(1096)&7	;volatile
  1597  017F  1009               	line	206
  1598                           	
  1599                           l2167:	
  1600  0180                     ;ROK5ZAD3.c: 206:     TRISE1=0;
  1601                           	bcf	(1097/8)^080h,(1097)&7	;volatile
  1602  0180  1089               	line	207
  1603                           ;ROK5ZAD3.c: 207:     TRISD=0;
  1604                           	clrf	(136)^080h	;volatile
  1605  0181  0188               	line	208
  1606                           	
  1607                           l2169:	
  1608  0182                     ;ROK5ZAD3.c: 208:      Lcd_Init();
  1609                           	fcall	_Lcd_Init
  1610  0182  120A  158A  24BD  120A  118A  	line	209
  1611                           	
  1612                           l2171:	
  1613  0187                     ;ROK5ZAD3.c: 209:     Lcd_Clear();
  1614                           	fcall	_Lcd_Clear
  1615  0187  120A  118A  2006  120A  118A  	line	210
  1616                           	
  1617                           l2173:	
  1618  018C                     ;ROK5ZAD3.c: 210:     UART_Init();
  1619                           	fcall	_UART_Init
  1620  018C  120A  158A  2317  120A  118A  	line	211
  1621                           	
  1622                           l2175:	
  1623  0191                     ;ROK5ZAD3.c: 211:     char DISPLEJ[10]={0x3F,0x06,0x5B,0x4F,0x66,0x6D, 0x7D, 0x07,0x7F,0
                                 x6F};
  1624                           	movlw	(main@DISPLEJ)&0ffh
  1625  0191  3044               	movwf	fsr0
  1626  0192  0084               	movlw	low(main@F1060)
  1627  0193  30A0               	bcf	status, 5	;RP0=0, select bank0
  1628  0194  1283               	bcf	status, 6	;RP1=0, select bank0
  1629  0195  1303               	movwf	(??_main+0)+0
  1630  0196  00C0               	movf	fsr0,w
  1631  0197  0804               	movwf	((??_main+0)+0+1)
  1632  0198  00C1               	movlw	10
  1633  0199  300A               	movwf	((??_main+0)+0+2)
  1634  019A  00C2               u2680:
  1635  019B                     	movf	(??_main+0)+0,w
  1636  019B  0840               	movwf	fsr0
  1637  019C  0084               	bcf	status, 7	;select IRP bank1
  1638  019D  1383               	
  1639                           	movf	indf,w
  1640  019E  0800               	movwf	((??_main+0)+0+3)
  1641  019F  00C3               	incf	(??_main+0)+0,f
  1642  01A0  0AC0               	movf	((??_main+0)+0+1),w
  1643  01A1  0841               	movwf	fsr0
  1644  01A2  0084               	
  1645                           	movf	((??_main+0)+0+3),w
  1646  01A3  0843               	movwf	indf
  1647  01A4  0080               	incf	((??_main+0)+0+1),f
  1648  01A5  0AC1               	decfsz	((??_main+0)+0+2),f
  1649  01A6  0BC2               	goto	u2680
  1650  01A7  299B               	
  1651                           	line	212
  1652                           	
  1653                           l2177:	
  1654  01A8                     ;ROK5ZAD3.c: 212:     char broj=3;
  1655                           	movlw	low(03h)
  1656  01A8  3003               	movwf	(??_main+0)+0
  1657  01A9  00C0               	movf	(??_main+0)+0,w
  1658  01AA  0840               	movwf	(main@broj)
  1659  01AB  00E4               	line	216
  1660                           	
  1661                           l2179:	
  1662  01AC                     ;ROK5ZAD3.c: 213:     float adc;;ROK5ZAD3.c: 214:     float volt, temp;;ROK5ZAD3.c: 215:
                                      int c1, c2, c3, c4, temp1;;ROK5ZAD3.c: 216:     ADC_Initialize();
  1663                           	fcall	_ADC_Initialize
  1664  01AC  120A  158A  22D3  120A  118A  	line	217
  1665                           	
  1666                           l2181:	
  1667  01B1                     ;ROK5ZAD3.c: 217:                 RC0=0;
  1668                           	bcf	status, 5	;RP0=0, select bank0
  1669  01B1  1283               	bcf	status, 6	;RP1=0, select bank0
  1670  01B2  1303               	bcf	(56/8),(56)&7	;volatile
  1671  01B3  1007               	line	218
  1672                           	
  1673                           l2183:	
  1674  01B4                     ;ROK5ZAD3.c: 218:                 RC1=0;
  1675                           	bcf	(57/8),(57)&7	;volatile
  1676  01B4  1087               	line	219
  1677                           	
  1678                           l2185:	
  1679  01B5                     ;ROK5ZAD3.c: 219:                 RC2=0;
  1680                           	bcf	(58/8),(58)&7	;volatile
  1681  01B5  1107               	line	220
  1682                           	
  1683                           l2187:	
  1684  01B6                     ;ROK5ZAD3.c: 220:                 RC3=0;
  1685                           	bcf	(59/8),(59)&7	;volatile
  1686  01B6  1187               	line	221
  1687                           	
  1688                           l2189:	
  1689  01B7                     ;ROK5ZAD3.c: 221:                 RC4=0;
  1690                           	bcf	(60/8),(60)&7	;volatile
  1691  01B7  1207               	line	222
  1692                           	
  1693                           l2191:	
  1694  01B8                     ;ROK5ZAD3.c: 222:                 RC5=0;
  1695                           	bcf	(61/8),(61)&7	;volatile
  1696  01B8  1287               	line	223
  1697                           	
  1698                           l2193:	
  1699  01B9                     ;ROK5ZAD3.c: 223:                 RD0=0;
  1700                           	bcf	(64/8),(64)&7	;volatile
  1701  01B9  1008               	line	224
  1702                           	
  1703                           l2195:	
  1704  01BA                     ;ROK5ZAD3.c: 224:                 RD1=0;
  1705                           	bcf	(65/8),(65)&7	;volatile
  1706  01BA  1088               	line	225
  1707                           	
  1708                           l2197:	
  1709  01BB                     ;ROK5ZAD3.c: 225:                 RE0=0;
  1710                           	bcf	(72/8),(72)&7	;volatile
  1711  01BB  1009               	line	226
  1712                           	
  1713                           l2199:	
  1714  01BC                     ;ROK5ZAD3.c: 226:                 RE1=0;
  1715                           	bcf	(73/8),(73)&7	;volatile
  1716  01BC  1089               	goto	l2201
  1717  01BD  29BE               	line	228
  1718                           ;ROK5ZAD3.c: 227:     int opcija;;ROK5ZAD3.c: 228:     do {
  1719                           	
  1720                           l168:	
  1721  01BE                     	line	229
  1722                           	
  1723                           l2201:	
  1724  01BE                     ;ROK5ZAD3.c: 229:         printf("Dobrodosli! Odaberite opciju 1, 2 ili 3\r\r");
  1725                           	movlw	low(((STR_1)|8000h))
  1726  01BE  305F               	movwf	(printf@f)
  1727  01BF  00F2               	movlw	high(((STR_1)|8000h))
  1728  01C0  3090               	movwf	((printf@f))+1
  1729  01C1  00F3               	fcall	_printf
  1730  01C2  120A  158A  236C  120A  118A  	line	230
  1731                           	
  1732                           l2203:	
  1733  01C7                     ;ROK5ZAD3.c: 230:         printf("\r1. Upali svaku drugu diodu (od ukupno 10 dioda)\r\r"
                                 );
  1734                           	movlw	low(((STR_2)|8000h))
  1735  01C7  3000               	movwf	(printf@f)
  1736  01C8  00F2               	movlw	high(((STR_2)|8000h))
  1737  01C9  3090               	movwf	((printf@f))+1
  1738  01CA  00F3               	fcall	_printf
  1739  01CB  120A  158A  236C  120A  118A  	line	231
  1740                           	
  1741                           l2205:	
  1742  01D0                     ;ROK5ZAD3.c: 231:         printf("\r2. Pokreni brojac na 7 segmentnom displeju");
  1743                           	movlw	low(((STR_3)|8000h))
  1744  01D0  3033               	movwf	(printf@f)
  1745  01D1  00F2               	movlw	high(((STR_3)|8000h))
  1746  01D2  3090               	movwf	((printf@f))+1
  1747  01D3  00F3               	fcall	_printf
  1748  01D4  120A  158A  236C  120A  118A  	line	232
  1749                           	
  1750                           l2207:	
  1751  01D9                     ;ROK5ZAD3.c: 232:         printf("\rkoji broji od 3 do 8 pet puta\r\r");
  1752                           	movlw	low(((STR_4)|8000h))
  1753  01D9  3089               	movwf	(printf@f)
  1754  01DA  00F2               	movlw	high(((STR_4)|8000h))
  1755  01DB  3090               	movwf	((printf@f))+1
  1756  01DC  00F3               	fcall	_printf
  1757  01DD  120A  158A  236C  120A  118A  	line	233
  1758                           	
  1759                           l2209:	
  1760  01E2                     ;ROK5ZAD3.c: 233:         printf("\r3. Trenutna temperatura\r\r");
  1761                           	movlw	low(((STR_5)|8000h))
  1762  01E2  30AA               	movwf	(printf@f)
  1763  01E3  00F2               	movlw	high(((STR_5)|8000h))
  1764  01E4  3090               	movwf	((printf@f))+1
  1765  01E5  00F3               	fcall	_printf
  1766  01E6  120A  158A  236C  120A  118A  	line	234
  1767                           	
  1768                           l2211:	
  1769  01EB                     ;ROK5ZAD3.c: 234:         printf("\rUnesite zeljenu opciju: ");
  1770                           	movlw	low(((STR_6)|8000h))
  1771  01EB  30C5               	movwf	(printf@f)
  1772  01EC  00F2               	movlw	high(((STR_6)|8000h))
  1773  01ED  3090               	movwf	((printf@f))+1
  1774  01EE  00F3               	fcall	_printf
  1775  01EF  120A  158A  236C  120A  118A  	line	235
  1776                           	
  1777                           l2213:	
  1778  01F4                     ;ROK5ZAD3.c: 235:         opcija=UART_Get_Char();
  1779                           	fcall	_UART_Get_Char
  1780  01F4  120A  158A  22F2  120A  118A  	bcf	status, 5	;RP0=0, select bank0
  1781  01F9  1283               	bcf	status, 6	;RP1=0, select bank0
  1782  01FA  1303               	movwf	(??_main+0)+0
  1783  01FB  00C0               	clrf	(??_main+0)+0+1
  1784  01FC  01C1               	movf	0+(??_main+0)+0,w
  1785  01FD  0840               	movwf	(main@opcija)
  1786  01FE  00E5               	movf	1+(??_main+0)+0,w
  1787  01FF  0841               	movwf	(main@opcija+1)
  1788  0200  00E6               	line	236
  1789                           	
  1790                           l2215:	
  1791  0201                     ;ROK5ZAD3.c: 236:         UART_Send_Char(opcija);
  1792                           	movf	(main@opcija),w
  1793  0201  0865               	fcall	_UART_Send_Char
  1794  0202  120A  158A  22E6  120A  118A  	line	237
  1795                           	
  1796                           l2217:	
  1797  0207                     ;ROK5ZAD3.c: 237:         printf("\r\r");
  1798                           	movlw	low(((STR_7)|8000h))
  1799  0207  3030               	movwf	(printf@f)
  1800  0208  00F2               	movlw	high(((STR_7)|8000h))
  1801  0209  3090               	movwf	((printf@f))+1
  1802  020A  00F3               	fcall	_printf
  1803  020B  120A  158A  236C  120A  118A  	line	238
  1804                           ;ROK5ZAD3.c: 238:         switch(opcija) {
  1805                           	goto	l2325
  1806  0210  2C5B               	line	239
  1807                           ;ROK5ZAD3.c: 239:             case '1':
  1808                           	
  1809                           l170:	
  1810  0211                     	line	240
  1811                           	
  1812                           l2219:	
  1813  0211                     ;ROK5ZAD3.c: 240:                 printf("\r\rIzabrali ste opciju 1.");
  1814                           	movlw	low(((STR_8)|8000h))
  1815  0211  30DF               	movwf	(printf@f)
  1816  0212  00F2               	movlw	high(((STR_8)|8000h))
  1817  0213  3090               	movwf	((printf@f))+1
  1818  0214  00F3               	fcall	_printf
  1819  0215  120A  158A  236C  120A  118A  	line	241
  1820                           	
  1821                           l2221:	
  1822  021A                     ;ROK5ZAD3.c: 241:                Lcd_Set_Cursor(1,1);
  1823                           	clrf	(Lcd_Set_Cursor@b)
  1824  021A  01F4               	incf	(Lcd_Set_Cursor@b),f
  1825  021B  0AF4               	movlw	low(01h)
  1826  021C  3001               	fcall	_Lcd_Set_Cursor
  1827  021D  120A  158A  2469  120A  118A  	line	242
  1828                           	
  1829                           l2223:	
  1830  0222                     ;ROK5ZAD3.c: 242:                 Lcd_Write_String("Svaka druga");
  1831                           	movlw	low(((STR_9)|8000h))
  1832  0222  304A               	movwf	(Lcd_Write_String@a)
  1833  0223  00F5               	movlw	high(((STR_9)|8000h))
  1834  0224  3091               	movwf	((Lcd_Write_String@a))+1
  1835  0225  00F6               	fcall	_Lcd_Write_String
  1836  0226  120A  158A  2425  120A  118A  	line	243
  1837                           ;ROK5ZAD3.c: 243:                 Lcd_Set_Cursor(2,1);
  1838                           	clrf	(Lcd_Set_Cursor@b)
  1839  022B  01F4               	incf	(Lcd_Set_Cursor@b),f
  1840  022C  0AF4               	movlw	low(02h)
  1841  022D  3002               	fcall	_Lcd_Set_Cursor
  1842  022E  120A  158A  2469  120A  118A  	line	244
  1843                           	
  1844                           l2225:	
  1845  0233                     ;ROK5ZAD3.c: 244:                 Lcd_Write_String("dioda upaljena!");
  1846                           	movlw	low(((STR_10)|8000h))
  1847  0233  302A               	movwf	(Lcd_Write_String@a)
  1848  0234  00F5               	movlw	high(((STR_10)|8000h))
  1849  0235  3091               	movwf	((Lcd_Write_String@a))+1
  1850  0236  00F6               	fcall	_Lcd_Write_String
  1851  0237  120A  158A  2425  120A  118A  	line	247
  1852                           	
  1853                           l2227:	
  1854  023C                     ;ROK5ZAD3.c: 247:                 RC0=0;
  1855                           	bcf	status, 5	;RP0=0, select bank0
  1856  023C  1283               	bcf	status, 6	;RP1=0, select bank0
  1857  023D  1303               	bcf	(56/8),(56)&7	;volatile
  1858  023E  1007               	line	248
  1859                           	
  1860                           l2229:	
  1861  023F                     ;ROK5ZAD3.c: 248:                 RC1=1;
  1862                           	bsf	(57/8),(57)&7	;volatile
  1863  023F  1487               	line	249
  1864                           	
  1865                           l2231:	
  1866  0240                     ;ROK5ZAD3.c: 249:                 RC2=0;
  1867                           	bcf	(58/8),(58)&7	;volatile
  1868  0240  1107               	line	250
  1869                           	
  1870                           l2233:	
  1871  0241                     ;ROK5ZAD3.c: 250:                 RC3=1;
  1872                           	bsf	(59/8),(59)&7	;volatile
  1873  0241  1587               	line	251
  1874                           	
  1875                           l2235:	
  1876  0242                     ;ROK5ZAD3.c: 251:                 RC4=0;
  1877                           	bcf	(60/8),(60)&7	;volatile
  1878  0242  1207               	line	252
  1879                           	
  1880                           l2237:	
  1881  0243                     ;ROK5ZAD3.c: 252:                 RC5=1;
  1882                           	bsf	(61/8),(61)&7	;volatile
  1883  0243  1687               	line	253
  1884                           	
  1885                           l2239:	
  1886  0244                     ;ROK5ZAD3.c: 253:                 RD0=0;
  1887                           	bcf	(64/8),(64)&7	;volatile
  1888  0244  1008               	line	254
  1889                           	
  1890                           l2241:	
  1891  0245                     ;ROK5ZAD3.c: 254:                 RD1=1;
  1892                           	bsf	(65/8),(65)&7	;volatile
  1893  0245  1488               	line	255
  1894                           	
  1895                           l2243:	
  1896  0246                     ;ROK5ZAD3.c: 255:                 RE0=0;
  1897                           	bcf	(72/8),(72)&7	;volatile
  1898  0246  1009               	line	256
  1899                           	
  1900                           l2245:	
  1901  0247                     ;ROK5ZAD3.c: 256:                 RE1=1;
  1902                           	bsf	(73/8),(73)&7	;volatile
  1903  0247  1489               	line	257
  1904                           	
  1905                           l2247:	
  1906  0248                     ;ROK5ZAD3.c: 257:                 _delay((unsigned long)((2000)*(20000000/4000.0)));
  1907                           	opt asmopt_push
  1908                           opt asmopt_off
  1909                           movlw  51
  1910  0248  3033               	bcf	status, 5	;RP0=0, select bank0
  1911  0249  1283               	bcf	status, 6	;RP1=0, select bank0
  1912  024A  1303               movwf	((??_main+0)+0+2),f
  1913  024B  00C2               movlw	187
  1914  024C  30BB               movwf	((??_main+0)+0+1),f
  1915  024D  00C1               	movlw	223
  1916  024E  30DF               movwf	((??_main+0)+0),f
  1917  024F  00C0               	u2737:
  1918  0250                     decfsz	((??_main+0)+0),f
  1919  0250  0BC0               	goto	u2737
  1920  0251  2A50               	decfsz	((??_main+0)+0+1),f
  1921  0252  0BC1               	goto	u2737
  1922  0253  2A50               	decfsz	((??_main+0)+0+2),f
  1923  0254  0BC2               	goto	u2737
  1924  0255  2A50               opt asmopt_pop
  1925                           
  1926                           	line	258
  1927                           	
  1928                           l2249:	
  1929  0256                     ;ROK5ZAD3.c: 258:                 Lcd_Clear();
  1930                           	fcall	_Lcd_Clear
  1931  0256  120A  118A  2006  120A  118A  	line	261
  1932                           ;ROK5ZAD3.c: 261:                 break;
  1933                           	goto	l2327
  1934  025B  2C6D               	line	262
  1935                           ;ROK5ZAD3.c: 262:             case '2':
  1936                           	
  1937                           l172:	
  1938  025C                     	line	263
  1939                           	
  1940                           l2251:	
  1941  025C                     ;ROK5ZAD3.c: 263:                 printf("\r\rIzabrali ste opciju 2.");
  1942                           	movlw	low(((STR_11)|8000h))
  1943  025C  30F8               	movwf	(printf@f)
  1944  025D  00F2               	movlw	high(((STR_11)|8000h))
  1945  025E  3090               	movwf	((printf@f))+1
  1946  025F  00F3               	fcall	_printf
  1947  0260  120A  158A  236C  120A  118A  	line	264
  1948                           	
  1949                           l2253:	
  1950  0265                     ;ROK5ZAD3.c: 264:                 Lcd_Set_Cursor(1,1);
  1951                           	clrf	(Lcd_Set_Cursor@b)
  1952  0265  01F4               	incf	(Lcd_Set_Cursor@b),f
  1953  0266  0AF4               	movlw	low(01h)
  1954  0267  3001               	fcall	_Lcd_Set_Cursor
  1955  0268  120A  158A  2469  120A  118A  	line	265
  1956                           	
  1957                           l2255:	
  1958  026D                     ;ROK5ZAD3.c: 265:                 Lcd_Write_String("Brojanje 5 puta");
  1959                           	movlw	low(((STR_12)|8000h))
  1960  026D  303A               	movwf	(Lcd_Write_String@a)
  1961  026E  00F5               	movlw	high(((STR_12)|8000h))
  1962  026F  3091               	movwf	((Lcd_Write_String@a))+1
  1963  0270  00F6               	fcall	_Lcd_Write_String
  1964  0271  120A  158A  2425  120A  118A  	line	266
  1965                           ;ROK5ZAD3.c: 266:                 Lcd_Set_Cursor(2,1);
  1966                           	clrf	(Lcd_Set_Cursor@b)
  1967  0276  01F4               	incf	(Lcd_Set_Cursor@b),f
  1968  0277  0AF4               	movlw	low(02h)
  1969  0278  3002               	fcall	_Lcd_Set_Cursor
  1970  0279  120A  158A  2469  120A  118A  	line	267
  1971                           	
  1972                           l2257:	
  1973  027E                     ;ROK5ZAD3.c: 267:                 Lcd_Write_String("od 0 do 8:");
  1974                           	movlw	low(((STR_13)|8000h))
  1975  027E  3062               	movwf	(Lcd_Write_String@a)
  1976  027F  00F5               	movlw	high(((STR_13)|8000h))
  1977  0280  3091               	movwf	((Lcd_Write_String@a))+1
  1978  0281  00F6               	fcall	_Lcd_Write_String
  1979  0282  120A  158A  2425  120A  118A  	line	270
  1980                           	
  1981                           l2259:	
  1982  0287                     ;ROK5ZAD3.c: 270:                 for(int i=0;i<31;i++) {
  1983                           	bcf	status, 5	;RP0=0, select bank0
  1984  0287  1283               	bcf	status, 6	;RP1=0, select bank0
  1985  0288  1303               	clrf	(main@i)
  1986  0289  01E2               	clrf	(main@i+1)
  1987  028A  01E3               	
  1988                           l2261:	
  1989  028B                     	movf	(main@i+1),w
  1990  028B  0863               	xorlw	80h
  1991  028C  3A80               	movwf	btemp+1
  1992  028D  00FF               	movlw	(0)^80h
  1993  028E  3080               	subwf	btemp+1,w
  1994  028F  027F               	skipz
  1995  0290  1D03               	goto	u2695
  1996  0291  2A94               	movlw	01Fh
  1997  0292  301F               	subwf	(main@i),w
  1998  0293  0262               u2695:
  1999  0294                     
  2000                           	skipc
  2001  0294  1C03               	goto	u2691
  2002  0295  2A97               	goto	u2690
  2003  0296  2A98               u2691:
  2004  0297                     	goto	l2265
  2005  0297  2A9A               u2690:
  2006  0298                     	goto	l2277
  2007  0298  2AD4               	
  2008                           l2263:	
  2009  0299                     	goto	l2277
  2010  0299  2AD4               	
  2011                           l173:	
  2012  029A                     	line	271
  2013                           	
  2014                           l2265:	
  2015  029A                     ;ROK5ZAD3.c: 271:                     PORTB=DISPLEJ[broj];
  2016                           	bcf	status, 5	;RP0=0, select bank0
  2017  029A  1283               	bcf	status, 6	;RP1=0, select bank0
  2018  029B  1303               	movf	(main@broj),w
  2019  029C  0864               	addlw	low(main@DISPLEJ|((0x0)<<8))&0ffh
  2020  029D  3E44               	movwf	fsr0
  2021  029E  0084               	bcf	status, 7	;select IRP bank0
  2022  029F  1383               	movf	indf,w
  2023  02A0  0800               	movwf	(6)	;volatile
  2024  02A1  0086               	line	272
  2025                           	
  2026                           l2267:	
  2027  02A2                     ;ROK5ZAD3.c: 272:                     _delay((unsigned long)((250)*(20000000/4000.0)));

  2028                           	opt asmopt_push
  2029                           opt asmopt_off
  2030                           movlw  7
  2031  02A2  3007               	bcf	status, 5	;RP0=0, select bank0
  2032  02A3  1283               	bcf	status, 6	;RP1=0, select bank0
  2033  02A4  1303               movwf	((??_main+0)+0+2),f
  2034  02A5  00C2               movlw	88
  2035  02A6  3058               movwf	((??_main+0)+0+1),f
  2036  02A7  00C1               	movlw	89
  2037  02A8  3059               movwf	((??_main+0)+0),f
  2038  02A9  00C0               	u2747:
  2039  02AA                     decfsz	((??_main+0)+0),f
  2040  02AA  0BC0               	goto	u2747
  2041  02AB  2AAA               	decfsz	((??_main+0)+0+1),f
  2042  02AC  0BC1               	goto	u2747
  2043  02AD  2AAA               	decfsz	((??_main+0)+0+2),f
  2044  02AE  0BC2               	goto	u2747
  2045  02AF  2AAA               opt asmopt_pop
  2046                           
  2047                           	line	274
  2048                           	
  2049                           l2269:	
  2050  02B0                     ;ROK5ZAD3.c: 274:                     broj++;
  2051                           	movlw	low(01h)
  2052  02B0  3001               	bcf	status, 5	;RP0=0, select bank0
  2053  02B1  1283               	bcf	status, 6	;RP1=0, select bank0
  2054  02B2  1303               	movwf	(??_main+0)+0
  2055  02B3  00C0               	movf	(??_main+0)+0,w
  2056  02B4  0840               	addwf	(main@broj),f
  2057  02B5  07E4               	line	276
  2058                           	
  2059                           l2271:	
  2060  02B6                     ;ROK5ZAD3.c: 276:                     if(broj>8) broj=3;
  2061                           	movlw	low(09h)
  2062  02B6  3009               	subwf	(main@broj),w
  2063  02B7  0264               	skipc
  2064  02B8  1C03               	goto	u2701
  2065  02B9  2ABB               	goto	u2700
  2066  02BA  2ABC               u2701:
  2067  02BB                     	goto	l175
  2068  02BB  2AC0               u2700:
  2069  02BC                     	
  2070                           l2273:	
  2071  02BC                     	movlw	low(03h)
  2072  02BC  3003               	movwf	(??_main+0)+0
  2073  02BD  00C0               	movf	(??_main+0)+0,w
  2074  02BE  0840               	movwf	(main@broj)
  2075  02BF  00E4               	
  2076                           l175:	
  2077  02C0                     	line	277
  2078                           ;ROK5ZAD3.c: 277:                 }
  2079                           	movlw	01h
  2080  02C0  3001               	addwf	(main@i),f
  2081  02C1  07E2               	skipnc
  2082  02C2  1803               	incf	(main@i+1),f
  2083  02C3  0AE3               	movlw	0
  2084  02C4  3000               	addwf	(main@i+1),f
  2085  02C5  07E3               	
  2086                           l2275:	
  2087  02C6                     	movf	(main@i+1),w
  2088  02C6  0863               	xorlw	80h
  2089  02C7  3A80               	movwf	btemp+1
  2090  02C8  00FF               	movlw	(0)^80h
  2091  02C9  3080               	subwf	btemp+1,w
  2092  02CA  027F               	skipz
  2093  02CB  1D03               	goto	u2715
  2094  02CC  2ACF               	movlw	01Fh
  2095  02CD  301F               	subwf	(main@i),w
  2096  02CE  0262               u2715:
  2097  02CF                     
  2098                           	skipc
  2099  02CF  1C03               	goto	u2711
  2100  02D0  2AD2               	goto	u2710
  2101  02D1  2AD3               u2711:
  2102  02D2                     	goto	l2265
  2103  02D2  2A9A               u2710:
  2104  02D3                     	goto	l2277
  2105  02D3  2AD4               	
  2106                           l174:	
  2107  02D4                     	line	278
  2108                           	
  2109                           l2277:	
  2110  02D4                     ;ROK5ZAD3.c: 278:                 Lcd_Clear();
  2111                           	fcall	_Lcd_Clear
  2112  02D4  120A  118A  2006  120A  118A  	line	279
  2113                           ;ROK5ZAD3.c: 279:                 break;
  2114                           	goto	l2327
  2115  02D9  2C6D               	line	280
  2116                           ;ROK5ZAD3.c: 280:             case '3':
  2117                           	
  2118                           l176:	
  2119  02DA                     	line	281
  2120                           	
  2121                           l2279:	
  2122  02DA                     ;ROK5ZAD3.c: 281:                 printf("\r\rIzabrali ste opciju 3.");
  2123                           	movlw	low(((STR_14)|8000h))
  2124  02DA  3011               	movwf	(printf@f)
  2125  02DB  00F2               	movlw	high(((STR_14)|8000h))
  2126  02DC  3091               	movwf	((printf@f))+1
  2127  02DD  00F3               	fcall	_printf
  2128  02DE  120A  158A  236C  120A  118A  	line	282
  2129                           	
  2130                           l2281:	
  2131  02E3                     ;ROK5ZAD3.c: 282:                 adc = (ADC_Read(4));
  2132                           	movlw	low(04h)
  2133  02E3  3004               	fcall	_ADC_Read
  2134  02E4  120A  158A  23BE  120A  118A  	movf	(0+(?_ADC_Read)),w
  2135  02E9  0870               	bcf	status, 5	;RP0=0, select bank0
  2136  02EA  1283               	bcf	status, 6	;RP1=0, select bank0
  2137  02EB  1303               	movwf	((??_main+0)+0)
  2138  02EC  00C0               	movf	(1+(?_ADC_Read)),w
  2139  02ED  0871               	movwf	((??_main+0)+0+1)
  2140  02EE  00C1               	clrf	((??_main+0)+0+2)
  2141  02EF  01C2               	clrf	((??_main+0)+0+3)
  2142  02F0  01C3               	movf	3+(??_main+0)+0,w
  2143  02F1  0843               	movwf	(___xxtofl@val+3)
  2144  02F2  00F8               	movf	2+(??_main+0)+0,w
  2145  02F3  0842               	movwf	(___xxtofl@val+2)
  2146  02F4  00F7               	movf	1+(??_main+0)+0,w
  2147  02F5  0841               	movwf	(___xxtofl@val+1)
  2148  02F6  00F6               	movf	0+(??_main+0)+0,w
  2149  02F7  0840               	movwf	(___xxtofl@val)
  2150  02F8  00F5               
  2151                           	movlw	low(0)
  2152  02F9  3000               	fcall	___xxtofl
  2153  02FA  120A  118A  20AF  120A  118A  	movf	(3+(?___xxtofl)),w
  2154  02FF  0878               	bcf	status, 5	;RP0=0, select bank0
  2155  0300  1283               	bcf	status, 6	;RP1=0, select bank0
  2156  0301  1303               	movwf	(main@adc+3)
  2157  0302  00D1               	movf	(2+(?___xxtofl)),w
  2158  0303  0877               	movwf	(main@adc+2)
  2159  0304  00D0               	movf	(1+(?___xxtofl)),w
  2160  0305  0876               	movwf	(main@adc+1)
  2161  0306  00CF               	movf	(0+(?___xxtofl)),w
  2162  0307  0875               	movwf	(main@adc)
  2163  0308  00CE               
  2164                           	line	283
  2165                           	
  2166                           l2283:	
  2167  0309                     ;ROK5ZAD3.c: 283:                 volt = adc*4.88281;
  2168                           	movlw	0x40
  2169  0309  3040               	movwf	(___flmul@b+3)
  2170  030A  00A3               	movlw	0x9c
  2171  030B  309C               	movwf	(___flmul@b+2)
  2172  030C  00A2               	movlw	0x3f
  2173  030D  303F               	movwf	(___flmul@b+1)
  2174  030E  00A1               	movlw	0xfb
  2175  030F  30FB               	movwf	(___flmul@b)
  2176  0310  00A0               
  2177                           	movf	(main@adc+3),w
  2178  0311  0851               	movwf	(___flmul@a+3)
  2179  0312  00A7               	movf	(main@adc+2),w
  2180  0313  0850               	movwf	(___flmul@a+2)
  2181  0314  00A6               	movf	(main@adc+1),w
  2182  0315  084F               	movwf	(___flmul@a+1)
  2183  0316  00A5               	movf	(main@adc),w
  2184  0317  084E               	movwf	(___flmul@a)
  2185  0318  00A4               
  2186                           	fcall	___flmul
  2187  0319  120A  118A  2479  120A  118A  	bcf	status, 5	;RP0=0, select bank0
  2188  031E  1283               	bcf	status, 6	;RP1=0, select bank0
  2189  031F  1303               	movf	(3+(?___flmul)),w
  2190  0320  0823               	movwf	(main@volt+3)
  2191  0321  00D5               	movf	(2+(?___flmul)),w
  2192  0322  0822               	movwf	(main@volt+2)
  2193  0323  00D4               	movf	(1+(?___flmul)),w
  2194  0324  0821               	movwf	(main@volt+1)
  2195  0325  00D3               	movf	(0+(?___flmul)),w
  2196  0326  0820               	movwf	(main@volt)
  2197  0327  00D2               
  2198                           	line	284
  2199                           	
  2200                           l2285:	
  2201  0328                     ;ROK5ZAD3.c: 284:                 temp=volt/10.0;
  2202                           	movlw	0x41
  2203  0328  3041               	movwf	(___fldiv@a+3)
  2204  0329  00F3               	movlw	0x20
  2205  032A  3020               	movwf	(___fldiv@a+2)
  2206  032B  00F2               	movlw	0x0
  2207  032C  3000               	movwf	(___fldiv@a+1)
  2208  032D  00F1               	movlw	0x0
  2209  032E  3000               	movwf	(___fldiv@a)
  2210  032F  00F0               
  2211                           	movf	(main@volt+3),w
  2212  0330  0855               	movwf	(___fldiv@b+3)
  2213  0331  00F7               	movf	(main@volt+2),w
  2214  0332  0854               	movwf	(___fldiv@b+2)
  2215  0333  00F6               	movf	(main@volt+1),w
  2216  0334  0853               	movwf	(___fldiv@b+1)
  2217  0335  00F5               	movf	(main@volt),w
  2218  0336  0852               	movwf	(___fldiv@b)
  2219  0337  00F4               
  2220                           	fcall	___fldiv
  2221  0338  120A  158A  25F1  120A  118A  	movf	(3+(?___fldiv)),w
  2222  033D  0873               	bcf	status, 5	;RP0=0, select bank0
  2223  033E  1283               	bcf	status, 6	;RP1=0, select bank0
  2224  033F  1303               	movwf	(main@temp+3)
  2225  0340  00D9               	movf	(2+(?___fldiv)),w
  2226  0341  0872               	movwf	(main@temp+2)
  2227  0342  00D8               	movf	(1+(?___fldiv)),w
  2228  0343  0871               	movwf	(main@temp+1)
  2229  0344  00D7               	movf	(0+(?___fldiv)),w
  2230  0345  0870               	movwf	(main@temp)
  2231  0346  00D6               
  2232                           	line	285
  2233                           	
  2234                           l2287:	
  2235  0347                     ;ROK5ZAD3.c: 285:                 temp1 = temp*100;
  2236                           	movf	(main@temp+3),w
  2237  0347  0859               	movwf	(___flmul@a+3)
  2238  0348  00A7               	movf	(main@temp+2),w
  2239  0349  0858               	movwf	(___flmul@a+2)
  2240  034A  00A6               	movf	(main@temp+1),w
  2241  034B  0857               	movwf	(___flmul@a+1)
  2242  034C  00A5               	movf	(main@temp),w
  2243  034D  0856               	movwf	(___flmul@a)
  2244  034E  00A4               
  2245                           	movlw	0x42
  2246  034F  3042               	movwf	(___flmul@b+3)
  2247  0350  00A3               	movlw	0xc8
  2248  0351  30C8               	movwf	(___flmul@b+2)
  2249  0352  00A2               	movlw	0x0
  2250  0353  3000               	movwf	(___flmul@b+1)
  2251  0354  00A1               	movlw	0x0
  2252  0355  3000               	movwf	(___flmul@b)
  2253  0356  00A0               
  2254                           	fcall	___flmul
  2255  0357  120A  118A  2479  120A  118A  	bcf	status, 5	;RP0=0, select bank0
  2256  035C  1283               	bcf	status, 6	;RP1=0, select bank0
  2257  035D  1303               	movf	(3+(?___flmul)),w
  2258  035E  0823               	movwf	(___fltol@f1+3)
  2259  035F  00B8               	movf	(2+(?___flmul)),w
  2260  0360  0822               	movwf	(___fltol@f1+2)
  2261  0361  00B7               	movf	(1+(?___flmul)),w
  2262  0362  0821               	movwf	(___fltol@f1+1)
  2263  0363  00B6               	movf	(0+(?___flmul)),w
  2264  0364  0820               	movwf	(___fltol@f1)
  2265  0365  00B5               
  2266                           	fcall	___fltol
  2267  0366  120A  118A  2013  120A  118A  	bcf	status, 5	;RP0=0, select bank0
  2268  036B  1283               	bcf	status, 6	;RP1=0, select bank0
  2269  036C  1303               	movf	(1+(?___fltol)),w
  2270  036D  0836               	movwf	(main@temp1+1)
  2271  036E  00E8               	movf	(0+(?___fltol)),w
  2272  036F  0835               	movwf	(main@temp1)
  2273  0370  00E7               	line	287
  2274                           	
  2275                           l2289:	
  2276  0371                     ;ROK5ZAD3.c: 287:                 c1 = (temp1/1000)%10;
  2277                           	movlw	0Ah
  2278  0371  300A               	movwf	(___awmod@divisor)
  2279  0372  00F9               	movlw	0
  2280  0373  3000               	movwf	((___awmod@divisor))+1
  2281  0374  00FA               	movlw	0E8h
  2282  0375  30E8               	movwf	(___awdiv@divisor)
  2283  0376  00F0               	movlw	03h
  2284  0377  3003               	movwf	((___awdiv@divisor))+1
  2285  0378  00F1               	movf	(main@temp1+1),w
  2286  0379  0868               	movwf	(___awdiv@dividend+1)
  2287  037A  00F3               	movf	(main@temp1),w
  2288  037B  0867               	movwf	(___awdiv@dividend)
  2289  037C  00F2               	fcall	___awdiv
  2290  037D  120A  158A  2580  120A  118A  	movf	(1+(?___awdiv)),w
  2291  0382  0871               	movwf	(___awmod@dividend+1)
  2292  0383  00FC               	movf	(0+(?___awdiv)),w
  2293  0384  0870               	movwf	(___awmod@dividend)
  2294  0385  00FB               	fcall	___awmod
  2295  0386  120A  158A  251B  120A  118A  	movf	(1+(?___awmod)),w
  2296  038B  087A               	bcf	status, 5	;RP0=0, select bank0
  2297  038C  1283               	bcf	status, 6	;RP1=0, select bank0
  2298  038D  1303               	movwf	(main@c1+1)
  2299  038E  00DB               	movf	(0+(?___awmod)),w
  2300  038F  0879               	movwf	(main@c1)
  2301  0390  00DA               	line	288
  2302                           	
  2303                           l2291:	
  2304  0391                     ;ROK5ZAD3.c: 288:                 c2 = (temp1/100)%10;
  2305                           	movlw	0Ah
  2306  0391  300A               	movwf	(___awmod@divisor)
  2307  0392  00F9               	movlw	0
  2308  0393  3000               	movwf	((___awmod@divisor))+1
  2309  0394  00FA               	movlw	064h
  2310  0395  3064               	movwf	(___awdiv@divisor)
  2311  0396  00F0               	movlw	0
  2312  0397  3000               	movwf	((___awdiv@divisor))+1
  2313  0398  00F1               	movf	(main@temp1+1),w
  2314  0399  0868               	movwf	(___awdiv@dividend+1)
  2315  039A  00F3               	movf	(main@temp1),w
  2316  039B  0867               	movwf	(___awdiv@dividend)
  2317  039C  00F2               	fcall	___awdiv
  2318  039D  120A  158A  2580  120A  118A  	movf	(1+(?___awdiv)),w
  2319  03A2  0871               	movwf	(___awmod@dividend+1)
  2320  03A3  00FC               	movf	(0+(?___awdiv)),w
  2321  03A4  0870               	movwf	(___awmod@dividend)
  2322  03A5  00FB               	fcall	___awmod
  2323  03A6  120A  158A  251B  120A  118A  	movf	(1+(?___awmod)),w
  2324  03AB  087A               	bcf	status, 5	;RP0=0, select bank0
  2325  03AC  1283               	bcf	status, 6	;RP1=0, select bank0
  2326  03AD  1303               	movwf	(main@c2+1)
  2327  03AE  00DD               	movf	(0+(?___awmod)),w
  2328  03AF  0879               	movwf	(main@c2)
  2329  03B0  00DC               	line	289
  2330                           	
  2331                           l2293:	
  2332  03B1                     ;ROK5ZAD3.c: 289:                 c3 = (temp1/10)%10;
  2333                           	movlw	0Ah
  2334  03B1  300A               	movwf	(___awmod@divisor)
  2335  03B2  00F9               	movlw	0
  2336  03B3  3000               	movwf	((___awmod@divisor))+1
  2337  03B4  00FA               	movlw	0Ah
  2338  03B5  300A               	movwf	(___awdiv@divisor)
  2339  03B6  00F0               	movlw	0
  2340  03B7  3000               	movwf	((___awdiv@divisor))+1
  2341  03B8  00F1               	movf	(main@temp1+1),w
  2342  03B9  0868               	movwf	(___awdiv@dividend+1)
  2343  03BA  00F3               	movf	(main@temp1),w
  2344  03BB  0867               	movwf	(___awdiv@dividend)
  2345  03BC  00F2               	fcall	___awdiv
  2346  03BD  120A  158A  2580  120A  118A  	movf	(1+(?___awdiv)),w
  2347  03C2  0871               	movwf	(___awmod@dividend+1)
  2348  03C3  00FC               	movf	(0+(?___awdiv)),w
  2349  03C4  0870               	movwf	(___awmod@dividend)
  2350  03C5  00FB               	fcall	___awmod
  2351  03C6  120A  158A  251B  120A  118A  	movf	(1+(?___awmod)),w
  2352  03CB  087A               	bcf	status, 5	;RP0=0, select bank0
  2353  03CC  1283               	bcf	status, 6	;RP1=0, select bank0
  2354  03CD  1303               	movwf	(main@c3+1)
  2355  03CE  00DF               	movf	(0+(?___awmod)),w
  2356  03CF  0879               	movwf	(main@c3)
  2357  03D0  00DE               	line	290
  2358                           	
  2359                           l2295:	
  2360  03D1                     ;ROK5ZAD3.c: 290:                 c4 = (temp1/1)%10;
  2361                           	movlw	0Ah
  2362  03D1  300A               	movwf	(___awmod@divisor)
  2363  03D2  00F9               	movlw	0
  2364  03D3  3000               	movwf	((___awmod@divisor))+1
  2365  03D4  00FA               	movf	(main@temp1+1),w
  2366  03D5  0868               	movwf	(___awmod@dividend+1)
  2367  03D6  00FC               	movf	(main@temp1),w
  2368  03D7  0867               	movwf	(___awmod@dividend)
  2369  03D8  00FB               	fcall	___awmod
  2370  03D9  120A  158A  251B  120A  118A  	movf	(1+(?___awmod)),w
  2371  03DE  087A               	bcf	status, 5	;RP0=0, select bank0
  2372  03DF  1283               	bcf	status, 6	;RP1=0, select bank0
  2373  03E0  1303               	movwf	(main@c4+1)
  2374  03E1  00E1               	movf	(0+(?___awmod)),w
  2375  03E2  0879               	movwf	(main@c4)
  2376  03E3  00E0               	line	292
  2377                           	
  2378                           l2297:	
  2379  03E4                     ;ROK5ZAD3.c: 292:                 Lcd_Clear();
  2380                           	fcall	_Lcd_Clear
  2381  03E4  120A  118A  2006  120A  118A  	line	293
  2382                           	
  2383                           l2299:	
  2384  03E9                     ;ROK5ZAD3.c: 293:                 Lcd_Set_Cursor(1,3);
  2385                           	movlw	low(03h)
  2386  03E9  3003               	bcf	status, 5	;RP0=0, select bank0
  2387  03EA  1283               	bcf	status, 6	;RP1=0, select bank0
  2388  03EB  1303               	movwf	(??_main+0)+0
  2389  03EC  00C0               	movf	(??_main+0)+0,w
  2390  03ED  0840               	movwf	(Lcd_Set_Cursor@b)
  2391  03EE  00F4               	movlw	low(01h)
  2392  03EF  3001               	fcall	_Lcd_Set_Cursor
  2393  03F0  120A  158A  2469  120A  118A  	line	294
  2394                           	
  2395                           l2301:	
  2396  03F5                     ;ROK5ZAD3.c: 294:                 Lcd_Write_String("Temperatura");
  2397                           	movlw	low(((STR_15)|8000h))
  2398  03F5  3056               	movwf	(Lcd_Write_String@a)
  2399  03F6  00F5               	movlw	high(((STR_15)|8000h))
  2400  03F7  3091               	movwf	((Lcd_Write_String@a))+1
  2401  03F8  00F6               	fcall	_Lcd_Write_String
  2402  03F9  120A  158A  2425  120A  118A  	line	295
  2403                           	
  2404                           l2303:	
  2405  03FE                     ;ROK5ZAD3.c: 295:                 Lcd_Set_Cursor(2,5);
  2406                           	movlw	low(05h)
  2407  03FE  3005               	bcf	status, 5	;RP0=0, select bank0
  2408  03FF  1283               	bcf	status, 6	;RP1=0, select bank0
  2409  0400  1303               	movwf	(??_main+0)+0
  2410  0401  00C0               	movf	(??_main+0)+0,w
  2411  0402  0840               	movwf	(Lcd_Set_Cursor@b)
  2412  0403  00F4               	movlw	low(02h)
  2413  0404  3002               	fcall	_Lcd_Set_Cursor
  2414  0405  120A  158A  2469  120A  118A  	line	296
  2415                           	
  2416                           l2305:	
  2417  040A                     ;ROK5ZAD3.c: 296:                 Lcd_Write_Char(c1+'0');
  2418                           	bcf	status, 5	;RP0=0, select bank0
  2419  040A  1283               	bcf	status, 6	;RP1=0, select bank0
  2420  040B  1303               	movf	(main@c1),w
  2421  040C  085A               	addlw	030h
  2422  040D  3E30               	fcall	_Lcd_Write_Char
  2423  040E  120A  158A  23EC  120A  118A  	line	297
  2424                           	
  2425                           l2307:	
  2426  0413                     ;ROK5ZAD3.c: 297:                 Lcd_Write_Char(c2+'0');
  2427                           	bcf	status, 5	;RP0=0, select bank0
  2428  0413  1283               	bcf	status, 6	;RP1=0, select bank0
  2429  0414  1303               	movf	(main@c2),w
  2430  0415  085C               	addlw	030h
  2431  0416  3E30               	fcall	_Lcd_Write_Char
  2432  0417  120A  158A  23EC  120A  118A  	line	298
  2433                           	
  2434                           l2309:	
  2435  041C                     ;ROK5ZAD3.c: 298:                 Lcd_Write_String(".");
  2436                           	movlw	low(((STR_16)|8000h))
  2437  041C  30F6               	movwf	(Lcd_Write_String@a)
  2438  041D  00F5               	movlw	high(((STR_16)|8000h))
  2439  041E  3090               	movwf	((Lcd_Write_String@a))+1
  2440  041F  00F6               	fcall	_Lcd_Write_String
  2441  0420  120A  158A  2425  120A  118A  	line	299
  2442                           	
  2443                           l2311:	
  2444  0425                     ;ROK5ZAD3.c: 299:                 Lcd_Write_Char(c3+'0');
  2445                           	bcf	status, 5	;RP0=0, select bank0
  2446  0425  1283               	bcf	status, 6	;RP1=0, select bank0
  2447  0426  1303               	movf	(main@c3),w
  2448  0427  085E               	addlw	030h
  2449  0428  3E30               	fcall	_Lcd_Write_Char
  2450  0429  120A  158A  23EC  120A  118A  	line	300
  2451                           	
  2452                           l2313:	
  2453  042E                     ;ROK5ZAD3.c: 300:                 Lcd_Write_Char(c4+'0');
  2454                           	bcf	status, 5	;RP0=0, select bank0
  2455  042E  1283               	bcf	status, 6	;RP1=0, select bank0
  2456  042F  1303               	movf	(main@c4),w
  2457  0430  0860               	addlw	030h
  2458  0431  3E30               	fcall	_Lcd_Write_Char
  2459  0432  120A  158A  23EC  120A  118A  	line	301
  2460                           	
  2461                           l2315:	
  2462  0437                     ;ROK5ZAD3.c: 301:                 Lcd_Write_Char(0xDF);
  2463                           	movlw	low(0DFh)
  2464  0437  30DF               	fcall	_Lcd_Write_Char
  2465  0438  120A  158A  23EC  120A  118A  	line	302
  2466                           	
  2467                           l2317:	
  2468  043D                     ;ROK5ZAD3.c: 302:                 Lcd_Write_String("C");
  2469                           	movlw	low(((STR_17)|8000h))
  2470  043D  306D               	movwf	(Lcd_Write_String@a)
  2471  043E  00F5               	movlw	high(((STR_17)|8000h))
  2472  043F  3091               	movwf	((Lcd_Write_String@a))+1
  2473  0440  00F6               	fcall	_Lcd_Write_String
  2474  0441  120A  158A  2425  120A  118A  	line	303
  2475                           	
  2476                           l2319:	
  2477  0446                     ;ROK5ZAD3.c: 303:                 _delay((unsigned long)((3000)*(20000000/4000.0)));
  2478                           	opt asmopt_push
  2479                           opt asmopt_off
  2480                           movlw  77
  2481  0446  304D               	bcf	status, 5	;RP0=0, select bank0
  2482  0447  1283               	bcf	status, 6	;RP1=0, select bank0
  2483  0448  1303               movwf	((??_main+0)+0+2),f
  2484  0449  00C2               movlw	25
  2485  044A  3019               movwf	((??_main+0)+0+1),f
  2486  044B  00C1               	movlw	79
  2487  044C  304F               movwf	((??_main+0)+0),f
  2488  044D  00C0               	u2757:
  2489  044E                     decfsz	((??_main+0)+0),f
  2490  044E  0BC0               	goto	u2757
  2491  044F  2C4E               	decfsz	((??_main+0)+0+1),f
  2492  0450  0BC1               	goto	u2757
  2493  0451  2C4E               	decfsz	((??_main+0)+0+2),f
  2494  0452  0BC2               	goto	u2757
  2495  0453  2C4E               opt asmopt_pop
  2496                           
  2497                           	line	304
  2498                           	
  2499                           l2321:	
  2500  0454                     ;ROK5ZAD3.c: 304:                 Lcd_Clear();
  2501                           	fcall	_Lcd_Clear
  2502  0454  120A  118A  2006  120A  118A  	line	305
  2503                           ;ROK5ZAD3.c: 305:                 break;
  2504                           	goto	l2327
  2505  0459  2C6D               	line	306
  2506                           	
  2507                           l2323:	
  2508  045A                     ;ROK5ZAD3.c: 306:         }
  2509                           	goto	l2327
  2510  045A  2C6D               	
  2511                           l169:	
  2512  045B                     	
  2513                           l2325:	
  2514  045B                     	; Switch on 2 bytes has been partitioned into a top level switch of size 1, and 1 sub-s
                                 witches
  2515                           ; Switch size 1, requested type "space"
  2516                           ; Number of cases is 1, Range of values is 0 to 0
  2517                           ; switch strategies available:
  2518                           ; Name         Instructions Cycles
  2519                           ; simple_byte            4     3 (average)
  2520                           ; direct_byte           11     8 (fixed)
  2521                           ; jumptable            260     6 (fixed)
  2522                           ;	Chosen strategy is simple_byte
  2523                           
  2524                           	bcf	status, 5	;RP0=0, select bank0
  2525  045B  1283               	bcf	status, 6	;RP1=0, select bank0
  2526  045C  1303               	movf (main@opcija+1),w
  2527  045D  0866               	opt asmopt_push
  2528                           	opt asmopt_off
  2529                           	xorlw	0^0	; case 0
  2530  045E  3A00               	skipnz
  2531  045F  1903               	goto	l2365
  2532  0460  2C62               	goto	l2327
  2533  0461  2C6D               	opt asmopt_pop
  2534                           	
  2535                           l2365:	
  2536  0462                     ; Switch size 1, requested type "space"
  2537                           ; Number of cases is 3, Range of values is 49 to 51
  2538                           ; switch strategies available:
  2539                           ; Name         Instructions Cycles
  2540                           ; simple_byte           10     6 (average)
  2541                           ; direct_byte           20    11 (fixed)
  2542                           ; jumptable            263     9 (fixed)
  2543                           ;	Chosen strategy is simple_byte
  2544                           
  2545                           	movf (main@opcija),w
  2546  0462  0865               	opt asmopt_push
  2547                           	opt asmopt_off
  2548                           	xorlw	49^0	; case 49
  2549  0463  3A31               	skipnz
  2550  0464  1903               	goto	l2219
  2551  0465  2A11               	xorlw	50^49	; case 50
  2552  0466  3A03               	skipnz
  2553  0467  1903               	goto	l2251
  2554  0468  2A5C               	xorlw	51^50	; case 51
  2555  0469  3A01               	skipnz
  2556  046A  1903               	goto	l2279
  2557  046B  2ADA               	goto	l2327
  2558  046C  2C6D               	opt asmopt_pop
  2559                           
  2560                           	
  2561                           l171:	
  2562  046D                     	line	307
  2563                           	
  2564                           l2327:	
  2565  046D                     ;ROK5ZAD3.c: 307:     }while(opcija!=0);
  2566                           	bcf	status, 5	;RP0=0, select bank0
  2567  046D  1283               	bcf	status, 6	;RP1=0, select bank0
  2568  046E  1303               	movf	((main@opcija)),w
  2569  046F  0865               iorwf	((main@opcija+1)),w
  2570  0470  0466               	btfss	status,2
  2571  0471  1D03               	goto	u2721
  2572  0472  2C74               	goto	u2720
  2573  0473  2C75               u2721:
  2574  0474                     	goto	l2201
  2575  0474  29BE               u2720:
  2576  0475                     	goto	l178
  2577  0475  2C76               	
  2578                           l177:	
  2579  0476                     	line	308
  2580                           	
  2581                           l178:	
  2582  0476                     	global	start
  2583                           	ljmp	start
  2584  0476  120A  118A  2800   	opt stack 0
  2585                           GLOBAL	__end_of_main
  2586                           	__end_of_main:
  2587  0479                     	signat	_main,89
  2588                           	global	_printf
  2589                           
  2590 ;; *************** function _printf *****************
  2591 ;; Defined at:
  2592 ;;		line 472 in file "C:\Program Files (x86)\Microchip\xc8\v2.00\pic\sources\c90\common\doprnt.c"
  2593 ;; Parameters:    Size  Location     Type
  2594 ;;  f               2    2[COMMON] PTR const unsigned char 
  2595 ;;		 -> STR_14(25), STR_11(25), STR_8(25), STR_7(3), 
  2596 ;;		 -> STR_6(26), STR_5(27), STR_4(33), STR_3(44), 
  2597 ;;		 -> STR_2(51), STR_1(42), 
  2598 ;; Auto vars:     Size  Location     Type
  2599 ;;  tmpval          4    0        struct .
  2600 ;;  cp              2    0        PTR const unsigned char 
  2601 ;;  len             2    0        unsigned int 
  2602 ;;  val             2    0        unsigned int 
  2603 ;;  c               1    8[COMMON] unsigned char 
  2604 ;;  ap              1    7[COMMON] PTR void [1]
  2605 ;;		 -> ?_printf(2), 
  2606 ;;  flag            1    0        unsigned char 
  2607 ;;  prec            1    0        char 
  2608 ;; Return value:  Size  Location     Type
  2609 ;;                  2    2[COMMON] int 
  2610 ;; Registers used:
  2611 ;;		wreg, fsr0l, fsr0h, status,2, status,0, btemp+1, pclath, cstack
  2612 ;; Tracked objects:
  2613 ;;		On entry : 0/0
  2614 ;;		On exit  : 0/0
  2615 ;;		Unchanged: 0/0
  2616 ;; Data sizes:     COMMON   BANK0   BANK1   BANK3   BANK2
  2617 ;;      Params:         2       0       0       0       0
  2618 ;;      Locals:         2       0       0       0       0
  2619 ;;      Temps:          3       0       0       0       0
  2620 ;;      Totals:         7       0       0       0       0
  2621 ;;Total ram usage:        7 bytes
  2622 ;; Hardware stack levels used:    1
  2623 ;; Hardware stack levels required when called:    2
  2624 ;; This function calls:
  2625 ;;		_putch
  2626 ;; This function is called by:
  2627 ;;		_main
  2628 ;; This function uses a non-reentrant model
  2629 ;;
  2630                           psect	text1,local,class=CODE,delta=2,merge=1,group=0
  2631                           	file	"C:\Program Files (x86)\Microchip\xc8\v2.00\pic\sources\c90\common\doprnt.c"
  2632                           	line	472
  2633                           global __ptext1
  2634                           __ptext1:	;psect for function _printf
  2635  0B6C                     psect	text1
  2636                           	file	"C:\Program Files (x86)\Microchip\xc8\v2.00\pic\sources\c90\common\doprnt.c"
  2637                           	line	472
  2638                           	global	__size_of_printf
  2639                           	__size_of_printf	equ	__end_of_printf-_printf
  2640  0028                     	
  2641                           _printf:	
  2642  0B6C                     ;incstack = 0
  2643                           	opt	stack 5
  2644                           ; Regs used in _printf: [wreg-fsr0h+status,2+status,0+btemp+1+pclath+cstack]
  2645                           	line	545
  2646                           	
  2647                           l1701:	
  2648  0B6C                     ;C:\Program Files (x86)\Microchip\xc8\v2.00\pic\sources\c90\common\doprnt.c: 472: printf
                                 (const char * f, ...);C:\Program Files (x86)\Microchip\xc8\v2.00\pic\sources\c90\common\
                                 doprnt.c: 473: {;C:\Program Files (x86)\Microchip\xc8\v2.00\pic\sources\c90\common\doprn
                                 t.c: 474:  va_list ap;;C:\Program Files (x86)\Microchip\xc8\v2.00\pic\sources\c90\common
                                 \doprnt.c: 507:  char c;;C:\Program Files (x86)\Microchip\xc8\v2.00\pic\sources\c90\comm
                                 on\doprnt.c: 516:  signed char prec;;C:\Program Files (x86)\Microchip\xc8\v2.00\pic\sour
                                 ces\c90\common\doprnt.c: 520:  unsigned char flag;
  2649                           	movlw	(low(?_printf|((0x00)<<8)+02h))&0ffh
  2650  0B6C  3074               	movwf	(??_printf+0)+0
  2651  0B6D  00F4               	movf	(??_printf+0)+0,w
  2652  0B6E  0874               	movwf	(printf@ap)
  2653  0B6F  00F7               	line	548
  2654                           ;C:\Program Files (x86)\Microchip\xc8\v2.00\pic\sources\c90\common\doprnt.c: 548:  while
                                 ((c = *f++)) {
  2655                           	goto	l1705
  2656  0B70  2B78               	
  2657                           l268:	
  2658  0B71                     	line	553
  2659                           	
  2660                           l1703:	
  2661  0B71                     ;C:\Program Files (x86)\Microchip\xc8\v2.00\pic\sources\c90\common\doprnt.c: 552:   {;C:
                                 \Program Files (x86)\Microchip\xc8\v2.00\pic\sources\c90\common\doprnt.c: 553:    (putch
                                 (c) );
  2662                           	movf	(printf@c),w
  2663  0B71  0878               	fcall	_putch
  2664  0B72  120A  158A  22CB  120A  158A  	line	554
  2665                           ;C:\Program Files (x86)\Microchip\xc8\v2.00\pic\sources\c90\common\doprnt.c: 554:    con
                                 tinue;
  2666                           	goto	l1705
  2667  0B77  2B78               	line	1552
  2668                           ;C:\Program Files (x86)\Microchip\xc8\v2.00\pic\sources\c90\common\doprnt.c: 555:   };C:
                                 \Program Files (x86)\Microchip\xc8\v2.00\pic\sources\c90\common\doprnt.c: 1441:   {;C:\P
                                 rogram Files (x86)\Microchip\xc8\v2.00\pic\sources\c90\common\doprnt.c: 1488:   };C:\Pro
                                 gram Files (x86)\Microchip\xc8\v2.00\pic\sources\c90\common\doprnt.c: 1552:  }
  2669                           	
  2670                           l267:	
  2671  0B78                     	line	548
  2672                           	
  2673                           l1705:	
  2674  0B78                     ;C:\Program Files (x86)\Microchip\xc8\v2.00\pic\sources\c90\common\doprnt.c: 548:  while
                                 ((c = *f++)) {
  2675                           	movf	(printf@f+1),w
  2676  0B78  0873               	movwf	(??_printf+0)+0+1
  2677  0B79  00F5               	movf	(printf@f),w
  2678  0B7A  0872               	movwf	(??_printf+0)+0
  2679  0B7B  00F4               	incf	(printf@f),f
  2680  0B7C  0AF2               	skipnz
  2681  0B7D  1903               	incf	(printf@f+1),f
  2682  0B7E  0AF3               	movf	1+(??_printf+0)+0,w
  2683  0B7F  0875               	bcf	status, 5	;RP0=0, select bank0
  2684  0B80  1283               	bcf	status, 6	;RP1=0, select bank0
  2685  0B81  1303               	movwf	btemp+1
  2686  0B82  00FF               	movf	0+(??_printf+0)+0,w
  2687  0B83  0874               	movwf	fsr0
  2688  0B84  0084               	fcall	stringtab
  2689  0B85  120A  158A  2000  120A  158A  	movwf	(??_printf+2)+0
  2690  0B8A  00F6               	movf	(??_printf+2)+0,w
  2691  0B8B  0876               	movwf	(printf@c)
  2692  0B8C  00F8               	movf	(((printf@c))),w
  2693  0B8D  0878               	btfss	status,2
  2694  0B8E  1D03               	goto	u1571
  2695  0B8F  2B91               	goto	u1570
  2696  0B90  2B92               u1571:
  2697  0B91                     	goto	l1703
  2698  0B91  2B71               u1570:
  2699  0B92                     	goto	l270
  2700  0B92  2B93               	
  2701                           l269:	
  2702  0B93                     	line	1560
  2703                           ;C:\Program Files (x86)\Microchip\xc8\v2.00\pic\sources\c90\common\doprnt.c: 1559:  retu
                                 rn 0;;	Return value of _printf is never used
  2704                           	
  2705                           l270:	
  2706  0B93                     	return
  2707  0B93  0008               	opt stack 0
  2708                           GLOBAL	__end_of_printf
  2709                           	__end_of_printf:
  2710  0B94                     	signat	_printf,602
  2711                           	global	_putch
  2712                           
  2713 ;; *************** function _putch *****************
  2714 ;; Defined at:
  2715 ;;		line 169 in file "ROK5ZAD3.c"
  2716 ;; Parameters:    Size  Location     Type
  2717 ;;  a               1    wreg     unsigned char 
  2718 ;; Auto vars:     Size  Location     Type
  2719 ;;  a               1    1[COMMON] unsigned char 
  2720 ;; Return value:  Size  Location     Type
  2721 ;;                  1    wreg      void 
  2722 ;; Registers used:
  2723 ;;		wreg, status,2, status,0, pclath, cstack
  2724 ;; Tracked objects:
  2725 ;;		On entry : 0/0
  2726 ;;		On exit  : 0/0
  2727 ;;		Unchanged: 0/0
  2728 ;; Data sizes:     COMMON   BANK0   BANK1   BANK3   BANK2
  2729 ;;      Params:         0       0       0       0       0
  2730 ;;      Locals:         1       0       0       0       0
  2731 ;;      Temps:          0       0       0       0       0
  2732 ;;      Totals:         1       0       0       0       0
  2733 ;;Total ram usage:        1 bytes
  2734 ;; Hardware stack levels used:    1
  2735 ;; Hardware stack levels required when called:    1
  2736 ;; This function calls:
  2737 ;;		_UART_Send_Char
  2738 ;; This function is called by:
  2739 ;;		_printf
  2740 ;; This function uses a non-reentrant model
  2741 ;;
  2742                           psect	text2,local,class=CODE,delta=2,merge=1,group=0
  2743                           	file	"ROK5ZAD3.c"
  2744                           	line	169
  2745                           global __ptext2
  2746                           __ptext2:	;psect for function _putch
  2747  0ACB                     psect	text2
  2748                           	file	"ROK5ZAD3.c"
  2749                           	line	169
  2750                           	global	__size_of_putch
  2751                           	__size_of_putch	equ	__end_of_putch-_putch
  2752  0008                     	
  2753                           _putch:	
  2754  0ACB                     ;incstack = 0
  2755                           	opt	stack 5
  2756                           ; Regs used in _putch: [wreg+status,2+status,0+pclath+cstack]
  2757                           ;putch@a stored from wreg
  2758                           	movwf	(putch@a)
  2759  0ACB  00F1               	line	170
  2760                           	
  2761                           l1607:	
  2762  0ACC                     ;ROK5ZAD3.c: 170:     UART_Send_Char(a);
  2763                           	movf	(putch@a),w
  2764  0ACC  0871               	fcall	_UART_Send_Char
  2765  0ACD  120A  158A  22E6  120A  158A  	line	171
  2766                           	
  2767                           l152:	
  2768  0AD2                     	return
  2769  0AD2  0008               	opt stack 0
  2770                           GLOBAL	__end_of_putch
  2771                           	__end_of_putch:
  2772  0AD3                     	signat	_putch,4217
  2773                           	global	_UART_Send_Char
  2774                           
  2775 ;; *************** function _UART_Send_Char *****************
  2776 ;; Defined at:
  2777 ;;		line 155 in file "ROK5ZAD3.c"
  2778 ;; Parameters:    Size  Location     Type
  2779 ;;  a               1    wreg     unsigned char 
  2780 ;; Auto vars:     Size  Location     Type
  2781 ;;  a               1    0[COMMON] unsigned char 
  2782 ;; Return value:  Size  Location     Type
  2783 ;;                  1    wreg      void 
  2784 ;; Registers used:
  2785 ;;		wreg
  2786 ;; Tracked objects:
  2787 ;;		On entry : 0/0
  2788 ;;		On exit  : 0/0
  2789 ;;		Unchanged: 0/0
  2790 ;; Data sizes:     COMMON   BANK0   BANK1   BANK3   BANK2
  2791 ;;      Params:         0       0       0       0       0
  2792 ;;      Locals:         1       0       0       0       0
  2793 ;;      Temps:          0       0       0       0       0
  2794 ;;      Totals:         1       0       0       0       0
  2795 ;;Total ram usage:        1 bytes
  2796 ;; Hardware stack levels used:    1
  2797 ;; This function calls:
  2798 ;;		Nothing
  2799 ;; This function is called by:
  2800 ;;		_putch
  2801 ;;		_main
  2802 ;; This function uses a non-reentrant model
  2803 ;;
  2804                           psect	text3,local,class=CODE,delta=2,merge=1,group=0
  2805                           	line	155
  2806                           global __ptext3
  2807                           __ptext3:	;psect for function _UART_Send_Char
  2808  0AE6                     psect	text3
  2809                           	file	"ROK5ZAD3.c"
  2810                           	line	155
  2811                           	global	__size_of_UART_Send_Char
  2812                           	__size_of_UART_Send_Char	equ	__end_of_UART_Send_Char-_UART_Send_Char
  2813  000C                     	
  2814                           _UART_Send_Char:	
  2815  0AE6                     ;incstack = 0
  2816                           	opt	stack 5
  2817                           ; Regs used in _UART_Send_Char: [wreg]
  2818                           ;UART_Send_Char@a stored from wreg
  2819                           	movwf	(UART_Send_Char@a)
  2820  0AE6  00F0               	line	156
  2821                           	
  2822                           l1573:	
  2823  0AE7                     ;ROK5ZAD3.c: 156:     while(!TXIF);
  2824                           	goto	l139
  2825  0AE7  2AE8               	
  2826                           l140:	
  2827  0AE8                     	
  2828                           l139:	
  2829  0AE8                     	bcf	status, 5	;RP0=0, select bank0
  2830  0AE8  1283               	bcf	status, 6	;RP1=0, select bank0
  2831  0AE9  1303               	btfss	(100/8),(100)&7	;volatile
  2832  0AEA  1E0C               	goto	u1411
  2833  0AEB  2AED               	goto	u1410
  2834  0AEC  2AEE               u1411:
  2835  0AED                     	goto	l139
  2836  0AED  2AE8               u1410:
  2837  0AEE                     	goto	l1575
  2838  0AEE  2AEF               	
  2839                           l141:	
  2840  0AEF                     	line	157
  2841                           	
  2842                           l1575:	
  2843  0AEF                     ;ROK5ZAD3.c: 157:     TXREG=a;
  2844                           	movf	(UART_Send_Char@a),w
  2845  0AEF  0870               	movwf	(25)	;volatile
  2846  0AF0  0099               	line	158
  2847                           	
  2848                           l142:	
  2849  0AF1                     	return
  2850  0AF1  0008               	opt stack 0
  2851                           GLOBAL	__end_of_UART_Send_Char
  2852                           	__end_of_UART_Send_Char:
  2853  0AF2                     	signat	_UART_Send_Char,4217
  2854                           	global	___xxtofl
  2855                           
  2856 ;; *************** function ___xxtofl *****************
  2857 ;; Defined at:
  2858 ;;		line 10 in file "C:\Program Files (x86)\Microchip\xc8\v2.00\pic\sources\c90\common\xxtofl.c"
  2859 ;; Parameters:    Size  Location     Type
  2860 ;;  sign            1    wreg     unsigned char 
  2861 ;;  val             4    5[COMMON] long 
  2862 ;; Auto vars:     Size  Location     Type
  2863 ;;  sign            1    0[BANK0 ] unsigned char 
  2864 ;;  arg             4    2[BANK0 ] unsigned long 
  2865 ;;  exp             1    1[BANK0 ] unsigned char 
  2866 ;; Return value:  Size  Location     Type
  2867 ;;                  4    5[COMMON] unsigned char 
  2868 ;; Registers used:
  2869 ;;		wreg, status,2, status,0
  2870 ;; Tracked objects:
  2871 ;;		On entry : 0/0
  2872 ;;		On exit  : 0/0
  2873 ;;		Unchanged: 0/0
  2874 ;; Data sizes:     COMMON   BANK0   BANK1   BANK3   BANK2
  2875 ;;      Params:         4       0       0       0       0
  2876 ;;      Locals:         0       6       0       0       0
  2877 ;;      Temps:          4       0       0       0       0
  2878 ;;      Totals:         8       6       0       0       0
  2879 ;;Total ram usage:       14 bytes
  2880 ;; Hardware stack levels used:    1
  2881 ;; This function calls:
  2882 ;;		Nothing
  2883 ;; This function is called by:
  2884 ;;		_main
  2885 ;; This function uses a non-reentrant model
  2886 ;;
  2887                           psect	text4,local,class=CODE,delta=2,merge=1,group=1
  2888                           	file	"C:\Program Files (x86)\Microchip\xc8\v2.00\pic\sources\c90\common\xxtofl.c"
  2889                           	line	10
  2890                           global __ptext4
  2891                           __ptext4:	;psect for function ___xxtofl
  2892  00AF                     psect	text4
  2893                           	file	"C:\Program Files (x86)\Microchip\xc8\v2.00\pic\sources\c90\common\xxtofl.c"
  2894                           	line	10
  2895                           	global	__size_of___xxtofl
  2896                           	__size_of___xxtofl	equ	__end_of___xxtofl-___xxtofl
  2897  00C4                     	
  2898                           ___xxtofl:	
  2899  00AF                     ;incstack = 0
  2900                           	opt	stack 7
  2901                           ; Regs used in ___xxtofl: [wreg+status,2+status,0]
  2902                           ;___xxtofl@sign stored from wreg
  2903                           	bcf	status, 5	;RP0=0, select bank0
  2904  00AF  1283               	bcf	status, 6	;RP1=0, select bank0
  2905  00B0  1303               	movwf	(___xxtofl@sign)
  2906  00B1  00A0               	line	15
  2907                           	
  2908                           l2107:	
  2909  00B2                     	movf	((___xxtofl@sign)),w
  2910  00B2  0820               	btfsc	status,2
  2911  00B3  1903               	goto	u2541
  2912  00B4  28B6               	goto	u2540
  2913  00B5  28B7               u2541:
  2914  00B6                     	goto	l2113
  2915  00B6  28CB               u2540:
  2916  00B7                     	
  2917                           l2109:	
  2918  00B7                     	btfss	(___xxtofl@val+3),7
  2919  00B7  1FF8               	goto	u2551
  2920  00B8  28BA               	goto	u2550
  2921  00B9  28BB               u2551:
  2922  00BA                     	goto	l2113
  2923  00BA  28CB               u2550:
  2924  00BB                     	line	16
  2925                           	
  2926                           l2111:	
  2927  00BB                     	comf	(___xxtofl@val)+0,w
  2928  00BB  0975               	movwf	(___xxtofl@arg)
  2929  00BC  00A2               	comf	(___xxtofl@val)+1,w
  2930  00BD  0976               	movwf	(___xxtofl@arg+1)
  2931  00BE  00A3               	comf	(___xxtofl@val)+2,w
  2932  00BF  0977               	movwf	(___xxtofl@arg+2)
  2933  00C0  00A4               	comf	(___xxtofl@val)+3,w
  2934  00C1  0978               	movwf	(___xxtofl@arg+3)
  2935  00C2  00A5               	incf	(___xxtofl@arg),f
  2936  00C3  0AA2               	skipnz
  2937  00C4  1903               	incf	(___xxtofl@arg+1),f
  2938  00C5  0AA3               	skipnz
  2939  00C6  1903               	incf	(___xxtofl@arg+2),f
  2940  00C7  0AA4               	skipnz
  2941  00C8  1903               	incf	(___xxtofl@arg+3),f
  2942  00C9  0AA5               	line	17
  2943                           	goto	l682
  2944  00CA  28D3               	line	18
  2945                           	
  2946                           l681:	
  2947  00CB                     	line	19
  2948                           	
  2949                           l2113:	
  2950  00CB                     	movf	(___xxtofl@val+3),w
  2951  00CB  0878               	movwf	(___xxtofl@arg+3)
  2952  00CC  00A5               	movf	(___xxtofl@val+2),w
  2953  00CD  0877               	movwf	(___xxtofl@arg+2)
  2954  00CE  00A4               	movf	(___xxtofl@val+1),w
  2955  00CF  0876               	movwf	(___xxtofl@arg+1)
  2956  00D0  00A3               	movf	(___xxtofl@val),w
  2957  00D1  0875               	movwf	(___xxtofl@arg)
  2958  00D2  00A2               
  2959                           	line	20
  2960                           	
  2961                           l682:	
  2962  00D3                     	line	21
  2963                           	movf	(___xxtofl@val+3),w
  2964  00D3  0878               	iorwf	(___xxtofl@val+2),w
  2965  00D4  0477               	iorwf	(___xxtofl@val+1),w
  2966  00D5  0476               	iorwf	(___xxtofl@val),w
  2967  00D6  0475               	skipz
  2968  00D7  1D03               	goto	u2561
  2969  00D8  28DA               	goto	u2560
  2970  00D9  28DB               u2561:
  2971  00DA                     	goto	l2119
  2972  00DA  28E5               u2560:
  2973  00DB                     	line	22
  2974                           	
  2975                           l2115:	
  2976  00DB                     	movlw	0x0
  2977  00DB  3000               	movwf	(?___xxtofl+3)
  2978  00DC  00F8               	movlw	0x0
  2979  00DD  3000               	movwf	(?___xxtofl+2)
  2980  00DE  00F7               	movlw	0x0
  2981  00DF  3000               	movwf	(?___xxtofl+1)
  2982  00E0  00F6               	movlw	0x0
  2983  00E1  3000               	movwf	(?___xxtofl)
  2984  00E2  00F5               
  2985                           	goto	l684
  2986  00E3  2972               	
  2987                           l2117:	
  2988  00E4                     	goto	l684
  2989  00E4  2972               	
  2990                           l683:	
  2991  00E5                     	line	23
  2992                           	
  2993                           l2119:	
  2994  00E5                     	movlw	low(096h)
  2995  00E5  3096               	movwf	(??___xxtofl+0)+0
  2996  00E6  00F9               	movf	(??___xxtofl+0)+0,w
  2997  00E7  0879               	movwf	(___xxtofl@exp)
  2998  00E8  00A1               	line	24
  2999                           	goto	l2123
  3000  00E9  28F8               	
  3001                           l686:	
  3002  00EA                     	line	25
  3003                           	
  3004                           l2121:	
  3005  00EA                     	movlw	low(01h)
  3006  00EA  3001               	movwf	(??___xxtofl+0)+0
  3007  00EB  00F9               	movf	(??___xxtofl+0)+0,w
  3008  00EC  0879               	addwf	(___xxtofl@exp),f
  3009  00ED  07A1               	line	26
  3010                           	movlw	01h
  3011  00EE  3001               u2575:
  3012  00EF                     	clrc
  3013  00EF  1003               	rrf	(___xxtofl@arg+3),f
  3014  00F0  0CA5               	rrf	(___xxtofl@arg+2),f
  3015  00F1  0CA4               	rrf	(___xxtofl@arg+1),f
  3016  00F2  0CA3               	rrf	(___xxtofl@arg),f
  3017  00F3  0CA2               	addlw	-1
  3018  00F4  3EFF               	skipz
  3019  00F5  1D03               	goto	u2575
  3020  00F6  28EF               
  3021                           	goto	l2123
  3022  00F7  28F8               	line	27
  3023                           	
  3024                           l685:	
  3025  00F8                     	line	24
  3026                           	
  3027                           l2123:	
  3028  00F8                     	movlw	high highword(0FE000000h)
  3029  00F8  30FE               	andwf	(___xxtofl@arg+3),w
  3030  00F9  0525               	btfss	status,2
  3031  00FA  1D03               	goto	u2581
  3032  00FB  28FD               	goto	u2580
  3033  00FC  28FE               u2581:
  3034  00FD                     	goto	l2121
  3035  00FD  28EA               u2580:
  3036  00FE                     	goto	l688
  3037  00FE  291B               	
  3038                           l687:	
  3039  00FF                     	line	28
  3040                           	goto	l688
  3041  00FF  291B               	
  3042                           l689:	
  3043  0100                     	line	29
  3044                           	
  3045                           l2125:	
  3046  0100                     	movlw	low(01h)
  3047  0100  3001               	movwf	(??___xxtofl+0)+0
  3048  0101  00F9               	movf	(??___xxtofl+0)+0,w
  3049  0102  0879               	addwf	(___xxtofl@exp),f
  3050  0103  07A1               	line	30
  3051                           	
  3052                           l2127:	
  3053  0104                     	movlw	01h
  3054  0104  3001               	addwf	(___xxtofl@arg),f
  3055  0105  07A2               	movlw	0
  3056  0106  3000               	skipnc
  3057  0107  1803               movlw 1
  3058  0108  3001               	addwf	(___xxtofl@arg+1),f
  3059  0109  07A3               	movlw	0
  3060  010A  3000               	skipnc
  3061  010B  1803               movlw 1
  3062  010C  3001               	addwf	(___xxtofl@arg+2),f
  3063  010D  07A4               	movlw	0
  3064  010E  3000               	skipnc
  3065  010F  1803               movlw 1
  3066  0110  3001               	addwf	(___xxtofl@arg+3),f
  3067  0111  07A5               	line	31
  3068                           	
  3069                           l2129:	
  3070  0112                     	movlw	01h
  3071  0112  3001               u2595:
  3072  0113                     	clrc
  3073  0113  1003               	rrf	(___xxtofl@arg+3),f
  3074  0114  0CA5               	rrf	(___xxtofl@arg+2),f
  3075  0115  0CA4               	rrf	(___xxtofl@arg+1),f
  3076  0116  0CA3               	rrf	(___xxtofl@arg),f
  3077  0117  0CA2               	addlw	-1
  3078  0118  3EFF               	skipz
  3079  0119  1D03               	goto	u2595
  3080  011A  2913               
  3081                           	line	32
  3082                           	
  3083                           l688:	
  3084  011B                     	line	28
  3085                           	movlw	high highword(0FF000000h)
  3086  011B  30FF               	andwf	(___xxtofl@arg+3),w
  3087  011C  0525               	btfss	status,2
  3088  011D  1D03               	goto	u2601
  3089  011E  2920               	goto	u2600
  3090  011F  2921               u2601:
  3091  0120                     	goto	l2125
  3092  0120  2900               u2600:
  3093  0121                     	goto	l2133
  3094  0121  292F               	
  3095                           l690:	
  3096  0122                     	line	33
  3097                           	goto	l2133
  3098  0122  292F               	
  3099                           l692:	
  3100  0123                     	line	34
  3101                           	
  3102                           l2131:	
  3103  0123                     	movlw	01h
  3104  0123  3001               	subwf	(___xxtofl@exp),f
  3105  0124  02A1               	line	35
  3106                           	movlw	01h
  3107  0125  3001               	movwf	(??___xxtofl+0)+0
  3108  0126  00F9               u2615:
  3109  0127                     	clrc
  3110  0127  1003               	rlf	(___xxtofl@arg),f
  3111  0128  0DA2               	rlf	(___xxtofl@arg+1),f
  3112  0129  0DA3               	rlf	(___xxtofl@arg+2),f
  3113  012A  0DA4               	rlf	(___xxtofl@arg+3),f
  3114  012B  0DA5               	decfsz	(??___xxtofl+0)+0
  3115  012C  0BF9               	goto	u2615
  3116  012D  2927               	goto	l2133
  3117  012E  292F               	line	36
  3118                           	
  3119                           l691:	
  3120  012F                     	line	33
  3121                           	
  3122                           l2133:	
  3123  012F                     	btfsc	(___xxtofl@arg+2),(23)&7
  3124  012F  1BA4               	goto	u2621
  3125  0130  2932               	goto	u2620
  3126  0131  2933               u2621:
  3127  0132                     	goto	l695
  3128  0132  293A               u2620:
  3129  0133                     	
  3130                           l2135:	
  3131  0133                     	movlw	low(02h)
  3132  0133  3002               	subwf	(___xxtofl@exp),w
  3133  0134  0221               	skipnc
  3134  0135  1803               	goto	u2631
  3135  0136  2938               	goto	u2630
  3136  0137  2939               u2631:
  3137  0138                     	goto	l2131
  3138  0138  2923               u2630:
  3139  0139                     	goto	l695
  3140  0139  293A               	
  3141                           l694:	
  3142  013A                     	
  3143                           l695:	
  3144  013A                     	line	37
  3145                           	btfsc	(___xxtofl@exp),(0)&7
  3146  013A  1821               	goto	u2641
  3147  013B  293D               	goto	u2640
  3148  013C  293E               u2641:
  3149  013D                     	goto	l696
  3150  013D  2946               u2640:
  3151  013E                     	line	38
  3152                           	
  3153                           l2137:	
  3154  013E                     	movlw	0FFh
  3155  013E  30FF               	andwf	(___xxtofl@arg),f
  3156  013F  05A2               	movlw	0FFh
  3157  0140  30FF               	andwf	(___xxtofl@arg+1),f
  3158  0141  05A3               	movlw	07Fh
  3159  0142  307F               	andwf	(___xxtofl@arg+2),f
  3160  0143  05A4               	movlw	0FFh
  3161  0144  30FF               	andwf	(___xxtofl@arg+3),f
  3162  0145  05A5               	
  3163                           l696:	
  3164  0146                     	line	39
  3165                           	clrc
  3166  0146  1003               	rrf	(___xxtofl@exp),f
  3167  0147  0CA1               
  3168                           	line	40
  3169                           	
  3170                           l2139:	
  3171  0148                     	movf	(___xxtofl@exp),w
  3172  0148  0821               	movwf	(??___xxtofl+0)+0
  3173  0149  00F9               	clrf	(??___xxtofl+0)+0+1
  3174  014A  01FA               	clrf	(??___xxtofl+0)+0+2
  3175  014B  01FB               	clrf	(??___xxtofl+0)+0+3
  3176  014C  01FC               	movlw	018h
  3177  014D  3018               u2655:
  3178  014E                     	clrc
  3179  014E  1003               	rlf	(??___xxtofl+0)+0,f
  3180  014F  0DF9               	rlf	(??___xxtofl+0)+1,f
  3181  0150  0DFA               	rlf	(??___xxtofl+0)+2,f
  3182  0151  0DFB               	rlf	(??___xxtofl+0)+3,f
  3183  0152  0DFC               u2650:
  3184  0153                     	addlw	-1
  3185  0153  3EFF               	skipz
  3186  0154  1D03               	goto	u2655
  3187  0155  294E               	movf	0+(??___xxtofl+0)+0,w
  3188  0156  0879               	iorwf	(___xxtofl@arg),f
  3189  0157  04A2               	movf	1+(??___xxtofl+0)+0,w
  3190  0158  087A               	iorwf	(___xxtofl@arg+1),f
  3191  0159  04A3               	movf	2+(??___xxtofl+0)+0,w
  3192  015A  087B               	iorwf	(___xxtofl@arg+2),f
  3193  015B  04A4               	movf	3+(??___xxtofl+0)+0,w
  3194  015C  087C               	iorwf	(___xxtofl@arg+3),f
  3195  015D  04A5               	line	41
  3196                           	
  3197                           l2141:	
  3198  015E                     	movf	((___xxtofl@sign)),w
  3199  015E  0820               	btfsc	status,2
  3200  015F  1903               	goto	u2661
  3201  0160  2962               	goto	u2660
  3202  0161  2963               u2661:
  3203  0162                     	goto	l2147
  3204  0162  2969               u2660:
  3205  0163                     	
  3206                           l2143:	
  3207  0163                     	btfss	(___xxtofl@val+3),7
  3208  0163  1FF8               	goto	u2671
  3209  0164  2966               	goto	u2670
  3210  0165  2967               u2671:
  3211  0166                     	goto	l2147
  3212  0166  2969               u2670:
  3213  0167                     	line	42
  3214                           	
  3215                           l2145:	
  3216  0167                     	bsf	(___xxtofl@arg)+(31/8),(31)&7
  3217  0167  17A5               	goto	l2147
  3218  0168  2969               	
  3219                           l697:	
  3220  0169                     	line	43
  3221                           	
  3222                           l2147:	
  3223  0169                     	movf	(___xxtofl@arg+3),w
  3224  0169  0825               	movwf	(?___xxtofl+3)
  3225  016A  00F8               	movf	(___xxtofl@arg+2),w
  3226  016B  0824               	movwf	(?___xxtofl+2)
  3227  016C  00F7               	movf	(___xxtofl@arg+1),w
  3228  016D  0823               	movwf	(?___xxtofl+1)
  3229  016E  00F6               	movf	(___xxtofl@arg),w
  3230  016F  0822               	movwf	(?___xxtofl)
  3231  0170  00F5               
  3232                           	goto	l684
  3233  0171  2972               	
  3234                           l2149:	
  3235  0172                     	line	44
  3236                           	
  3237                           l684:	
  3238  0172                     	return
  3239  0172  0008               	opt stack 0
  3240                           GLOBAL	__end_of___xxtofl
  3241                           	__end_of___xxtofl:
  3242  0173                     	signat	___xxtofl,8316
  3243                           	global	___fltol
  3244                           
  3245 ;; *************** function ___fltol *****************
  3246 ;; Defined at:
  3247 ;;		line 43 in file "C:\Program Files (x86)\Microchip\xc8\v2.00\pic\sources\c90\common\fltol.c"
  3248 ;; Parameters:    Size  Location     Type
  3249 ;;  f1              4   21[BANK0 ] unsigned char 
  3250 ;; Auto vars:     Size  Location     Type
  3251 ;;  exp1            1   31[BANK0 ] unsigned char 
  3252 ;;  sign1           1   30[BANK0 ] unsigned char 
  3253 ;; Return value:  Size  Location     Type
  3254 ;;                  4   21[BANK0 ] long 
  3255 ;; Registers used:
  3256 ;;		wreg, status,2, status,0
  3257 ;; Tracked objects:
  3258 ;;		On entry : 0/0
  3259 ;;		On exit  : 0/0
  3260 ;;		Unchanged: 0/0
  3261 ;; Data sizes:     COMMON   BANK0   BANK1   BANK3   BANK2
  3262 ;;      Params:         0       4       0       0       0
  3263 ;;      Locals:         0       2       0       0       0
  3264 ;;      Temps:          0       5       0       0       0
  3265 ;;      Totals:         0      11       0       0       0
  3266 ;;Total ram usage:       11 bytes
  3267 ;; Hardware stack levels used:    1
  3268 ;; This function calls:
  3269 ;;		Nothing
  3270 ;; This function is called by:
  3271 ;;		_main
  3272 ;; This function uses a non-reentrant model
  3273 ;;
  3274                           psect	text5,local,class=CODE,delta=2,merge=1,group=1
  3275                           	file	"C:\Program Files (x86)\Microchip\xc8\v2.00\pic\sources\c90\common\fltol.c"
  3276                           	line	43
  3277                           global __ptext5
  3278                           __ptext5:	;psect for function ___fltol
  3279  0013                     psect	text5
  3280                           	file	"C:\Program Files (x86)\Microchip\xc8\v2.00\pic\sources\c90\common\fltol.c"
  3281                           	line	43
  3282                           	global	__size_of___fltol
  3283                           	__size_of___fltol	equ	__end_of___fltol-___fltol
  3284  009C                     	
  3285                           ___fltol:	
  3286  0013                     ;incstack = 0
  3287                           	opt	stack 7
  3288                           ; Regs used in ___fltol: [wreg+status,2+status,0]
  3289                           	line	47
  3290                           	
  3291                           l1789:	
  3292  0013                     	bcf	status, 5	;RP0=0, select bank0
  3293  0013  1283               	bcf	status, 6	;RP1=0, select bank0
  3294  0014  1303               	movf	(___fltol@f1),w
  3295  0015  0835               	movwf	(??___fltol+0)+0
  3296  0016  00B9               	movf	(___fltol@f1+1),w
  3297  0017  0836               	movwf	((??___fltol+0)+0+1)
  3298  0018  00BA               	movf	(___fltol@f1+2),w
  3299  0019  0837               	movwf	((??___fltol+0)+0+2)
  3300  001A  00BB               	movf	(___fltol@f1+3),w
  3301  001B  0838               	movwf	((??___fltol+0)+0+3)
  3302  001C  00BC               	clrc
  3303  001D  1003               	rlf	(??___fltol+0)+2,w
  3304  001E  0D3B               	rlf	(??___fltol+0)+3,w
  3305  001F  0D3C               	movwf	(??___fltol+4)+0
  3306  0020  00BD               	movf	(??___fltol+4)+0,w
  3307  0021  083D               	movwf	(___fltol@exp1)
  3308  0022  00BF               	movf	(((___fltol@exp1))),w
  3309  0023  083F               	btfss	status,2
  3310  0024  1D03               	goto	u1771
  3311  0025  2827               	goto	u1770
  3312  0026  2828               u1771:
  3313  0027                     	goto	l1795
  3314  0027  2832               u1770:
  3315  0028                     	line	48
  3316                           	
  3317                           l1791:	
  3318  0028                     	movlw	high highword(0)
  3319  0028  3000               	movwf	(?___fltol+3)
  3320  0029  00B8               	movlw	low highword(0)
  3321  002A  3000               	movwf	(?___fltol+2)
  3322  002B  00B7               	movlw	high(0)
  3323  002C  3000               	movwf	(?___fltol+1)
  3324  002D  00B6               	movlw	low(0)
  3325  002E  3000               	movwf	(?___fltol)
  3326  002F  00B5               
  3327                           	goto	l460
  3328  0030  28AE               	
  3329                           l1793:	
  3330  0031                     	goto	l460
  3331  0031  28AE               	
  3332                           l459:	
  3333  0032                     	line	49
  3334                           	
  3335                           l1795:	
  3336  0032                     	movf	(___fltol@f1),w
  3337  0032  0835               	movwf	(??___fltol+0)+0
  3338  0033  00B9               	movf	(___fltol@f1+1),w
  3339  0034  0836               	movwf	((??___fltol+0)+0+1)
  3340  0035  00BA               	movf	(___fltol@f1+2),w
  3341  0036  0837               	movwf	((??___fltol+0)+0+2)
  3342  0037  00BB               	movf	(___fltol@f1+3),w
  3343  0038  0838               	movwf	((??___fltol+0)+0+3)
  3344  0039  00BC               	movlw	01Fh
  3345  003A  301F               u1785:
  3346  003B                     	clrc
  3347  003B  1003               	rrf	(??___fltol+0)+3,f
  3348  003C  0CBC               	rrf	(??___fltol+0)+2,f
  3349  003D  0CBB               	rrf	(??___fltol+0)+1,f
  3350  003E  0CBA               	rrf	(??___fltol+0)+0,f
  3351  003F  0CB9               u1780:
  3352  0040                     	addlw	-1
  3353  0040  3EFF               	skipz
  3354  0041  1D03               	goto	u1785
  3355  0042  283B               	movf	0+(??___fltol+0)+0,w
  3356  0043  0839               	movwf	(??___fltol+4)+0
  3357  0044  00BD               	movf	(??___fltol+4)+0,w
  3358  0045  083D               	movwf	(___fltol@sign1)
  3359  0046  00BE               	line	50
  3360                           	
  3361                           l1797:	
  3362  0047                     	bsf	(___fltol@f1)+(23/8),(23)&7
  3363  0047  17B7               	line	51
  3364                           	
  3365                           l1799:	
  3366  0048                     	movlw	0FFh
  3367  0048  30FF               	andwf	(___fltol@f1),f
  3368  0049  05B5               	movlw	0FFh
  3369  004A  30FF               	andwf	(___fltol@f1+1),f
  3370  004B  05B6               	movlw	0FFh
  3371  004C  30FF               	andwf	(___fltol@f1+2),f
  3372  004D  05B7               	movlw	0
  3373  004E  3000               	andwf	(___fltol@f1+3),f
  3374  004F  05B8               	line	52
  3375                           	
  3376                           l1801:	
  3377  0050                     	movlw	096h
  3378  0050  3096               	subwf	(___fltol@exp1),f
  3379  0051  02BF               	line	53
  3380                           	
  3381                           l1803:	
  3382  0052                     	btfss	(___fltol@exp1),7
  3383  0052  1FBF               	goto	u1791
  3384  0053  2855               	goto	u1790
  3385  0054  2856               u1791:
  3386  0055                     	goto	l1813
  3387  0055  287B               u1790:
  3388  0056                     	line	54
  3389                           	
  3390                           l1805:	
  3391  0056                     	movf	(___fltol@exp1),w
  3392  0056  083F               	xorlw	80h
  3393  0057  3A80               	addlw	-((-23)^80h)
  3394  0058  3E97               	skipnc
  3395  0059  1803               	goto	u1801
  3396  005A  285C               	goto	u1800
  3397  005B  285D               u1801:
  3398  005C                     	goto	l1811
  3399  005C  2868               u1800:
  3400  005D                     	line	55
  3401                           	
  3402                           l1807:	
  3403  005D                     	movlw	high highword(0)
  3404  005D  3000               	movwf	(?___fltol+3)
  3405  005E  00B8               	movlw	low highword(0)
  3406  005F  3000               	movwf	(?___fltol+2)
  3407  0060  00B7               	movlw	high(0)
  3408  0061  3000               	movwf	(?___fltol+1)
  3409  0062  00B6               	movlw	low(0)
  3410  0063  3000               	movwf	(?___fltol)
  3411  0064  00B5               
  3412                           	goto	l460
  3413  0065  28AE               	
  3414                           l1809:	
  3415  0066                     	goto	l460
  3416  0066  28AE               	
  3417                           l462:	
  3418  0067                     	goto	l1811
  3419  0067  2868               	line	56
  3420                           	
  3421                           l463:	
  3422  0068                     	line	57
  3423                           	
  3424                           l1811:	
  3425  0068                     	movlw	01h
  3426  0068  3001               u1815:
  3427  0069                     	clrc
  3428  0069  1003               	rrf	(___fltol@f1+3),f
  3429  006A  0CB8               	rrf	(___fltol@f1+2),f
  3430  006B  0CB7               	rrf	(___fltol@f1+1),f
  3431  006C  0CB6               	rrf	(___fltol@f1),f
  3432  006D  0CB5               	addlw	-1
  3433  006E  3EFF               	skipz
  3434  006F  1D03               	goto	u1815
  3435  0070  2869               
  3436                           	line	58
  3437                           	movlw	low(01h)
  3438  0071  3001               	movwf	(??___fltol+0)+0
  3439  0072  00B9               	movf	(??___fltol+0)+0,w
  3440  0073  0839               	addwf	(___fltol@exp1),f
  3441  0074  07BF               	btfss	status,2
  3442  0075  1D03               	goto	u1821
  3443  0076  2878               	goto	u1820
  3444  0077  2879               u1821:
  3445  0078                     	goto	l1811
  3446  0078  2868               u1820:
  3447  0079                     	goto	l1821
  3448  0079  289E               	
  3449                           l464:	
  3450  007A                     	line	59
  3451                           	goto	l1821
  3452  007A  289E               	
  3453                           l461:	
  3454  007B                     	line	60
  3455                           	
  3456                           l1813:	
  3457  007B                     	movlw	low(020h)
  3458  007B  3020               	subwf	(___fltol@exp1),w
  3459  007C  023F               	skipc
  3460  007D  1C03               	goto	u1831
  3461  007E  2880               	goto	u1830
  3462  007F  2881               u1831:
  3463  0080                     	goto	l467
  3464  0080  2897               u1830:
  3465  0081                     	line	61
  3466                           	
  3467                           l1815:	
  3468  0081                     	movlw	high highword(0)
  3469  0081  3000               	movwf	(?___fltol+3)
  3470  0082  00B8               	movlw	low highword(0)
  3471  0083  3000               	movwf	(?___fltol+2)
  3472  0084  00B7               	movlw	high(0)
  3473  0085  3000               	movwf	(?___fltol+1)
  3474  0086  00B6               	movlw	low(0)
  3475  0087  3000               	movwf	(?___fltol)
  3476  0088  00B5               
  3477                           	goto	l460
  3478  0089  28AE               	
  3479                           l1817:	
  3480  008A                     	goto	l460
  3481  008A  28AE               	
  3482                           l466:	
  3483  008B                     	line	62
  3484                           	goto	l467
  3485  008B  2897               	
  3486                           l468:	
  3487  008C                     	line	63
  3488                           	
  3489                           l1819:	
  3490  008C                     	movlw	01h
  3491  008C  3001               	movwf	(??___fltol+0)+0
  3492  008D  00B9               u1845:
  3493  008E                     	clrc
  3494  008E  1003               	rlf	(___fltol@f1),f
  3495  008F  0DB5               	rlf	(___fltol@f1+1),f
  3496  0090  0DB6               	rlf	(___fltol@f1+2),f
  3497  0091  0DB7               	rlf	(___fltol@f1+3),f
  3498  0092  0DB8               	decfsz	(??___fltol+0)+0
  3499  0093  0BB9               	goto	u1845
  3500  0094  288E               	line	64
  3501                           	movlw	01h
  3502  0095  3001               	subwf	(___fltol@exp1),f
  3503  0096  02BF               	line	65
  3504                           	
  3505                           l467:	
  3506  0097                     	line	62
  3507                           	movf	((___fltol@exp1)),w
  3508  0097  083F               	btfss	status,2
  3509  0098  1D03               	goto	u1851
  3510  0099  289B               	goto	u1850
  3511  009A  289C               u1851:
  3512  009B                     	goto	l1819
  3513  009B  288C               u1850:
  3514  009C                     	goto	l1821
  3515  009C  289E               	
  3516                           l469:	
  3517  009D                     	goto	l1821
  3518  009D  289E               	line	66
  3519                           	
  3520                           l465:	
  3521  009E                     	line	67
  3522                           	
  3523                           l1821:	
  3524  009E                     	movf	((___fltol@sign1)),w
  3525  009E  083E               	btfsc	status,2
  3526  009F  1903               	goto	u1861
  3527  00A0  28A2               	goto	u1860
  3528  00A1  28A3               u1861:
  3529  00A2                     	goto	l470
  3530  00A2  28AE               u1860:
  3531  00A3                     	line	68
  3532                           	
  3533                           l1823:	
  3534  00A3                     	comf	(___fltol@f1),f
  3535  00A3  09B5               	comf	(___fltol@f1+1),f
  3536  00A4  09B6               	comf	(___fltol@f1+2),f
  3537  00A5  09B7               	comf	(___fltol@f1+3),f
  3538  00A6  09B8               	incf	(___fltol@f1),f
  3539  00A7  0AB5               	skipnz
  3540  00A8  1903               	incf	(___fltol@f1+1),f
  3541  00A9  0AB6               	skipnz
  3542  00AA  1903               	incf	(___fltol@f1+2),f
  3543  00AB  0AB7               	skipnz
  3544  00AC  1903               	incf	(___fltol@f1+3),f
  3545  00AD  0AB8               	
  3546                           l470:	
  3547  00AE                     	line	69
  3548                           	line	70
  3549                           	
  3550                           l460:	
  3551  00AE                     	return
  3552  00AE  0008               	opt stack 0
  3553                           GLOBAL	__end_of___fltol
  3554                           	__end_of___fltol:
  3555  00AF                     	signat	___fltol,4220
  3556                           	global	___flmul
  3557                           
  3558 ;; *************** function ___flmul *****************
  3559 ;; Defined at:
  3560 ;;		line 8 in file "C:\Program Files (x86)\Microchip\xc8\v2.00\pic\sources\c90\common\sprcmul.c"
  3561 ;; Parameters:    Size  Location     Type
  3562 ;;  b               4    0[BANK0 ] long 
  3563 ;;  a               4    4[BANK0 ] long 
  3564 ;; Auto vars:     Size  Location     Type
  3565 ;;  prod            4   15[BANK0 ] struct .
  3566 ;;  grs             4    9[BANK0 ] unsigned long 
  3567 ;;  temp            2   19[BANK0 ] struct .
  3568 ;;  bexp            1   14[BANK0 ] unsigned char 
  3569 ;;  aexp            1   13[BANK0 ] unsigned char 
  3570 ;;  sign            1    8[BANK0 ] unsigned char 
  3571 ;; Return value:  Size  Location     Type
  3572 ;;                  4    0[BANK0 ] unsigned char 
  3573 ;; Registers used:
  3574 ;;		wreg, status,2, status,0, btemp+1, pclath, cstack
  3575 ;; Tracked objects:
  3576 ;;		On entry : 0/0
  3577 ;;		On exit  : 0/0
  3578 ;;		Unchanged: 0/0
  3579 ;; Data sizes:     COMMON   BANK0   BANK1   BANK3   BANK2
  3580 ;;      Params:         0       8       0       0       0
  3581 ;;      Locals:         0      13       0       0       0
  3582 ;;      Temps:          5       0       0       0       0
  3583 ;;      Totals:         5      21       0       0       0
  3584 ;;Total ram usage:       26 bytes
  3585 ;; Hardware stack levels used:    1
  3586 ;; Hardware stack levels required when called:    1
  3587 ;; This function calls:
  3588 ;;		__Umul8_16
  3589 ;; This function is called by:
  3590 ;;		_main
  3591 ;; This function uses a non-reentrant model
  3592 ;;
  3593                           psect	text6,local,class=CODE,delta=2,merge=1,group=1
  3594                           	file	"C:\Program Files (x86)\Microchip\xc8\v2.00\pic\sources\c90\common\sprcmul.c"
  3595                           	line	8
  3596                           global __ptext6
  3597                           __ptext6:	;psect for function ___flmul
  3598  0479                     psect	text6
  3599                           	file	"C:\Program Files (x86)\Microchip\xc8\v2.00\pic\sources\c90\common\sprcmul.c"
  3600                           	line	8
  3601                           	global	__size_of___flmul
  3602                           	__size_of___flmul	equ	__end_of___flmul-___flmul
  3603  0375                     	
  3604                           ___flmul:	
  3605  0479                     ;incstack = 0
  3606                           	opt	stack 6
  3607                           ; Regs used in ___flmul: [wreg+status,2+status,0+btemp+1+pclath+cstack]
  3608                           	line	17
  3609                           	
  3610                           l1967:	
  3611  0479                     	bcf	status, 5	;RP0=0, select bank0
  3612  0479  1283               	bcf	status, 6	;RP1=0, select bank0
  3613  047A  1303               	movf	0+(___flmul@b)+03h,w
  3614  047B  0823               	andlw	080h
  3615  047C  3980               	movwf	(??___flmul+0)+0
  3616  047D  00F9               	movf	(??___flmul+0)+0,w
  3617  047E  0879               	movwf	(___flmul@sign)
  3618  047F  00A8               	line	18
  3619                           	
  3620                           l1969:	
  3621  0480                     	movf	0+(___flmul@b)+03h,w
  3622  0480  0823               	movwf	(??___flmul+0)+0
  3623  0481  00F9               	addwf	(??___flmul+0)+0,w
  3624  0482  0779               	movwf	(??___flmul+1)+0
  3625  0483  00FA               	movf	(??___flmul+1)+0,w
  3626  0484  087A               	movwf	(___flmul@bexp)
  3627  0485  00AE               	line	19
  3628                           	
  3629                           l1971:	
  3630  0486                     	btfss	0+(___flmul@b)+02h,(7)&7
  3631  0486  1FA2               	goto	u2171
  3632  0487  2C89               	goto	u2170
  3633  0488  2C8A               u2171:
  3634  0489                     	goto	l1975
  3635  0489  2C8C               u2170:
  3636  048A                     	line	20
  3637                           	
  3638                           l1973:	
  3639  048A                     	bsf	(___flmul@bexp)+(0/8),(0)&7
  3640  048A  142E               	goto	l1975
  3641  048B  2C8C               	line	21
  3642                           	
  3643                           l652:	
  3644  048C                     	line	24
  3645                           	
  3646                           l1975:	
  3647  048C                     	movf	((___flmul@bexp)),w
  3648  048C  082E               	btfsc	status,2
  3649  048D  1903               	goto	u2181
  3650  048E  2C90               	goto	u2180
  3651  048F  2C91               u2181:
  3652  0490                     	goto	l1983
  3653  0490  2CA1               u2180:
  3654  0491                     	line	26
  3655                           	
  3656                           l1977:	
  3657  0491                     		incf	((___flmul@bexp)),w
  3658  0491  0A2E               	btfss	status,2
  3659  0492  1D03               	goto	u2191
  3660  0493  2C95               	goto	u2190
  3661  0494  2C96               u2191:
  3662  0495                     	goto	l1981
  3663  0495  2C9F               u2190:
  3664  0496                     	line	28
  3665                           	
  3666                           l1979:	
  3667  0496                     	movlw	0x0
  3668  0496  3000               	movwf	(___flmul@b+3)
  3669  0497  00A3               	movlw	0x0
  3670  0498  3000               	movwf	(___flmul@b+2)
  3671  0499  00A2               	movlw	0x0
  3672  049A  3000               	movwf	(___flmul@b+1)
  3673  049B  00A1               	movlw	0x0
  3674  049C  3000               	movwf	(___flmul@b)
  3675  049D  00A0               
  3676                           	goto	l1981
  3677  049E  2C9F               	line	29
  3678                           	
  3679                           l654:	
  3680  049F                     	line	31
  3681                           	
  3682                           l1981:	
  3683  049F                     	bsf	(___flmul@b)+(23/8),(23)&7
  3684  049F  17A2               	line	33
  3685                           	goto	l1985
  3686  04A0  2CAA               	line	34
  3687                           	
  3688                           l653:	
  3689  04A1                     	line	36
  3690                           	
  3691                           l1983:	
  3692  04A1                     	movlw	0x0
  3693  04A1  3000               	movwf	(___flmul@b+3)
  3694  04A2  00A3               	movlw	0x0
  3695  04A3  3000               	movwf	(___flmul@b+2)
  3696  04A4  00A2               	movlw	0x0
  3697  04A5  3000               	movwf	(___flmul@b+1)
  3698  04A6  00A1               	movlw	0x0
  3699  04A7  3000               	movwf	(___flmul@b)
  3700  04A8  00A0               
  3701                           	goto	l1985
  3702  04A9  2CAA               	line	37
  3703                           	
  3704                           l655:	
  3705  04AA                     	line	39
  3706                           	
  3707                           l1985:	
  3708  04AA                     	movf	0+(___flmul@a)+03h,w
  3709  04AA  0827               	andlw	080h
  3710  04AB  3980               	movwf	(??___flmul+0)+0
  3711  04AC  00F9               	movf	(??___flmul+0)+0,w
  3712  04AD  0879               	xorwf	(___flmul@sign),f
  3713  04AE  06A8               	line	40
  3714                           	
  3715                           l1987:	
  3716  04AF                     	movf	0+(___flmul@a)+03h,w
  3717  04AF  0827               	movwf	(??___flmul+0)+0
  3718  04B0  00F9               	addwf	(??___flmul+0)+0,w
  3719  04B1  0779               	movwf	(??___flmul+1)+0
  3720  04B2  00FA               	movf	(??___flmul+1)+0,w
  3721  04B3  087A               	movwf	(___flmul@aexp)
  3722  04B4  00AD               	line	41
  3723                           	
  3724                           l1989:	
  3725  04B5                     	btfss	0+(___flmul@a)+02h,(7)&7
  3726  04B5  1FA6               	goto	u2201
  3727  04B6  2CB8               	goto	u2200
  3728  04B7  2CB9               u2201:
  3729  04B8                     	goto	l1993
  3730  04B8  2CBB               u2200:
  3731  04B9                     	line	42
  3732                           	
  3733                           l1991:	
  3734  04B9                     	bsf	(___flmul@aexp)+(0/8),(0)&7
  3735  04B9  142D               	goto	l1993
  3736  04BA  2CBB               	line	43
  3737                           	
  3738                           l656:	
  3739  04BB                     	line	45
  3740                           	
  3741                           l1993:	
  3742  04BB                     	movf	((___flmul@aexp)),w
  3743  04BB  082D               	btfsc	status,2
  3744  04BC  1903               	goto	u2211
  3745  04BD  2CBF               	goto	u2210
  3746  04BE  2CC0               u2211:
  3747  04BF                     	goto	l2001
  3748  04BF  2CD0               u2210:
  3749  04C0                     	line	48
  3750                           	
  3751                           l1995:	
  3752  04C0                     		incf	((___flmul@aexp)),w
  3753  04C0  0A2D               	btfss	status,2
  3754  04C1  1D03               	goto	u2221
  3755  04C2  2CC4               	goto	u2220
  3756  04C3  2CC5               u2221:
  3757  04C4                     	goto	l1999
  3758  04C4  2CCE               u2220:
  3759  04C5                     	line	50
  3760                           	
  3761                           l1997:	
  3762  04C5                     	movlw	0x0
  3763  04C5  3000               	movwf	(___flmul@a+3)
  3764  04C6  00A7               	movlw	0x0
  3765  04C7  3000               	movwf	(___flmul@a+2)
  3766  04C8  00A6               	movlw	0x0
  3767  04C9  3000               	movwf	(___flmul@a+1)
  3768  04CA  00A5               	movlw	0x0
  3769  04CB  3000               	movwf	(___flmul@a)
  3770  04CC  00A4               
  3771                           	goto	l1999
  3772  04CD  2CCE               	line	51
  3773                           	
  3774                           l658:	
  3775  04CE                     	line	53
  3776                           	
  3777                           l1999:	
  3778  04CE                     	bsf	(___flmul@a)+(23/8),(23)&7
  3779  04CE  17A6               	line	54
  3780                           	goto	l2003
  3781  04CF  2CD9               	line	55
  3782                           	
  3783                           l657:	
  3784  04D0                     	line	57
  3785                           	
  3786                           l2001:	
  3787  04D0                     	movlw	0x0
  3788  04D0  3000               	movwf	(___flmul@a+3)
  3789  04D1  00A7               	movlw	0x0
  3790  04D2  3000               	movwf	(___flmul@a+2)
  3791  04D3  00A6               	movlw	0x0
  3792  04D4  3000               	movwf	(___flmul@a+1)
  3793  04D5  00A5               	movlw	0x0
  3794  04D6  3000               	movwf	(___flmul@a)
  3795  04D7  00A4               
  3796                           	goto	l2003
  3797  04D8  2CD9               	line	58
  3798                           	
  3799                           l659:	
  3800  04D9                     	line	65
  3801                           	
  3802                           l2003:	
  3803  04D9                     	movf	((___flmul@aexp)),w
  3804  04D9  082D               	btfsc	status,2
  3805  04DA  1903               	goto	u2231
  3806  04DB  2CDD               	goto	u2230
  3807  04DC  2CDE               u2231:
  3808  04DD                     	goto	l2007
  3809  04DD  2CE4               u2230:
  3810  04DE                     	
  3811                           l2005:	
  3812  04DE                     	movf	((___flmul@bexp)),w
  3813  04DE  082E               	btfss	status,2
  3814  04DF  1D03               	goto	u2241
  3815  04E0  2CE2               	goto	u2240
  3816  04E1  2CE3               u2241:
  3817  04E2                     	goto	l2011
  3818  04E2  2CEE               u2240:
  3819  04E3                     	goto	l2007
  3820  04E3  2CE4               	
  3821                           l662:	
  3822  04E4                     	line	66
  3823                           	
  3824                           l2007:	
  3825  04E4                     	movlw	0x0
  3826  04E4  3000               	movwf	(?___flmul+3)
  3827  04E5  00A3               	movlw	0x0
  3828  04E6  3000               	movwf	(?___flmul+2)
  3829  04E7  00A2               	movlw	0x0
  3830  04E8  3000               	movwf	(?___flmul+1)
  3831  04E9  00A1               	movlw	0x0
  3832  04EA  3000               	movwf	(?___flmul)
  3833  04EB  00A0               
  3834                           	goto	l663
  3835  04EC  2FED               	
  3836                           l2009:	
  3837  04ED                     	goto	l663
  3838  04ED  2FED               	line	67
  3839                           	
  3840                           l660:	
  3841  04EE                     	line	119
  3842                           	
  3843                           l2011:	
  3844  04EE                     	movf	(___flmul@b),w
  3845  04EE  0820               	movwf	(??___flmul+0)+0
  3846  04EF  00F9               	movf	(??___flmul+0)+0,w
  3847  04F0  0879               	movwf	(__Umul8_16@multiplicand)
  3848  04F1  00F0               	movf	0+(___flmul@a)+02h,w
  3849  04F2  0826               	fcall	__Umul8_16
  3850  04F3  120A  158A  2394  120A  118A  	movf	(1+(?__Umul8_16)),w
  3851  04F8  0871               	bcf	status, 5	;RP0=0, select bank0
  3852  04F9  1283               	bcf	status, 6	;RP1=0, select bank0
  3853  04FA  1303               	movwf	(___flmul@temp+1)
  3854  04FB  00B4               	movf	(0+(?__Umul8_16)),w
  3855  04FC  0870               	movwf	(___flmul@temp)
  3856  04FD  00B3               	line	120
  3857                           	
  3858                           l2013:	
  3859  04FE                     	movf	(___flmul@temp),w
  3860  04FE  0833               	movwf	(??___flmul+0)+0
  3861  04FF  00F9               	clrf	(??___flmul+0)+0+1
  3862  0500  01FA               	clrf	(??___flmul+0)+0+2
  3863  0501  01FB               	clrf	(??___flmul+0)+0+3
  3864  0502  01FC               	movf	3+(??___flmul+0)+0,w
  3865  0503  087C               	movwf	(___flmul@grs+3)
  3866  0504  00AC               	movf	2+(??___flmul+0)+0,w
  3867  0505  087B               	movwf	(___flmul@grs+2)
  3868  0506  00AB               	movf	1+(??___flmul+0)+0,w
  3869  0507  087A               	movwf	(___flmul@grs+1)
  3870  0508  00AA               	movf	0+(??___flmul+0)+0,w
  3871  0509  0879               	movwf	(___flmul@grs)
  3872  050A  00A9               
  3873                           	line	121
  3874                           	
  3875                           l2015:	
  3876  050B                     	movf	0+(___flmul@temp)+01h,w
  3877  050B  0834               	movwf	(??___flmul+0)+0
  3878  050C  00F9               	clrf	(??___flmul+0)+0+1
  3879  050D  01FA               	clrf	(??___flmul+0)+0+2
  3880  050E  01FB               	clrf	(??___flmul+0)+0+3
  3881  050F  01FC               	movf	3+(??___flmul+0)+0,w
  3882  0510  087C               	movwf	(___flmul@prod+3)
  3883  0511  00B2               	movf	2+(??___flmul+0)+0,w
  3884  0512  087B               	movwf	(___flmul@prod+2)
  3885  0513  00B1               	movf	1+(??___flmul+0)+0,w
  3886  0514  087A               	movwf	(___flmul@prod+1)
  3887  0515  00B0               	movf	0+(??___flmul+0)+0,w
  3888  0516  0879               	movwf	(___flmul@prod)
  3889  0517  00AF               
  3890                           	line	122
  3891                           	movf	0+(___flmul@b)+01h,w
  3892  0518  0821               	movwf	(??___flmul+0)+0
  3893  0519  00F9               	movf	(??___flmul+0)+0,w
  3894  051A  0879               	movwf	(__Umul8_16@multiplicand)
  3895  051B  00F0               	movf	0+(___flmul@a)+01h,w
  3896  051C  0825               	fcall	__Umul8_16
  3897  051D  120A  158A  2394  120A  118A  	movf	(1+(?__Umul8_16)),w
  3898  0522  0871               	bcf	status, 5	;RP0=0, select bank0
  3899  0523  1283               	bcf	status, 6	;RP1=0, select bank0
  3900  0524  1303               	movwf	(___flmul@temp+1)
  3901  0525  00B4               	movf	(0+(?__Umul8_16)),w
  3902  0526  0870               	movwf	(___flmul@temp)
  3903  0527  00B3               	line	123
  3904                           	
  3905                           l2017:	
  3906  0528                     	movf	(___flmul@temp),w
  3907  0528  0833               	movwf	(??___flmul+0)+0
  3908  0529  00F9               	clrf	(??___flmul+0)+0+1
  3909  052A  01FA               	clrf	(??___flmul+0)+0+2
  3910  052B  01FB               	clrf	(??___flmul+0)+0+3
  3911  052C  01FC               	movf	0+(??___flmul+0)+0,w
  3912  052D  0879               	addwf	(___flmul@grs),f
  3913  052E  07A9               	movf	1+(??___flmul+0)+0,w
  3914  052F  087A               	clrz
  3915  0530  1103               	skipnc
  3916  0531  1803               	addlw	1
  3917  0532  3E01               	skipnz
  3918  0533  1903               	goto	u2251
  3919  0534  2D36               	addwf	(___flmul@grs+1),f
  3920  0535  07AA               u2251:
  3921  0536                     	movf	2+(??___flmul+0)+0,w
  3922  0536  087B               	clrz
  3923  0537  1103               	skipnc
  3924  0538  1803               	addlw	1
  3925  0539  3E01               	skipnz
  3926  053A  1903               	goto	u2252
  3927  053B  2D3D               	addwf	(___flmul@grs+2),f
  3928  053C  07AB               u2252:
  3929  053D                     	movf	3+(??___flmul+0)+0,w
  3930  053D  087C               	clrz
  3931  053E  1103               	skipnc
  3932  053F  1803               	addlw	1
  3933  0540  3E01               	skipnz
  3934  0541  1903               	goto	u2253
  3935  0542  2D44               	addwf	(___flmul@grs+3),f
  3936  0543  07AC               u2253:
  3937  0544                     
  3938                           	line	124
  3939                           	
  3940                           l2019:	
  3941  0544                     	movf	0+(___flmul@temp)+01h,w
  3942  0544  0834               	movwf	(??___flmul+0)+0
  3943  0545  00F9               	clrf	(??___flmul+0)+0+1
  3944  0546  01FA               	clrf	(??___flmul+0)+0+2
  3945  0547  01FB               	clrf	(??___flmul+0)+0+3
  3946  0548  01FC               	movf	0+(??___flmul+0)+0,w
  3947  0549  0879               	addwf	(___flmul@prod),f
  3948  054A  07AF               	movf	1+(??___flmul+0)+0,w
  3949  054B  087A               	clrz
  3950  054C  1103               	skipnc
  3951  054D  1803               	addlw	1
  3952  054E  3E01               	skipnz
  3953  054F  1903               	goto	u2261
  3954  0550  2D52               	addwf	(___flmul@prod+1),f
  3955  0551  07B0               u2261:
  3956  0552                     	movf	2+(??___flmul+0)+0,w
  3957  0552  087B               	clrz
  3958  0553  1103               	skipnc
  3959  0554  1803               	addlw	1
  3960  0555  3E01               	skipnz
  3961  0556  1903               	goto	u2262
  3962  0557  2D59               	addwf	(___flmul@prod+2),f
  3963  0558  07B1               u2262:
  3964  0559                     	movf	3+(??___flmul+0)+0,w
  3965  0559  087C               	clrz
  3966  055A  1103               	skipnc
  3967  055B  1803               	addlw	1
  3968  055C  3E01               	skipnz
  3969  055D  1903               	goto	u2263
  3970  055E  2D60               	addwf	(___flmul@prod+3),f
  3971  055F  07B2               u2263:
  3972  0560                     
  3973                           	line	125
  3974                           	movf	0+(___flmul@b)+02h,w
  3975  0560  0822               	movwf	(??___flmul+0)+0
  3976  0561  00F9               	movf	(??___flmul+0)+0,w
  3977  0562  0879               	movwf	(__Umul8_16@multiplicand)
  3978  0563  00F0               	movf	(___flmul@a),w
  3979  0564  0824               	fcall	__Umul8_16
  3980  0565  120A  158A  2394  120A  118A  	movf	(1+(?__Umul8_16)),w
  3981  056A  0871               	bcf	status, 5	;RP0=0, select bank0
  3982  056B  1283               	bcf	status, 6	;RP1=0, select bank0
  3983  056C  1303               	movwf	(___flmul@temp+1)
  3984  056D  00B4               	movf	(0+(?__Umul8_16)),w
  3985  056E  0870               	movwf	(___flmul@temp)
  3986  056F  00B3               	line	126
  3987                           	
  3988                           l2021:	
  3989  0570                     	movf	(___flmul@temp),w
  3990  0570  0833               	movwf	(??___flmul+0)+0
  3991  0571  00F9               	clrf	(??___flmul+0)+0+1
  3992  0572  01FA               	clrf	(??___flmul+0)+0+2
  3993  0573  01FB               	clrf	(??___flmul+0)+0+3
  3994  0574  01FC               	movf	0+(??___flmul+0)+0,w
  3995  0575  0879               	addwf	(___flmul@grs),f
  3996  0576  07A9               	movf	1+(??___flmul+0)+0,w
  3997  0577  087A               	clrz
  3998  0578  1103               	skipnc
  3999  0579  1803               	addlw	1
  4000  057A  3E01               	skipnz
  4001  057B  1903               	goto	u2271
  4002  057C  2D7E               	addwf	(___flmul@grs+1),f
  4003  057D  07AA               u2271:
  4004  057E                     	movf	2+(??___flmul+0)+0,w
  4005  057E  087B               	clrz
  4006  057F  1103               	skipnc
  4007  0580  1803               	addlw	1
  4008  0581  3E01               	skipnz
  4009  0582  1903               	goto	u2272
  4010  0583  2D85               	addwf	(___flmul@grs+2),f
  4011  0584  07AB               u2272:
  4012  0585                     	movf	3+(??___flmul+0)+0,w
  4013  0585  087C               	clrz
  4014  0586  1103               	skipnc
  4015  0587  1803               	addlw	1
  4016  0588  3E01               	skipnz
  4017  0589  1903               	goto	u2273
  4018  058A  2D8C               	addwf	(___flmul@grs+3),f
  4019  058B  07AC               u2273:
  4020  058C                     
  4021                           	line	127
  4022                           	
  4023                           l2023:	
  4024  058C                     	movf	0+(___flmul@temp)+01h,w
  4025  058C  0834               	movwf	(??___flmul+0)+0
  4026  058D  00F9               	clrf	(??___flmul+0)+0+1
  4027  058E  01FA               	clrf	(??___flmul+0)+0+2
  4028  058F  01FB               	clrf	(??___flmul+0)+0+3
  4029  0590  01FC               	movf	0+(??___flmul+0)+0,w
  4030  0591  0879               	addwf	(___flmul@prod),f
  4031  0592  07AF               	movf	1+(??___flmul+0)+0,w
  4032  0593  087A               	clrz
  4033  0594  1103               	skipnc
  4034  0595  1803               	addlw	1
  4035  0596  3E01               	skipnz
  4036  0597  1903               	goto	u2281
  4037  0598  2D9A               	addwf	(___flmul@prod+1),f
  4038  0599  07B0               u2281:
  4039  059A                     	movf	2+(??___flmul+0)+0,w
  4040  059A  087B               	clrz
  4041  059B  1103               	skipnc
  4042  059C  1803               	addlw	1
  4043  059D  3E01               	skipnz
  4044  059E  1903               	goto	u2282
  4045  059F  2DA1               	addwf	(___flmul@prod+2),f
  4046  05A0  07B1               u2282:
  4047  05A1                     	movf	3+(??___flmul+0)+0,w
  4048  05A1  087C               	clrz
  4049  05A2  1103               	skipnc
  4050  05A3  1803               	addlw	1
  4051  05A4  3E01               	skipnz
  4052  05A5  1903               	goto	u2283
  4053  05A6  2DA8               	addwf	(___flmul@prod+3),f
  4054  05A7  07B2               u2283:
  4055  05A8                     
  4056                           	line	128
  4057                           	
  4058                           l2025:	
  4059  05A8                     	movlw	08h
  4060  05A8  3008               	movwf	(??___flmul+0)+0
  4061  05A9  00F9               u2295:
  4062  05AA                     	clrc
  4063  05AA  1003               	rlf	(___flmul@grs),f
  4064  05AB  0DA9               	rlf	(___flmul@grs+1),f
  4065  05AC  0DAA               	rlf	(___flmul@grs+2),f
  4066  05AD  0DAB               	rlf	(___flmul@grs+3),f
  4067  05AE  0DAC               	decfsz	(??___flmul+0)+0
  4068  05AF  0BF9               	goto	u2295
  4069  05B0  2DAA               	line	129
  4070                           	
  4071                           l2027:	
  4072  05B1                     	movf	0+(___flmul@b)+01h,w
  4073  05B1  0821               	movwf	(??___flmul+0)+0
  4074  05B2  00F9               	movf	(??___flmul+0)+0,w
  4075  05B3  0879               	movwf	(__Umul8_16@multiplicand)
  4076  05B4  00F0               	movf	(___flmul@a),w
  4077  05B5  0824               	fcall	__Umul8_16
  4078  05B6  120A  158A  2394  120A  118A  	movf	(1+(?__Umul8_16)),w
  4079  05BB  0871               	bcf	status, 5	;RP0=0, select bank0
  4080  05BC  1283               	bcf	status, 6	;RP1=0, select bank0
  4081  05BD  1303               	movwf	(___flmul@temp+1)
  4082  05BE  00B4               	movf	(0+(?__Umul8_16)),w
  4083  05BF  0870               	movwf	(___flmul@temp)
  4084  05C0  00B3               	line	130
  4085                           	
  4086                           l2029:	
  4087  05C1                     	movf	(___flmul@temp),w
  4088  05C1  0833               	movwf	((??___flmul+0)+0)
  4089  05C2  00F9               	movf	(___flmul@temp+1),w
  4090  05C3  0834               	movwf	((??___flmul+0)+0+1)
  4091  05C4  00FA               	clrf	((??___flmul+0)+0+2)
  4092  05C5  01FB               	clrf	((??___flmul+0)+0+3)
  4093  05C6  01FC               	movf	0+(??___flmul+0)+0,w
  4094  05C7  0879               	addwf	(___flmul@grs),f
  4095  05C8  07A9               	movf	1+(??___flmul+0)+0,w
  4096  05C9  087A               	clrz
  4097  05CA  1103               	skipnc
  4098  05CB  1803               	addlw	1
  4099  05CC  3E01               	skipnz
  4100  05CD  1903               	goto	u2301
  4101  05CE  2DD0               	addwf	(___flmul@grs+1),f
  4102  05CF  07AA               u2301:
  4103  05D0                     	movf	2+(??___flmul+0)+0,w
  4104  05D0  087B               	clrz
  4105  05D1  1103               	skipnc
  4106  05D2  1803               	addlw	1
  4107  05D3  3E01               	skipnz
  4108  05D4  1903               	goto	u2302
  4109  05D5  2DD7               	addwf	(___flmul@grs+2),f
  4110  05D6  07AB               u2302:
  4111  05D7                     	movf	3+(??___flmul+0)+0,w
  4112  05D7  087C               	clrz
  4113  05D8  1103               	skipnc
  4114  05D9  1803               	addlw	1
  4115  05DA  3E01               	skipnz
  4116  05DB  1903               	goto	u2303
  4117  05DC  2DDE               	addwf	(___flmul@grs+3),f
  4118  05DD  07AC               u2303:
  4119  05DE                     
  4120                           	line	131
  4121                           	
  4122                           l2031:	
  4123  05DE                     	movf	(___flmul@b),w
  4124  05DE  0820               	movwf	(??___flmul+0)+0
  4125  05DF  00F9               	movf	(??___flmul+0)+0,w
  4126  05E0  0879               	movwf	(__Umul8_16@multiplicand)
  4127  05E1  00F0               	movf	0+(___flmul@a)+01h,w
  4128  05E2  0825               	fcall	__Umul8_16
  4129  05E3  120A  158A  2394  120A  118A  	movf	(1+(?__Umul8_16)),w
  4130  05E8  0871               	bcf	status, 5	;RP0=0, select bank0
  4131  05E9  1283               	bcf	status, 6	;RP1=0, select bank0
  4132  05EA  1303               	movwf	(___flmul@temp+1)
  4133  05EB  00B4               	movf	(0+(?__Umul8_16)),w
  4134  05EC  0870               	movwf	(___flmul@temp)
  4135  05ED  00B3               	line	132
  4136                           	
  4137                           l2033:	
  4138  05EE                     	movf	(___flmul@temp),w
  4139  05EE  0833               	movwf	((??___flmul+0)+0)
  4140  05EF  00F9               	movf	(___flmul@temp+1),w
  4141  05F0  0834               	movwf	((??___flmul+0)+0+1)
  4142  05F1  00FA               	clrf	((??___flmul+0)+0+2)
  4143  05F2  01FB               	clrf	((??___flmul+0)+0+3)
  4144  05F3  01FC               	movf	0+(??___flmul+0)+0,w
  4145  05F4  0879               	addwf	(___flmul@grs),f
  4146  05F5  07A9               	movf	1+(??___flmul+0)+0,w
  4147  05F6  087A               	clrz
  4148  05F7  1103               	skipnc
  4149  05F8  1803               	addlw	1
  4150  05F9  3E01               	skipnz
  4151  05FA  1903               	goto	u2311
  4152  05FB  2DFD               	addwf	(___flmul@grs+1),f
  4153  05FC  07AA               u2311:
  4154  05FD                     	movf	2+(??___flmul+0)+0,w
  4155  05FD  087B               	clrz
  4156  05FE  1103               	skipnc
  4157  05FF  1803               	addlw	1
  4158  0600  3E01               	skipnz
  4159  0601  1903               	goto	u2312
  4160  0602  2E04               	addwf	(___flmul@grs+2),f
  4161  0603  07AB               u2312:
  4162  0604                     	movf	3+(??___flmul+0)+0,w
  4163  0604  087C               	clrz
  4164  0605  1103               	skipnc
  4165  0606  1803               	addlw	1
  4166  0607  3E01               	skipnz
  4167  0608  1903               	goto	u2313
  4168  0609  2E0B               	addwf	(___flmul@grs+3),f
  4169  060A  07AC               u2313:
  4170  060B                     
  4171                           	line	133
  4172                           	
  4173                           l2035:	
  4174  060B                     	movlw	08h
  4175  060B  3008               	movwf	(??___flmul+0)+0
  4176  060C  00F9               u2325:
  4177  060D                     	clrc
  4178  060D  1003               	rlf	(___flmul@grs),f
  4179  060E  0DA9               	rlf	(___flmul@grs+1),f
  4180  060F  0DAA               	rlf	(___flmul@grs+2),f
  4181  0610  0DAB               	rlf	(___flmul@grs+3),f
  4182  0611  0DAC               	decfsz	(??___flmul+0)+0
  4183  0612  0BF9               	goto	u2325
  4184  0613  2E0D               	line	134
  4185                           	movf	(___flmul@b),w
  4186  0614  0820               	movwf	(??___flmul+0)+0
  4187  0615  00F9               	movf	(??___flmul+0)+0,w
  4188  0616  0879               	movwf	(__Umul8_16@multiplicand)
  4189  0617  00F0               	movf	(___flmul@a),w
  4190  0618  0824               	fcall	__Umul8_16
  4191  0619  120A  158A  2394  120A  118A  	movf	(1+(?__Umul8_16)),w
  4192  061E  0871               	bcf	status, 5	;RP0=0, select bank0
  4193  061F  1283               	bcf	status, 6	;RP1=0, select bank0
  4194  0620  1303               	movwf	(___flmul@temp+1)
  4195  0621  00B4               	movf	(0+(?__Umul8_16)),w
  4196  0622  0870               	movwf	(___flmul@temp)
  4197  0623  00B3               	line	135
  4198                           	
  4199                           l2037:	
  4200  0624                     	movf	(___flmul@temp),w
  4201  0624  0833               	movwf	((??___flmul+0)+0)
  4202  0625  00F9               	movf	(___flmul@temp+1),w
  4203  0626  0834               	movwf	((??___flmul+0)+0+1)
  4204  0627  00FA               	clrf	((??___flmul+0)+0+2)
  4205  0628  01FB               	clrf	((??___flmul+0)+0+3)
  4206  0629  01FC               	movf	0+(??___flmul+0)+0,w
  4207  062A  0879               	addwf	(___flmul@grs),f
  4208  062B  07A9               	movf	1+(??___flmul+0)+0,w
  4209  062C  087A               	clrz
  4210  062D  1103               	skipnc
  4211  062E  1803               	addlw	1
  4212  062F  3E01               	skipnz
  4213  0630  1903               	goto	u2331
  4214  0631  2E33               	addwf	(___flmul@grs+1),f
  4215  0632  07AA               u2331:
  4216  0633                     	movf	2+(??___flmul+0)+0,w
  4217  0633  087B               	clrz
  4218  0634  1103               	skipnc
  4219  0635  1803               	addlw	1
  4220  0636  3E01               	skipnz
  4221  0637  1903               	goto	u2332
  4222  0638  2E3A               	addwf	(___flmul@grs+2),f
  4223  0639  07AB               u2332:
  4224  063A                     	movf	3+(??___flmul+0)+0,w
  4225  063A  087C               	clrz
  4226  063B  1103               	skipnc
  4227  063C  1803               	addlw	1
  4228  063D  3E01               	skipnz
  4229  063E  1903               	goto	u2333
  4230  063F  2E41               	addwf	(___flmul@grs+3),f
  4231  0640  07AC               u2333:
  4232  0641                     
  4233                           	line	136
  4234                           	
  4235                           l2039:	
  4236  0641                     	movf	0+(___flmul@b)+01h,w
  4237  0641  0821               	movwf	(??___flmul+0)+0
  4238  0642  00F9               	movf	(??___flmul+0)+0,w
  4239  0643  0879               	movwf	(__Umul8_16@multiplicand)
  4240  0644  00F0               	movf	0+(___flmul@a)+02h,w
  4241  0645  0826               	fcall	__Umul8_16
  4242  0646  120A  158A  2394  120A  118A  	movf	(1+(?__Umul8_16)),w
  4243  064B  0871               	bcf	status, 5	;RP0=0, select bank0
  4244  064C  1283               	bcf	status, 6	;RP1=0, select bank0
  4245  064D  1303               	movwf	(___flmul@temp+1)
  4246  064E  00B4               	movf	(0+(?__Umul8_16)),w
  4247  064F  0870               	movwf	(___flmul@temp)
  4248  0650  00B3               	line	137
  4249                           	movf	(___flmul@temp),w
  4250  0651  0833               	movwf	((??___flmul+0)+0)
  4251  0652  00F9               	movf	(___flmul@temp+1),w
  4252  0653  0834               	movwf	((??___flmul+0)+0+1)
  4253  0654  00FA               	clrf	((??___flmul+0)+0+2)
  4254  0655  01FB               	clrf	((??___flmul+0)+0+3)
  4255  0656  01FC               	movf	0+(??___flmul+0)+0,w
  4256  0657  0879               	addwf	(___flmul@prod),f
  4257  0658  07AF               	movf	1+(??___flmul+0)+0,w
  4258  0659  087A               	clrz
  4259  065A  1103               	skipnc
  4260  065B  1803               	addlw	1
  4261  065C  3E01               	skipnz
  4262  065D  1903               	goto	u2341
  4263  065E  2E60               	addwf	(___flmul@prod+1),f
  4264  065F  07B0               u2341:
  4265  0660                     	movf	2+(??___flmul+0)+0,w
  4266  0660  087B               	clrz
  4267  0661  1103               	skipnc
  4268  0662  1803               	addlw	1
  4269  0663  3E01               	skipnz
  4270  0664  1903               	goto	u2342
  4271  0665  2E67               	addwf	(___flmul@prod+2),f
  4272  0666  07B1               u2342:
  4273  0667                     	movf	3+(??___flmul+0)+0,w
  4274  0667  087C               	clrz
  4275  0668  1103               	skipnc
  4276  0669  1803               	addlw	1
  4277  066A  3E01               	skipnz
  4278  066B  1903               	goto	u2343
  4279  066C  2E6E               	addwf	(___flmul@prod+3),f
  4280  066D  07B2               u2343:
  4281  066E                     
  4282                           	line	138
  4283                           	
  4284                           l2041:	
  4285  066E                     	movf	0+(___flmul@b)+02h,w
  4286  066E  0822               	movwf	(??___flmul+0)+0
  4287  066F  00F9               	movf	(??___flmul+0)+0,w
  4288  0670  0879               	movwf	(__Umul8_16@multiplicand)
  4289  0671  00F0               	movf	0+(___flmul@a)+01h,w
  4290  0672  0825               	fcall	__Umul8_16
  4291  0673  120A  158A  2394  120A  118A  	movf	(1+(?__Umul8_16)),w
  4292  0678  0871               	bcf	status, 5	;RP0=0, select bank0
  4293  0679  1283               	bcf	status, 6	;RP1=0, select bank0
  4294  067A  1303               	movwf	(___flmul@temp+1)
  4295  067B  00B4               	movf	(0+(?__Umul8_16)),w
  4296  067C  0870               	movwf	(___flmul@temp)
  4297  067D  00B3               	line	139
  4298                           	
  4299                           l2043:	
  4300  067E                     	movf	(___flmul@temp),w
  4301  067E  0833               	movwf	((??___flmul+0)+0)
  4302  067F  00F9               	movf	(___flmul@temp+1),w
  4303  0680  0834               	movwf	((??___flmul+0)+0+1)
  4304  0681  00FA               	clrf	((??___flmul+0)+0+2)
  4305  0682  01FB               	clrf	((??___flmul+0)+0+3)
  4306  0683  01FC               	movf	0+(??___flmul+0)+0,w
  4307  0684  0879               	addwf	(___flmul@prod),f
  4308  0685  07AF               	movf	1+(??___flmul+0)+0,w
  4309  0686  087A               	clrz
  4310  0687  1103               	skipnc
  4311  0688  1803               	addlw	1
  4312  0689  3E01               	skipnz
  4313  068A  1903               	goto	u2351
  4314  068B  2E8D               	addwf	(___flmul@prod+1),f
  4315  068C  07B0               u2351:
  4316  068D                     	movf	2+(??___flmul+0)+0,w
  4317  068D  087B               	clrz
  4318  068E  1103               	skipnc
  4319  068F  1803               	addlw	1
  4320  0690  3E01               	skipnz
  4321  0691  1903               	goto	u2352
  4322  0692  2E94               	addwf	(___flmul@prod+2),f
  4323  0693  07B1               u2352:
  4324  0694                     	movf	3+(??___flmul+0)+0,w
  4325  0694  087C               	clrz
  4326  0695  1103               	skipnc
  4327  0696  1803               	addlw	1
  4328  0697  3E01               	skipnz
  4329  0698  1903               	goto	u2353
  4330  0699  2E9B               	addwf	(___flmul@prod+3),f
  4331  069A  07B2               u2353:
  4332  069B                     
  4333                           	line	140
  4334                           	movf	0+(___flmul@b)+02h,w
  4335  069B  0822               	movwf	(??___flmul+0)+0
  4336  069C  00F9               	movf	(??___flmul+0)+0,w
  4337  069D  0879               	movwf	(__Umul8_16@multiplicand)
  4338  069E  00F0               	movf	0+(___flmul@a)+02h,w
  4339  069F  0826               	fcall	__Umul8_16
  4340  06A0  120A  158A  2394  120A  118A  	movf	(1+(?__Umul8_16)),w
  4341  06A5  0871               	bcf	status, 5	;RP0=0, select bank0
  4342  06A6  1283               	bcf	status, 6	;RP1=0, select bank0
  4343  06A7  1303               	movwf	(___flmul@temp+1)
  4344  06A8  00B4               	movf	(0+(?__Umul8_16)),w
  4345  06A9  0870               	movwf	(___flmul@temp)
  4346  06AA  00B3               	line	141
  4347                           	
  4348                           l2045:	
  4349  06AB                     	movf	(___flmul@temp),w
  4350  06AB  0833               	movwf	((??___flmul+0)+0)
  4351  06AC  00F9               	movf	(___flmul@temp+1),w
  4352  06AD  0834               	movwf	((??___flmul+0)+0+1)
  4353  06AE  00FA               	clrf	((??___flmul+0)+0+2)
  4354  06AF  01FB               	clrf	((??___flmul+0)+0+3)
  4355  06B0  01FC               	movlw	08h
  4356  06B1  3008               u2365:
  4357  06B2                     	clrc
  4358  06B2  1003               	rlf	(??___flmul+0)+0,f
  4359  06B3  0DF9               	rlf	(??___flmul+0)+1,f
  4360  06B4  0DFA               	rlf	(??___flmul+0)+2,f
  4361  06B5  0DFB               	rlf	(??___flmul+0)+3,f
  4362  06B6  0DFC               u2360:
  4363  06B7                     	addlw	-1
  4364  06B7  3EFF               	skipz
  4365  06B8  1D03               	goto	u2365
  4366  06B9  2EB2               	movf	0+(??___flmul+0)+0,w
  4367  06BA  0879               	addwf	(___flmul@prod),f
  4368  06BB  07AF               	movf	1+(??___flmul+0)+0,w
  4369  06BC  087A               	clrz
  4370  06BD  1103               	skipnc
  4371  06BE  1803               	addlw	1
  4372  06BF  3E01               	skipnz
  4373  06C0  1903               	goto	u2371
  4374  06C1  2EC3               	addwf	(___flmul@prod+1),f
  4375  06C2  07B0               u2371:
  4376  06C3                     	movf	2+(??___flmul+0)+0,w
  4377  06C3  087B               	clrz
  4378  06C4  1103               	skipnc
  4379  06C5  1803               	addlw	1
  4380  06C6  3E01               	skipnz
  4381  06C7  1903               	goto	u2372
  4382  06C8  2ECA               	addwf	(___flmul@prod+2),f
  4383  06C9  07B1               u2372:
  4384  06CA                     	movf	3+(??___flmul+0)+0,w
  4385  06CA  087C               	clrz
  4386  06CB  1103               	skipnc
  4387  06CC  1803               	addlw	1
  4388  06CD  3E01               	skipnz
  4389  06CE  1903               	goto	u2373
  4390  06CF  2ED1               	addwf	(___flmul@prod+3),f
  4391  06D0  07B2               u2373:
  4392  06D1                     
  4393                           	line	145
  4394                           	
  4395                           l2047:	
  4396  06D1                     	movf	(___flmul@grs),w
  4397  06D1  0829               	movwf	(??___flmul+0)+0
  4398  06D2  00F9               	movf	(___flmul@grs+1),w
  4399  06D3  082A               	movwf	((??___flmul+0)+0+1)
  4400  06D4  00FA               	movf	(___flmul@grs+2),w
  4401  06D5  082B               	movwf	((??___flmul+0)+0+2)
  4402  06D6  00FB               	movf	(___flmul@grs+3),w
  4403  06D7  082C               	movwf	((??___flmul+0)+0+3)
  4404  06D8  00FC               	movlw	018h
  4405  06D9  3018               u2385:
  4406  06DA                     	clrc
  4407  06DA  1003               	rrf	(??___flmul+0)+3,f
  4408  06DB  0CFC               	rrf	(??___flmul+0)+2,f
  4409  06DC  0CFB               	rrf	(??___flmul+0)+1,f
  4410  06DD  0CFA               	rrf	(??___flmul+0)+0,f
  4411  06DE  0CF9               u2380:
  4412  06DF                     	addlw	-1
  4413  06DF  3EFF               	skipz
  4414  06E0  1D03               	goto	u2385
  4415  06E1  2EDA               	movf	0+(??___flmul+0)+0,w
  4416  06E2  0879               	addwf	(___flmul@prod),f
  4417  06E3  07AF               	movf	1+(??___flmul+0)+0,w
  4418  06E4  087A               	clrz
  4419  06E5  1103               	skipnc
  4420  06E6  1803               	addlw	1
  4421  06E7  3E01               	skipnz
  4422  06E8  1903               	goto	u2391
  4423  06E9  2EEB               	addwf	(___flmul@prod+1),f
  4424  06EA  07B0               u2391:
  4425  06EB                     	movf	2+(??___flmul+0)+0,w
  4426  06EB  087B               	clrz
  4427  06EC  1103               	skipnc
  4428  06ED  1803               	addlw	1
  4429  06EE  3E01               	skipnz
  4430  06EF  1903               	goto	u2392
  4431  06F0  2EF2               	addwf	(___flmul@prod+2),f
  4432  06F1  07B1               u2392:
  4433  06F2                     	movf	3+(??___flmul+0)+0,w
  4434  06F2  087C               	clrz
  4435  06F3  1103               	skipnc
  4436  06F4  1803               	addlw	1
  4437  06F5  3E01               	skipnz
  4438  06F6  1903               	goto	u2393
  4439  06F7  2EF9               	addwf	(___flmul@prod+3),f
  4440  06F8  07B2               u2393:
  4441  06F9                     
  4442                           	line	146
  4443                           	
  4444                           l2049:	
  4445  06F9                     	movlw	08h
  4446  06F9  3008               	movwf	(??___flmul+0)+0
  4447  06FA  00F9               u2405:
  4448  06FB                     	clrc
  4449  06FB  1003               	rlf	(___flmul@grs),f
  4450  06FC  0DA9               	rlf	(___flmul@grs+1),f
  4451  06FD  0DAA               	rlf	(___flmul@grs+2),f
  4452  06FE  0DAB               	rlf	(___flmul@grs+3),f
  4453  06FF  0DAC               	decfsz	(??___flmul+0)+0
  4454  0700  0BF9               	goto	u2405
  4455  0701  2EFB               	line	149
  4456                           	
  4457                           l2051:	
  4458  0702                     	movf	(___flmul@bexp),w
  4459  0702  082E               	addwf	(___flmul@aexp),w
  4460  0703  072D               	movwf	(??___flmul+0)+0
  4461  0704  00F9               	clrf	(??___flmul+0)+0+1
  4462  0705  01FA               	rlf	1+(??___flmul+0)+0,f
  4463  0706  0DFA               	
  4464                           	movf	0+(??___flmul+0)+0,w
  4465  0707  0879               	addlw	low(-126)
  4466  0708  3E82               	movwf	(___flmul@temp)
  4467  0709  00B3               	movf	1+(??___flmul+0)+0,w
  4468  070A  087A               	skipnc
  4469  070B  1803               	addlw	1
  4470  070C  3E01               	addlw	high(-126)
  4471  070D  3EFF               	movwf	1+(___flmul@temp)
  4472  070E  00B4               	line	152
  4473                           	goto	l2063
  4474  070F  2F2F               	
  4475                           l665:	
  4476  0710                     	line	153
  4477                           	
  4478                           l2053:	
  4479  0710                     	movlw	01h
  4480  0710  3001               	movwf	(??___flmul+0)+0
  4481  0711  00F9               u2415:
  4482  0712                     	clrc
  4483  0712  1003               	rlf	(___flmul@prod),f
  4484  0713  0DAF               	rlf	(___flmul@prod+1),f
  4485  0714  0DB0               	rlf	(___flmul@prod+2),f
  4486  0715  0DB1               	rlf	(___flmul@prod+3),f
  4487  0716  0DB2               	decfsz	(??___flmul+0)+0
  4488  0717  0BF9               	goto	u2415
  4489  0718  2F12               	line	154
  4490                           	
  4491                           l2055:	
  4492  0719                     	btfss	(___flmul@grs+3),(31)&7
  4493  0719  1FAC               	goto	u2421
  4494  071A  2F1C               	goto	u2420
  4495  071B  2F1D               u2421:
  4496  071C                     	goto	l2059
  4497  071C  2F1F               u2420:
  4498  071D                     	line	155
  4499                           	
  4500                           l2057:	
  4501  071D                     	bsf	(___flmul@prod)+(0/8),(0)&7
  4502  071D  142F               	goto	l2059
  4503  071E  2F1F               	line	156
  4504                           	
  4505                           l666:	
  4506  071F                     	line	157
  4507                           	
  4508                           l2059:	
  4509  071F                     	movlw	01h
  4510  071F  3001               	movwf	(??___flmul+0)+0
  4511  0720  00F9               u2435:
  4512  0721                     	clrc
  4513  0721  1003               	rlf	(___flmul@grs),f
  4514  0722  0DA9               	rlf	(___flmul@grs+1),f
  4515  0723  0DAA               	rlf	(___flmul@grs+2),f
  4516  0724  0DAB               	rlf	(___flmul@grs+3),f
  4517  0725  0DAC               	decfsz	(??___flmul+0)+0
  4518  0726  0BF9               	goto	u2435
  4519  0727  2F21               	line	158
  4520                           	
  4521                           l2061:	
  4522  0728                     	movlw	0FFh
  4523  0728  30FF               	addwf	(___flmul@temp),f
  4524  0729  07B3               	skipnc
  4525  072A  1803               	incf	(___flmul@temp+1),f
  4526  072B  0AB4               	movlw	0FFh
  4527  072C  30FF               	addwf	(___flmul@temp+1),f
  4528  072D  07B4               	goto	l2063
  4529  072E  2F2F               	line	159
  4530                           	
  4531                           l664:	
  4532  072F                     	line	152
  4533                           	
  4534                           l2063:	
  4535  072F                     	btfss	(___flmul@prod+2),(23)&7
  4536  072F  1FB1               	goto	u2441
  4537  0730  2F32               	goto	u2440
  4538  0731  2F33               u2441:
  4539  0732                     	goto	l2053
  4540  0732  2F10               u2440:
  4541  0733                     	goto	l2065
  4542  0733  2F34               	
  4543                           l667:	
  4544  0734                     	line	163
  4545                           	
  4546                           l2065:	
  4547  0734                     	clrf	(___flmul@aexp)
  4548  0734  01AD               	line	164
  4549                           	
  4550                           l2067:	
  4551  0735                     	btfss	(___flmul@grs+3),(31)&7
  4552  0735  1FAC               	goto	u2451
  4553  0736  2F38               	goto	u2450
  4554  0737  2F39               u2451:
  4555  0738                     	goto	l2075
  4556  0738  2F59               u2450:
  4557  0739                     	line	165
  4558                           	
  4559                           l2069:	
  4560  0739                     	movlw	0FFh
  4561  0739  30FF               	andwf	(___flmul@grs),w
  4562  073A  0529               	movwf	(??___flmul+0)+0
  4563  073B  00F9               	movlw	0FFh
  4564  073C  30FF               	andwf	(___flmul@grs+1),w
  4565  073D  052A               	movwf	((??___flmul+0)+0+1)
  4566  073E  00FA               	movlw	0FFh
  4567  073F  30FF               	andwf	(___flmul@grs+2),w
  4568  0740  052B               	movwf	((??___flmul+0)+0+2)
  4569  0741  00FB               	movlw	07Fh
  4570  0742  307F               	andwf	(___flmul@grs+3),w
  4571  0743  052C               	movwf	((??___flmul+0)+0+3)
  4572  0744  00FC               	movf	3+(??___flmul+0)+0,w
  4573  0745  087C               	iorwf	2+(??___flmul+0)+0,w
  4574  0746  047B               	iorwf	1+(??___flmul+0)+0,w
  4575  0747  047A               	iorwf	0+(??___flmul+0)+0,w
  4576  0748  0479               	skipnz
  4577  0749  1903               	goto	u2461
  4578  074A  2F4C               	goto	u2460
  4579  074B  2F4D               u2461:
  4580  074C                     	goto	l669
  4581  074C  2F50               u2460:
  4582  074D                     	line	166
  4583                           	
  4584                           l2071:	
  4585  074D                     	clrf	(___flmul@aexp)
  4586  074D  01AD               	incf	(___flmul@aexp),f
  4587  074E  0AAD               	line	167
  4588                           	goto	l2075
  4589  074F  2F59               	line	168
  4590                           	
  4591                           l669:	
  4592  0750                     	line	169
  4593                           	btfss	(___flmul@prod),(0)&7
  4594  0750  1C2F               	goto	u2471
  4595  0751  2F53               	goto	u2470
  4596  0752  2F54               u2471:
  4597  0753                     	goto	l2075
  4598  0753  2F59               u2470:
  4599  0754                     	line	170
  4600                           	
  4601                           l2073:	
  4602  0754                     	clrf	(___flmul@aexp)
  4603  0754  01AD               	incf	(___flmul@aexp),f
  4604  0755  0AAD               	goto	l2075
  4605  0756  2F59               	line	171
  4606                           	
  4607                           l671:	
  4608  0757                     	goto	l2075
  4609  0757  2F59               	line	172
  4610                           	
  4611                           l670:	
  4612  0758                     	goto	l2075
  4613  0758  2F59               	line	173
  4614                           	
  4615                           l668:	
  4616  0759                     	line	174
  4617                           	
  4618                           l2075:	
  4619  0759                     	movf	((___flmul@aexp)),w
  4620  0759  082D               	btfsc	status,2
  4621  075A  1903               	goto	u2481
  4622  075B  2F5D               	goto	u2480
  4623  075C  2F5E               u2481:
  4624  075D                     	goto	l2085
  4625  075D  2F91               u2480:
  4626  075E                     	line	175
  4627                           	
  4628                           l2077:	
  4629  075E                     	movlw	01h
  4630  075E  3001               	addwf	(___flmul@prod),f
  4631  075F  07AF               	movlw	0
  4632  0760  3000               	skipnc
  4633  0761  1803               movlw 1
  4634  0762  3001               	addwf	(___flmul@prod+1),f
  4635  0763  07B0               	movlw	0
  4636  0764  3000               	skipnc
  4637  0765  1803               movlw 1
  4638  0766  3001               	addwf	(___flmul@prod+2),f
  4639  0767  07B1               	movlw	0
  4640  0768  3000               	skipnc
  4641  0769  1803               movlw 1
  4642  076A  3001               	addwf	(___flmul@prod+3),f
  4643  076B  07B2               	line	176
  4644                           	
  4645                           l2079:	
  4646  076C                     	btfss	(___flmul@prod+3),(24)&7
  4647  076C  1C32               	goto	u2491
  4648  076D  2F6F               	goto	u2490
  4649  076E  2F70               u2491:
  4650  076F                     	goto	l2085
  4651  076F  2F91               u2490:
  4652  0770                     	line	177
  4653                           	
  4654                           l2081:	
  4655  0770                     	movf	(___flmul@prod),w
  4656  0770  082F               	movwf	(??___flmul+0)+0
  4657  0771  00F9               	movf	(___flmul@prod+1),w
  4658  0772  0830               	movwf	((??___flmul+0)+0+1)
  4659  0773  00FA               	movf	(___flmul@prod+2),w
  4660  0774  0831               	movwf	((??___flmul+0)+0+2)
  4661  0775  00FB               	movf	(___flmul@prod+3),w
  4662  0776  0832               	movwf	((??___flmul+0)+0+3)
  4663  0777  00FC               	movlw	01h
  4664  0778  3001               	movwf	(??___flmul+4)+0
  4665  0779  00FD               u2505:
  4666  077A                     	rlf	(??___flmul+0)+3,w
  4667  077A  0D7C               	rrf	(??___flmul+0)+3,f
  4668  077B  0CFC               	rrf	(??___flmul+0)+2,f
  4669  077C  0CFB               	rrf	(??___flmul+0)+1,f
  4670  077D  0CFA               	rrf	(??___flmul+0)+0,f
  4671  077E  0CF9               u2500:
  4672  077F                     	decfsz	(??___flmul+4)+0,f
  4673  077F  0BFD               	goto	u2505
  4674  0780  2F7A               	movf	3+(??___flmul+0)+0,w
  4675  0781  087C               	movwf	(___flmul@prod+3)
  4676  0782  00B2               	movf	2+(??___flmul+0)+0,w
  4677  0783  087B               	movwf	(___flmul@prod+2)
  4678  0784  00B1               	movf	1+(??___flmul+0)+0,w
  4679  0785  087A               	movwf	(___flmul@prod+1)
  4680  0786  00B0               	movf	0+(??___flmul+0)+0,w
  4681  0787  0879               	movwf	(___flmul@prod)
  4682  0788  00AF               
  4683                           	line	178
  4684                           	
  4685                           l2083:	
  4686  0789                     	movlw	01h
  4687  0789  3001               	addwf	(___flmul@temp),f
  4688  078A  07B3               	skipnc
  4689  078B  1803               	incf	(___flmul@temp+1),f
  4690  078C  0AB4               	movlw	0
  4691  078D  3000               	addwf	(___flmul@temp+1),f
  4692  078E  07B4               	goto	l2085
  4693  078F  2F91               	line	179
  4694                           	
  4695                           l673:	
  4696  0790                     	goto	l2085
  4697  0790  2F91               	line	180
  4698                           	
  4699                           l672:	
  4700  0791                     	line	183
  4701                           	
  4702                           l2085:	
  4703  0791                     	movf	(___flmul@temp+1),w
  4704  0791  0834               	xorlw	80h
  4705  0792  3A80               	movwf	btemp+1
  4706  0793  00FF               	movlw	(0)^80h
  4707  0794  3080               	subwf	btemp+1,w
  4708  0795  027F               	skipz
  4709  0796  1D03               	goto	u2515
  4710  0797  2F9A               	movlw	0FFh
  4711  0798  30FF               	subwf	(___flmul@temp),w
  4712  0799  0233               u2515:
  4713  079A                     
  4714                           	skipc
  4715  079A  1C03               	goto	u2511
  4716  079B  2F9D               	goto	u2510
  4717  079C  2F9E               u2511:
  4718  079D                     	goto	l2089
  4719  079D  2FA9               u2510:
  4720  079E                     	line	184
  4721                           	
  4722                           l2087:	
  4723  079E                     	movlw	07Fh
  4724  079E  307F               	bcf	status, 5	;RP0=0, select bank0
  4725  079F  1283               	bcf	status, 6	;RP1=0, select bank0
  4726  07A0  1303               	movwf	(___flmul@prod+3)
  4727  07A1  00B2               	movlw	080h
  4728  07A2  3080               	movwf	(___flmul@prod+2)
  4729  07A3  00B1               	movlw	0
  4730  07A4  3000               	movwf	(___flmul@prod+1)
  4731  07A5  00B0               	movlw	0
  4732  07A6  3000               	movwf	(___flmul@prod)
  4733  07A7  00AF               
  4734                           	line	185
  4735                           	goto	l675
  4736  07A8  2FE0               	line	187
  4737                           	
  4738                           l674:	
  4739  07A9                     	
  4740                           l2089:	
  4741  07A9                     	bcf	status, 5	;RP0=0, select bank0
  4742  07A9  1283               	bcf	status, 6	;RP1=0, select bank0
  4743  07AA  1303               	movf	(___flmul@temp+1),w
  4744  07AB  0834               	xorlw	80h
  4745  07AC  3A80               	movwf	btemp+1
  4746  07AD  00FF               	movlw	(0)^80h
  4747  07AE  3080               	subwf	btemp+1,w
  4748  07AF  027F               	skipz
  4749  07B0  1D03               	goto	u2525
  4750  07B1  2FB4               	movlw	01h
  4751  07B2  3001               	subwf	(___flmul@temp),w
  4752  07B3  0233               u2525:
  4753  07B4                     
  4754                           	skipnc
  4755  07B4  1803               	goto	u2521
  4756  07B5  2FB7               	goto	u2520
  4757  07B6  2FB8               u2521:
  4758  07B7                     	goto	l2095
  4759  07B7  2FC4               u2520:
  4760  07B8                     	line	188
  4761                           	
  4762                           l2091:	
  4763  07B8                     	movlw	high highword(0)
  4764  07B8  3000               	bcf	status, 5	;RP0=0, select bank0
  4765  07B9  1283               	bcf	status, 6	;RP1=0, select bank0
  4766  07BA  1303               	movwf	(___flmul@prod+3)
  4767  07BB  00B2               	movlw	low highword(0)
  4768  07BC  3000               	movwf	(___flmul@prod+2)
  4769  07BD  00B1               	movlw	high(0)
  4770  07BE  3000               	movwf	(___flmul@prod+1)
  4771  07BF  00B0               	movlw	low(0)
  4772  07C0  3000               	movwf	(___flmul@prod)
  4773  07C1  00AF               
  4774                           	line	190
  4775                           	
  4776                           l2093:	
  4777  07C2                     	clrf	(___flmul@sign)
  4778  07C2  01A8               	line	191
  4779                           	goto	l675
  4780  07C3  2FE0               	line	192
  4781                           	
  4782                           l676:	
  4783  07C4                     	line	194
  4784                           	
  4785                           l2095:	
  4786  07C4                     	bcf	status, 5	;RP0=0, select bank0
  4787  07C4  1283               	bcf	status, 6	;RP1=0, select bank0
  4788  07C5  1303               	movf	(___flmul@temp),w
  4789  07C6  0833               	movwf	(??___flmul+0)+0
  4790  07C7  00F9               	movf	(??___flmul+0)+0,w
  4791  07C8  0879               	movwf	(___flmul@bexp)
  4792  07C9  00AE               	line	195
  4793                           	movlw	0FFh
  4794  07CA  30FF               	andwf	(___flmul@prod),f
  4795  07CB  05AF               	movlw	0FFh
  4796  07CC  30FF               	andwf	(___flmul@prod+1),f
  4797  07CD  05B0               	movlw	07Fh
  4798  07CE  307F               	andwf	(___flmul@prod+2),f
  4799  07CF  05B1               	movlw	0
  4800  07D0  3000               	andwf	(___flmul@prod+3),f
  4801  07D1  05B2               	line	196
  4802                           	
  4803                           l2097:	
  4804  07D2                     	btfss	(___flmul@bexp),(0)&7
  4805  07D2  1C2E               	goto	u2531
  4806  07D3  2FD5               	goto	u2530
  4807  07D4  2FD6               u2531:
  4808  07D5                     	goto	l2101
  4809  07D5  2FD8               u2530:
  4810  07D6                     	line	197
  4811                           	
  4812                           l2099:	
  4813  07D6                     	bsf	0+(___flmul@prod)+02h+(7/8),(7)&7
  4814  07D6  17B1               	goto	l2101
  4815  07D7  2FD8               	line	198
  4816                           	
  4817                           l678:	
  4818  07D8                     	line	199
  4819                           	
  4820                           l2101:	
  4821  07D8                     	movf	(___flmul@bexp),w
  4822  07D8  082E               	movwf	(??___flmul+0)+0
  4823  07D9  00F9               	clrc
  4824  07DA  1003               	rrf	(??___flmul+0)+0,w
  4825  07DB  0C79               	movwf	(??___flmul+1)+0
  4826  07DC  00FA               	movf	(??___flmul+1)+0,w
  4827  07DD  087A               	movwf	0+(___flmul@prod)+03h
  4828  07DE  00B2               	goto	l675
  4829  07DF  2FE0               	line	200
  4830                           	
  4831                           l677:	
  4832  07E0                     	
  4833                           l675:	
  4834  07E0                     	line	201
  4835                           	movf	(___flmul@sign),w
  4836  07E0  0828               	movwf	(??___flmul+0)+0
  4837  07E1  00F9               	movf	(??___flmul+0)+0,w
  4838  07E2  0879               	iorwf	0+(___flmul@prod)+03h,f
  4839  07E3  04B2               	line	203
  4840                           	
  4841                           l2103:	
  4842  07E4                     	movf	(___flmul@prod+3),w
  4843  07E4  0832               	movwf	(?___flmul+3)
  4844  07E5  00A3               	movf	(___flmul@prod+2),w
  4845  07E6  0831               	movwf	(?___flmul+2)
  4846  07E7  00A2               	movf	(___flmul@prod+1),w
  4847  07E8  0830               	movwf	(?___flmul+1)
  4848  07E9  00A1               	movf	(___flmul@prod),w
  4849  07EA  082F               	movwf	(?___flmul)
  4850  07EB  00A0               
  4851                           	goto	l663
  4852  07EC  2FED               	
  4853                           l2105:	
  4854  07ED                     	line	205
  4855                           	
  4856                           l663:	
  4857  07ED                     	return
  4858  07ED  0008               	opt stack 0
  4859                           GLOBAL	__end_of___flmul
  4860                           	__end_of___flmul:
  4861  07EE                     	signat	___flmul,8316
  4862                           	global	__Umul8_16
  4863                           
  4864 ;; *************** function __Umul8_16 *****************
  4865 ;; Defined at:
  4866 ;;		line 4 in file "C:\Program Files (x86)\Microchip\xc8\v2.00\pic\sources\c90\common\Umul8_16.c"
  4867 ;; Parameters:    Size  Location     Type
  4868 ;;  multiplier      1    wreg     unsigned char 
  4869 ;;  multiplicand    1    0[COMMON] unsigned char 
  4870 ;; Auto vars:     Size  Location     Type
  4871 ;;  multiplier      1    8[COMMON] unsigned char 
  4872 ;;  word_mpld       2    6[COMMON] unsigned int 
  4873 ;;  product         2    4[COMMON] unsigned int 
  4874 ;; Return value:  Size  Location     Type
  4875 ;;                  2    0[COMMON] unsigned int 
  4876 ;; Registers used:
  4877 ;;		wreg, status,2, status,0
  4878 ;; Tracked objects:
  4879 ;;		On entry : 0/0
  4880 ;;		On exit  : 0/0
  4881 ;;		Unchanged: 0/0
  4882 ;; Data sizes:     COMMON   BANK0   BANK1   BANK3   BANK2
  4883 ;;      Params:         2       0       0       0       0
  4884 ;;      Locals:         5       0       0       0       0
  4885 ;;      Temps:          2       0       0       0       0
  4886 ;;      Totals:         9       0       0       0       0
  4887 ;;Total ram usage:        9 bytes
  4888 ;; Hardware stack levels used:    1
  4889 ;; This function calls:
  4890 ;;		Nothing
  4891 ;; This function is called by:
  4892 ;;		___flmul
  4893 ;; This function uses a non-reentrant model
  4894 ;;
  4895                           psect	text7,local,class=CODE,delta=2,merge=1,group=1
  4896                           	file	"C:\Program Files (x86)\Microchip\xc8\v2.00\pic\sources\c90\common\Umul8_16.c"
  4897                           	line	4
  4898                           global __ptext7
  4899                           __ptext7:	;psect for function __Umul8_16
  4900  0B94                     psect	text7
  4901                           	file	"C:\Program Files (x86)\Microchip\xc8\v2.00\pic\sources\c90\common\Umul8_16.c"
  4902                           	line	4
  4903                           	global	__size_of__Umul8_16
  4904                           	__size_of__Umul8_16	equ	__end_of__Umul8_16-__Umul8_16
  4905  002A                     	
  4906                           __Umul8_16:	
  4907  0B94                     ;incstack = 0
  4908                           	opt	stack 6
  4909                           ; Regs used in __Umul8_16: [wreg+status,2+status,0]
  4910                           ;__Umul8_16@multiplier stored from wreg
  4911                           	movwf	(__Umul8_16@multiplier)
  4912  0B94  00F8               	line	5
  4913                           	
  4914                           l1609:	
  4915  0B95                     	clrf	(__Umul8_16@product)
  4916  0B95  01F4               	clrf	(__Umul8_16@product+1)
  4917  0B96  01F5               	line	6
  4918                           	
  4919                           l1611:	
  4920  0B97                     	movf	(__Umul8_16@multiplicand),w
  4921  0B97  0870               	movwf	(??__Umul8_16+0)+0
  4922  0B98  00F2               	clrf	(??__Umul8_16+0)+0+1
  4923  0B99  01F3               	movf	0+(??__Umul8_16+0)+0,w
  4924  0B9A  0872               	movwf	(__Umul8_16@word_mpld)
  4925  0B9B  00F6               	movf	1+(??__Umul8_16+0)+0,w
  4926  0B9C  0873               	movwf	(__Umul8_16@word_mpld+1)
  4927  0B9D  00F7               	goto	l1613
  4928  0B9E  2B9F               	line	50
  4929                           	
  4930                           l700:	
  4931  0B9F                     	line	51
  4932                           	
  4933                           l1613:	
  4934  0B9F                     	btfss	(__Umul8_16@multiplier),(0)&7
  4935  0B9F  1C78               	goto	u1431
  4936  0BA0  2BA2               	goto	u1430
  4937  0BA1  2BA3               u1431:
  4938  0BA2                     	goto	l701
  4939  0BA2  2BA9               u1430:
  4940  0BA3                     	line	52
  4941                           	
  4942                           l1615:	
  4943  0BA3                     	movf	(__Umul8_16@word_mpld),w
  4944  0BA3  0876               	addwf	(__Umul8_16@product),f
  4945  0BA4  07F4               	skipnc
  4946  0BA5  1803               	incf	(__Umul8_16@product+1),f
  4947  0BA6  0AF5               	movf	(__Umul8_16@word_mpld+1),w
  4948  0BA7  0877               	addwf	(__Umul8_16@product+1),f
  4949  0BA8  07F5               	line	53
  4950                           	
  4951                           l701:	
  4952  0BA9                     	line	54
  4953                           	movlw	01h
  4954  0BA9  3001               	
  4955                           u1445:
  4956  0BAA                     	clrc
  4957  0BAA  1003               	rlf	(__Umul8_16@word_mpld),f
  4958  0BAB  0DF6               	rlf	(__Umul8_16@word_mpld+1),f
  4959  0BAC  0DF7               	addlw	-1
  4960  0BAD  3EFF               	skipz
  4961  0BAE  1D03               	goto	u1445
  4962  0BAF  2BAA               	line	55
  4963                           	clrc
  4964  0BB0  1003               	rrf	(__Umul8_16@multiplier),f
  4965  0BB1  0CF8               
  4966                           	line	56
  4967                           	
  4968                           l1617:	
  4969  0BB2                     	movf	((__Umul8_16@multiplier)),w
  4970  0BB2  0878               	btfss	status,2
  4971  0BB3  1D03               	goto	u1451
  4972  0BB4  2BB6               	goto	u1450
  4973  0BB5  2BB7               u1451:
  4974  0BB6                     	goto	l1613
  4975  0BB6  2B9F               u1450:
  4976  0BB7                     	goto	l1619
  4977  0BB7  2BB8               	
  4978                           l702:	
  4979  0BB8                     	line	59
  4980                           	
  4981                           l1619:	
  4982  0BB8                     	movf	(__Umul8_16@product+1),w
  4983  0BB8  0875               	movwf	(?__Umul8_16+1)
  4984  0BB9  00F1               	movf	(__Umul8_16@product),w
  4985  0BBA  0874               	movwf	(?__Umul8_16)
  4986  0BBB  00F0               	goto	l703
  4987  0BBC  2BBD               	
  4988                           l1621:	
  4989  0BBD                     	line	60
  4990                           	
  4991                           l703:	
  4992  0BBD                     	return
  4993  0BBD  0008               	opt stack 0
  4994                           GLOBAL	__end_of__Umul8_16
  4995                           	__end_of__Umul8_16:
  4996  0BBE                     	signat	__Umul8_16,8314
  4997                           	global	___fldiv
  4998                           
  4999 ;; *************** function ___fldiv *****************
  5000 ;; Defined at:
  5001 ;;		line 8 in file "C:\Program Files (x86)\Microchip\xc8\v2.00\pic\sources\c90\common\sprcdiv.c"
  5002 ;; Parameters:    Size  Location     Type
  5003 ;;  a               4    0[COMMON] unsigned int 
  5004 ;;  b               4    4[COMMON] unsigned int 
  5005 ;; Auto vars:     Size  Location     Type
  5006 ;;  grs             4    7[BANK0 ] unsigned long 
  5007 ;;  rem             4    0[BANK0 ] unsigned long 
  5008 ;;  new_exp         2    5[BANK0 ] int 
  5009 ;;  aexp            1   12[BANK0 ] unsigned char 
  5010 ;;  bexp            1   11[BANK0 ] unsigned char 
  5011 ;;  sign            1    4[BANK0 ] unsigned char 
  5012 ;; Return value:  Size  Location     Type
  5013 ;;                  4    0[COMMON] unsigned char 
  5014 ;; Registers used:
  5015 ;;		wreg, status,2, status,0, btemp+1
  5016 ;; Tracked objects:
  5017 ;;		On entry : 0/0
  5018 ;;		On exit  : 0/0
  5019 ;;		Unchanged: 0/0
  5020 ;; Data sizes:     COMMON   BANK0   BANK1   BANK3   BANK2
  5021 ;;      Params:         8       0       0       0       0
  5022 ;;      Locals:         0      13       0       0       0
  5023 ;;      Temps:          5       0       0       0       0
  5024 ;;      Totals:        13      13       0       0       0
  5025 ;;Total ram usage:       26 bytes
  5026 ;; Hardware stack levels used:    1
  5027 ;; This function calls:
  5028 ;;		Nothing
  5029 ;; This function is called by:
  5030 ;;		_main
  5031 ;; This function uses a non-reentrant model
  5032 ;;
  5033                           psect	text8,local,class=CODE,delta=2,merge=1,group=1
  5034                           	file	"C:\Program Files (x86)\Microchip\xc8\v2.00\pic\sources\c90\common\sprcdiv.c"
  5035                           	line	8
  5036                           global __ptext8
  5037                           __ptext8:	;psect for function ___fldiv
  5038  0DF1                     psect	text8
  5039                           	file	"C:\Program Files (x86)\Microchip\xc8\v2.00\pic\sources\c90\common\sprcdiv.c"
  5040                           	line	8
  5041                           	global	__size_of___fldiv
  5042                           	__size_of___fldiv	equ	__end_of___fldiv-___fldiv
  5043  020F                     	
  5044                           ___fldiv:	
  5045  0DF1                     ;incstack = 0
  5046                           	opt	stack 7
  5047                           ; Regs used in ___fldiv: [wreg+status,2+status,0+btemp+1]
  5048                           	line	26
  5049                           	
  5050                           l1825:	
  5051  0DF1                     	movf	0+(___fldiv@b)+03h,w
  5052  0DF1  0877               	andlw	080h
  5053  0DF2  3980               	movwf	(??___fldiv+0)+0
  5054  0DF3  00F8               	movf	(??___fldiv+0)+0,w
  5055  0DF4  0878               	bcf	status, 5	;RP0=0, select bank0
  5056  0DF5  1283               	bcf	status, 6	;RP1=0, select bank0
  5057  0DF6  1303               	movwf	(___fldiv@sign)
  5058  0DF7  00A4               	line	27
  5059                           	
  5060                           l1827:	
  5061  0DF8                     	movf	0+(___fldiv@b)+03h,w
  5062  0DF8  0877               	movwf	(??___fldiv+0)+0
  5063  0DF9  00F8               	addwf	(??___fldiv+0)+0,w
  5064  0DFA  0778               	movwf	(??___fldiv+1)+0
  5065  0DFB  00F9               	movf	(??___fldiv+1)+0,w
  5066  0DFC  0879               	movwf	(___fldiv@bexp)
  5067  0DFD  00AB               	line	28
  5068                           	
  5069                           l1829:	
  5070  0DFE                     	btfss	0+(___fldiv@b)+02h,(7)&7
  5071  0DFE  1FF6               	goto	u1871
  5072  0DFF  2E01               	goto	u1870
  5073  0E00  2E02               u1871:
  5074  0E01                     	goto	l1833
  5075  0E01  2E04               u1870:
  5076  0E02                     	line	29
  5077                           	
  5078                           l1831:	
  5079  0E02                     	bsf	(___fldiv@bexp)+(0/8),(0)&7
  5080  0E02  142B               	goto	l1833
  5081  0E03  2E04               	line	30
  5082                           	
  5083                           l616:	
  5084  0E04                     	line	33
  5085                           	
  5086                           l1833:	
  5087  0E04                     	movf	((___fldiv@bexp)),w
  5088  0E04  082B               	btfsc	status,2
  5089  0E05  1903               	goto	u1881
  5090  0E06  2E08               	goto	u1880
  5091  0E07  2E09               u1881:
  5092  0E08                     	goto	l1843
  5093  0E08  2E1A               u1880:
  5094  0E09                     	line	35
  5095                           	
  5096                           l1835:	
  5097  0E09                     		incf	((___fldiv@bexp)),w
  5098  0E09  0A2B               	btfss	status,2
  5099  0E0A  1D03               	goto	u1891
  5100  0E0B  2E0D               	goto	u1890
  5101  0E0C  2E0E               u1891:
  5102  0E0D                     	goto	l1839
  5103  0E0D  2E17               u1890:
  5104  0E0E                     	line	37
  5105                           	
  5106                           l1837:	
  5107  0E0E                     	movlw	0x0
  5108  0E0E  3000               	movwf	(___fldiv@b+3)
  5109  0E0F  00F7               	movlw	0x0
  5110  0E10  3000               	movwf	(___fldiv@b+2)
  5111  0E11  00F6               	movlw	0x0
  5112  0E12  3000               	movwf	(___fldiv@b+1)
  5113  0E13  00F5               	movlw	0x0
  5114  0E14  3000               	movwf	(___fldiv@b)
  5115  0E15  00F4               
  5116                           	goto	l1839
  5117  0E16  2E17               	line	38
  5118                           	
  5119                           l618:	
  5120  0E17                     	line	40
  5121                           	
  5122                           l1839:	
  5123  0E17                     	bsf	(___fldiv@b)+(23/8),(23)&7
  5124  0E17  17F6               	line	42
  5125                           	
  5126                           l1841:	
  5127  0E18                     	clrf	0+(___fldiv@b)+03h
  5128  0E18  01F7               	line	43
  5129                           	goto	l1845
  5130  0E19  2E23               	line	44
  5131                           	
  5132                           l617:	
  5133  0E1A                     	line	46
  5134                           	
  5135                           l1843:	
  5136  0E1A                     	movlw	0x0
  5137  0E1A  3000               	movwf	(___fldiv@b+3)
  5138  0E1B  00F7               	movlw	0x0
  5139  0E1C  3000               	movwf	(___fldiv@b+2)
  5140  0E1D  00F6               	movlw	0x0
  5141  0E1E  3000               	movwf	(___fldiv@b+1)
  5142  0E1F  00F5               	movlw	0x0
  5143  0E20  3000               	movwf	(___fldiv@b)
  5144  0E21  00F4               
  5145                           	goto	l1845
  5146  0E22  2E23               	line	47
  5147                           	
  5148                           l619:	
  5149  0E23                     	line	49
  5150                           	
  5151                           l1845:	
  5152  0E23                     	movf	0+(___fldiv@a)+03h,w
  5153  0E23  0873               	andlw	080h
  5154  0E24  3980               	movwf	(??___fldiv+0)+0
  5155  0E25  00F8               	movf	(??___fldiv+0)+0,w
  5156  0E26  0878               	xorwf	(___fldiv@sign),f
  5157  0E27  06A4               	line	50
  5158                           	
  5159                           l1847:	
  5160  0E28                     	movf	0+(___fldiv@a)+03h,w
  5161  0E28  0873               	movwf	(??___fldiv+0)+0
  5162  0E29  00F8               	addwf	(??___fldiv+0)+0,w
  5163  0E2A  0778               	movwf	(??___fldiv+1)+0
  5164  0E2B  00F9               	movf	(??___fldiv+1)+0,w
  5165  0E2C  0879               	movwf	(___fldiv@aexp)
  5166  0E2D  00AC               	line	51
  5167                           	
  5168                           l1849:	
  5169  0E2E                     	btfss	0+(___fldiv@a)+02h,(7)&7
  5170  0E2E  1FF2               	goto	u1901
  5171  0E2F  2E31               	goto	u1900
  5172  0E30  2E32               u1901:
  5173  0E31                     	goto	l1853
  5174  0E31  2E34               u1900:
  5175  0E32                     	line	52
  5176                           	
  5177                           l1851:	
  5178  0E32                     	bsf	(___fldiv@aexp)+(0/8),(0)&7
  5179  0E32  142C               	goto	l1853
  5180  0E33  2E34               	line	53
  5181                           	
  5182                           l620:	
  5183  0E34                     	line	56
  5184                           	
  5185                           l1853:	
  5186  0E34                     	movf	((___fldiv@aexp)),w
  5187  0E34  082C               	btfsc	status,2
  5188  0E35  1903               	goto	u1911
  5189  0E36  2E38               	goto	u1910
  5190  0E37  2E39               u1911:
  5191  0E38                     	goto	l1863
  5192  0E38  2E4A               u1910:
  5193  0E39                     	line	58
  5194                           	
  5195                           l1855:	
  5196  0E39                     		incf	((___fldiv@aexp)),w
  5197  0E39  0A2C               	btfss	status,2
  5198  0E3A  1D03               	goto	u1921
  5199  0E3B  2E3D               	goto	u1920
  5200  0E3C  2E3E               u1921:
  5201  0E3D                     	goto	l1859
  5202  0E3D  2E47               u1920:
  5203  0E3E                     	line	60
  5204                           	
  5205                           l1857:	
  5206  0E3E                     	movlw	0x0
  5207  0E3E  3000               	movwf	(___fldiv@a+3)
  5208  0E3F  00F3               	movlw	0x0
  5209  0E40  3000               	movwf	(___fldiv@a+2)
  5210  0E41  00F2               	movlw	0x0
  5211  0E42  3000               	movwf	(___fldiv@a+1)
  5212  0E43  00F1               	movlw	0x0
  5213  0E44  3000               	movwf	(___fldiv@a)
  5214  0E45  00F0               
  5215                           	goto	l1859
  5216  0E46  2E47               	line	61
  5217                           	
  5218                           l622:	
  5219  0E47                     	line	63
  5220                           	
  5221                           l1859:	
  5222  0E47                     	bsf	(___fldiv@a)+(23/8),(23)&7
  5223  0E47  17F2               	line	65
  5224                           	
  5225                           l1861:	
  5226  0E48                     	clrf	0+(___fldiv@a)+03h
  5227  0E48  01F3               	line	66
  5228                           	goto	l623
  5229  0E49  2E52               	line	67
  5230                           	
  5231                           l621:	
  5232  0E4A                     	line	69
  5233                           	
  5234                           l1863:	
  5235  0E4A                     	movlw	0x0
  5236  0E4A  3000               	movwf	(___fldiv@a+3)
  5237  0E4B  00F3               	movlw	0x0
  5238  0E4C  3000               	movwf	(___fldiv@a+2)
  5239  0E4D  00F2               	movlw	0x0
  5240  0E4E  3000               	movwf	(___fldiv@a+1)
  5241  0E4F  00F1               	movlw	0x0
  5242  0E50  3000               	movwf	(___fldiv@a)
  5243  0E51  00F0               
  5244                           	line	70
  5245                           	
  5246                           l623:	
  5247  0E52                     	line	75
  5248                           	movf	(___fldiv@a+3),w
  5249  0E52  0873               	iorwf	(___fldiv@a+2),w
  5250  0E53  0472               	iorwf	(___fldiv@a+1),w
  5251  0E54  0471               	iorwf	(___fldiv@a),w
  5252  0E55  0470               	skipz
  5253  0E56  1D03               	goto	u1931
  5254  0E57  2E59               	goto	u1930
  5255  0E58  2E5A               u1931:
  5256  0E59                     	goto	l1873
  5257  0E59  2E74               u1930:
  5258  0E5A                     	line	76
  5259                           	
  5260                           l1865:	
  5261  0E5A                     	movlw	high highword(0)
  5262  0E5A  3000               	movwf	(___fldiv@b+3)
  5263  0E5B  00F7               	movlw	low highword(0)
  5264  0E5C  3000               	movwf	(___fldiv@b+2)
  5265  0E5D  00F6               	movlw	high(0)
  5266  0E5E  3000               	movwf	(___fldiv@b+1)
  5267  0E5F  00F5               	movlw	low(0)
  5268  0E60  3000               	movwf	(___fldiv@b)
  5269  0E61  00F4               
  5270                           	line	77
  5271                           	movlw	080h
  5272  0E62  3080               	iorwf	0+(___fldiv@b)+02h,f
  5273  0E63  04F6               	movlw	07Fh
  5274  0E64  307F               	iorwf	1+(___fldiv@b)+02h,f
  5275  0E65  04F7               	line	78
  5276                           	
  5277                           l1867:	
  5278  0E66                     	movf	(___fldiv@sign),w
  5279  0E66  0824               	movwf	(??___fldiv+0)+0
  5280  0E67  00F8               	movf	(??___fldiv+0)+0,w
  5281  0E68  0878               	iorwf	0+(___fldiv@b)+03h,f
  5282  0E69  04F7               	line	79
  5283                           	
  5284                           l1869:	
  5285  0E6A                     	movf	(___fldiv@b+3),w
  5286  0E6A  0877               	movwf	(?___fldiv+3)
  5287  0E6B  00F3               	movf	(___fldiv@b+2),w
  5288  0E6C  0876               	movwf	(?___fldiv+2)
  5289  0E6D  00F2               	movf	(___fldiv@b+1),w
  5290  0E6E  0875               	movwf	(?___fldiv+1)
  5291  0E6F  00F1               	movf	(___fldiv@b),w
  5292  0E70  0874               	movwf	(?___fldiv)
  5293  0E71  00F0               
  5294                           	goto	l625
  5295  0E72  2FFF               	
  5296                           l1871:	
  5297  0E73                     	goto	l625
  5298  0E73  2FFF               	line	80
  5299                           	
  5300                           l624:	
  5301  0E74                     	line	83
  5302                           	
  5303                           l1873:	
  5304  0E74                     	movf	((___fldiv@bexp)),w
  5305  0E74  082B               	btfss	status,2
  5306  0E75  1D03               	goto	u1941
  5307  0E76  2E78               	goto	u1940
  5308  0E77  2E79               u1941:
  5309  0E78                     	goto	l1879
  5310  0E78  2E8B               u1940:
  5311  0E79                     	line	84
  5312                           	
  5313                           l1875:	
  5314  0E79                     	movlw	high highword(0)
  5315  0E79  3000               	movwf	(___fldiv@b+3)
  5316  0E7A  00F7               	movlw	low highword(0)
  5317  0E7B  3000               	movwf	(___fldiv@b+2)
  5318  0E7C  00F6               	movlw	high(0)
  5319  0E7D  3000               	movwf	(___fldiv@b+1)
  5320  0E7E  00F5               	movlw	low(0)
  5321  0E7F  3000               	movwf	(___fldiv@b)
  5322  0E80  00F4               
  5323                           	line	85
  5324                           	movf	(___fldiv@b+3),w
  5325  0E81  0877               	movwf	(?___fldiv+3)
  5326  0E82  00F3               	movf	(___fldiv@b+2),w
  5327  0E83  0876               	movwf	(?___fldiv+2)
  5328  0E84  00F2               	movf	(___fldiv@b+1),w
  5329  0E85  0875               	movwf	(?___fldiv+1)
  5330  0E86  00F1               	movf	(___fldiv@b),w
  5331  0E87  0874               	movwf	(?___fldiv)
  5332  0E88  00F0               
  5333                           	goto	l625
  5334  0E89  2FFF               	
  5335                           l1877:	
  5336  0E8A                     	goto	l625
  5337  0E8A  2FFF               	line	86
  5338                           	
  5339                           l626:	
  5340  0E8B                     	line	89
  5341                           	
  5342                           l1879:	
  5343  0E8B                     	movf	(___fldiv@aexp),w
  5344  0E8B  082C               	movwf	(??___fldiv+0)+0
  5345  0E8C  00F8               	clrf	(??___fldiv+0)+0+1
  5346  0E8D  01F9               	comf	(??___fldiv+0)+0,f
  5347  0E8E  09F8               	comf	(??___fldiv+0)+1,f
  5348  0E8F  09F9               	incf	(??___fldiv+0)+0,f
  5349  0E90  0AF8               	skipnz
  5350  0E91  1903               	incf	(??___fldiv+0)+1,f
  5351  0E92  0AF9               	movf	(___fldiv@bexp),w
  5352  0E93  082B               	addwf	0+(??___fldiv+0)+0,w
  5353  0E94  0778               	movwf	(??___fldiv+2)+0
  5354  0E95  00FA               	movf	1+(??___fldiv+0)+0,w
  5355  0E96  0879               	skipnc
  5356  0E97  1803               	incf	1+(??___fldiv+0)+0,w
  5357  0E98  0A79               	movwf	((??___fldiv+2)+0)+1
  5358  0E99  00FB               	movf	0+(??___fldiv+2)+0,w
  5359  0E9A  087A               	addlw	low(07Fh)
  5360  0E9B  3E7F               	movwf	(___fldiv@new_exp)
  5361  0E9C  00A5               	movf	1+(??___fldiv+2)+0,w
  5362  0E9D  087B               	skipnc
  5363  0E9E  1803               	addlw	1
  5364  0E9F  3E01               	addlw	high(07Fh)
  5365  0EA0  3E00               	movwf	1+(___fldiv@new_exp)
  5366  0EA1  00A6               	line	92
  5367                           	
  5368                           l1881:	
  5369  0EA2                     	movf	(___fldiv@b+3),w
  5370  0EA2  0877               	movwf	(___fldiv@rem+3)
  5371  0EA3  00A3               	movf	(___fldiv@b+2),w
  5372  0EA4  0876               	movwf	(___fldiv@rem+2)
  5373  0EA5  00A2               	movf	(___fldiv@b+1),w
  5374  0EA6  0875               	movwf	(___fldiv@rem+1)
  5375  0EA7  00A1               	movf	(___fldiv@b),w
  5376  0EA8  0874               	movwf	(___fldiv@rem)
  5377  0EA9  00A0               
  5378                           	line	93
  5379                           	
  5380                           l1883:	
  5381  0EAA                     	movlw	high highword(0)
  5382  0EAA  3000               	movwf	(___fldiv@b+3)
  5383  0EAB  00F7               	movlw	low highword(0)
  5384  0EAC  3000               	movwf	(___fldiv@b+2)
  5385  0EAD  00F6               	movlw	high(0)
  5386  0EAE  3000               	movwf	(___fldiv@b+1)
  5387  0EAF  00F5               	movlw	low(0)
  5388  0EB0  3000               	movwf	(___fldiv@b)
  5389  0EB1  00F4               
  5390                           	line	94
  5391                           	
  5392                           l1885:	
  5393  0EB2                     	movlw	high highword(0)
  5394  0EB2  3000               	movwf	(___fldiv@grs+3)
  5395  0EB3  00AA               	movlw	low highword(0)
  5396  0EB4  3000               	movwf	(___fldiv@grs+2)
  5397  0EB5  00A9               	movlw	high(0)
  5398  0EB6  3000               	movwf	(___fldiv@grs+1)
  5399  0EB7  00A8               	movlw	low(0)
  5400  0EB8  3000               	movwf	(___fldiv@grs)
  5401  0EB9  00A7               
  5402                           	line	96
  5403                           	
  5404                           l1887:	
  5405  0EBA                     	clrf	(___fldiv@aexp)
  5406  0EBA  01AC               	line	97
  5407                           	goto	l1907
  5408  0EBB  2F10               	
  5409                           l628:	
  5410  0EBC                     	line	100
  5411                           	
  5412                           l1889:	
  5413  0EBC                     	movf	((___fldiv@aexp)),w
  5414  0EBC  082C               	btfsc	status,2
  5415  0EBD  1903               	goto	u1951
  5416  0EBE  2EC0               	goto	u1950
  5417  0EBF  2EC1               u1951:
  5418  0EC0                     	goto	l1899
  5419  0EC0  2EE3               u1950:
  5420  0EC1                     	line	101
  5421                           	
  5422                           l1891:	
  5423  0EC1                     	movlw	01h
  5424  0EC1  3001               	movwf	(??___fldiv+0)+0
  5425  0EC2  00F8               u1965:
  5426  0EC3                     	clrc
  5427  0EC3  1003               	rlf	(___fldiv@rem),f
  5428  0EC4  0DA0               	rlf	(___fldiv@rem+1),f
  5429  0EC5  0DA1               	rlf	(___fldiv@rem+2),f
  5430  0EC6  0DA2               	rlf	(___fldiv@rem+3),f
  5431  0EC7  0DA3               	decfsz	(??___fldiv+0)+0
  5432  0EC8  0BF8               	goto	u1965
  5433  0EC9  2EC3               	line	102
  5434                           	movlw	01h
  5435  0ECA  3001               	movwf	(??___fldiv+0)+0
  5436  0ECB  00F8               u1975:
  5437  0ECC                     	clrc
  5438  0ECC  1003               	rlf	(___fldiv@b),f
  5439  0ECD  0DF4               	rlf	(___fldiv@b+1),f
  5440  0ECE  0DF5               	rlf	(___fldiv@b+2),f
  5441  0ECF  0DF6               	rlf	(___fldiv@b+3),f
  5442  0ED0  0DF7               	decfsz	(??___fldiv+0)+0
  5443  0ED1  0BF8               	goto	u1975
  5444  0ED2  2ECC               	line	103
  5445                           	
  5446                           l1893:	
  5447  0ED3                     	btfss	(___fldiv@grs+3),(31)&7
  5448  0ED3  1FAA               	goto	u1981
  5449  0ED4  2ED6               	goto	u1980
  5450  0ED5  2ED7               u1981:
  5451  0ED6                     	goto	l1897
  5452  0ED6  2ED9               u1980:
  5453  0ED7                     	line	104
  5454                           	
  5455                           l1895:	
  5456  0ED7                     	bsf	(___fldiv@b)+(0/8),(0)&7
  5457  0ED7  1474               	goto	l1897
  5458  0ED8  2ED9               	line	105
  5459                           	
  5460                           l630:	
  5461  0ED9                     	line	106
  5462                           	
  5463                           l1897:	
  5464  0ED9                     	movlw	01h
  5465  0ED9  3001               	movwf	(??___fldiv+0)+0
  5466  0EDA  00F8               u1995:
  5467  0EDB                     	clrc
  5468  0EDB  1003               	rlf	(___fldiv@grs),f
  5469  0EDC  0DA7               	rlf	(___fldiv@grs+1),f
  5470  0EDD  0DA8               	rlf	(___fldiv@grs+2),f
  5471  0EDE  0DA9               	rlf	(___fldiv@grs+3),f
  5472  0EDF  0DAA               	decfsz	(??___fldiv+0)+0
  5473  0EE0  0BF8               	goto	u1995
  5474  0EE1  2EDB               	goto	l1899
  5475  0EE2  2EE3               	line	107
  5476                           	
  5477                           l629:	
  5478  0EE3                     	line	112
  5479                           	
  5480                           l1899:	
  5481  0EE3                     	movf	(___fldiv@a+3),w
  5482  0EE3  0873               	subwf	(___fldiv@rem+3),w
  5483  0EE4  0223               	skipz
  5484  0EE5  1D03               	goto	u2005
  5485  0EE6  2EF1               	movf	(___fldiv@a+2),w
  5486  0EE7  0872               	subwf	(___fldiv@rem+2),w
  5487  0EE8  0222               	skipz
  5488  0EE9  1D03               	goto	u2005
  5489  0EEA  2EF1               	movf	(___fldiv@a+1),w
  5490  0EEB  0871               	subwf	(___fldiv@rem+1),w
  5491  0EEC  0221               	skipz
  5492  0EED  1D03               	goto	u2005
  5493  0EEE  2EF1               	movf	(___fldiv@a),w
  5494  0EEF  0870               	subwf	(___fldiv@rem),w
  5495  0EF0  0220               u2005:
  5496  0EF1                     	skipc
  5497  0EF1  1C03               	goto	u2001
  5498  0EF2  2EF4               	goto	u2000
  5499  0EF3  2EF5               u2001:
  5500  0EF4                     	goto	l1905
  5501  0EF4  2F0B               u2000:
  5502  0EF5                     	line	115
  5503                           	
  5504                           l1901:	
  5505  0EF5                     	bsf	(___fldiv@grs)+(30/8),(30)&7
  5506  0EF5  172A               	line	116
  5507                           	
  5508                           l1903:	
  5509  0EF6                     	movf	(___fldiv@a),w
  5510  0EF6  0870               	subwf	(___fldiv@rem),f
  5511  0EF7  02A0               	movf	(___fldiv@a+1),w
  5512  0EF8  0871               	skipc
  5513  0EF9  1C03               	incfsz	(___fldiv@a+1),w
  5514  0EFA  0F71               	goto	u2015
  5515  0EFB  2EFD               	goto	u2016
  5516  0EFC  2EFE               u2015:
  5517  0EFD                     	subwf	(___fldiv@rem+1),f
  5518  0EFD  02A1               u2016:
  5519  0EFE                     	movf	(___fldiv@a+2),w
  5520  0EFE  0872               	skipc
  5521  0EFF  1C03               	incfsz	(___fldiv@a+2),w
  5522  0F00  0F72               	goto	u2017
  5523  0F01  2F03               	goto	u2018
  5524  0F02  2F04               u2017:
  5525  0F03                     	subwf	(___fldiv@rem+2),f
  5526  0F03  02A2               u2018:
  5527  0F04                     	movf	(___fldiv@a+3),w
  5528  0F04  0873               	skipc
  5529  0F05  1C03               	incfsz	(___fldiv@a+3),w
  5530  0F06  0F73               	goto	u2019
  5531  0F07  2F09               	goto	u2010
  5532  0F08  2F0A               u2019:
  5533  0F09                     	subwf	(___fldiv@rem+3),f
  5534  0F09  02A3               u2010:
  5535  0F0A                     
  5536                           	goto	l1905
  5537  0F0A  2F0B               	line	117
  5538                           	
  5539                           l631:	
  5540  0F0B                     	line	118
  5541                           	
  5542                           l1905:	
  5543  0F0B                     	movlw	low(01h)
  5544  0F0B  3001               	movwf	(??___fldiv+0)+0
  5545  0F0C  00F8               	movf	(??___fldiv+0)+0,w
  5546  0F0D  0878               	addwf	(___fldiv@aexp),f
  5547  0F0E  07AC               	goto	l1907
  5548  0F0F  2F10               	line	119
  5549                           	
  5550                           l627:	
  5551  0F10                     	line	97
  5552                           	
  5553                           l1907:	
  5554  0F10                     	movlw	low(01Ah)
  5555  0F10  301A               	subwf	(___fldiv@aexp),w
  5556  0F11  022C               	skipc
  5557  0F12  1C03               	goto	u2021
  5558  0F13  2F15               	goto	u2020
  5559  0F14  2F16               u2021:
  5560  0F15                     	goto	l1889
  5561  0F15  2EBC               u2020:
  5562  0F16                     	goto	l1909
  5563  0F16  2F17               	
  5564                           l632:	
  5565  0F17                     	line	122
  5566                           	
  5567                           l1909:	
  5568  0F17                     	movf	(___fldiv@rem+3),w
  5569  0F17  0823               	iorwf	(___fldiv@rem+2),w
  5570  0F18  0422               	iorwf	(___fldiv@rem+1),w
  5571  0F19  0421               	iorwf	(___fldiv@rem),w
  5572  0F1A  0420               	skipnz
  5573  0F1B  1903               	goto	u2031
  5574  0F1C  2F1E               	goto	u2030
  5575  0F1D  2F1F               u2031:
  5576  0F1E                     	goto	l1923
  5577  0F1E  2F41               u2030:
  5578  0F1F                     	line	123
  5579                           	
  5580                           l1911:	
  5581  0F1F                     	bsf	(___fldiv@grs)+(0/8),(0)&7
  5582  0F1F  1427               	goto	l1923
  5583  0F20  2F41               	line	124
  5584                           	
  5585                           l633:	
  5586  0F21                     	line	127
  5587                           	goto	l1923
  5588  0F21  2F41               	
  5589                           l635:	
  5590  0F22                     	line	128
  5591                           	
  5592                           l1913:	
  5593  0F22                     	movlw	01h
  5594  0F22  3001               	movwf	(??___fldiv+0)+0
  5595  0F23  00F8               u2045:
  5596  0F24                     	clrc
  5597  0F24  1003               	rlf	(___fldiv@b),f
  5598  0F25  0DF4               	rlf	(___fldiv@b+1),f
  5599  0F26  0DF5               	rlf	(___fldiv@b+2),f
  5600  0F27  0DF6               	rlf	(___fldiv@b+3),f
  5601  0F28  0DF7               	decfsz	(??___fldiv+0)+0
  5602  0F29  0BF8               	goto	u2045
  5603  0F2A  2F24               	line	129
  5604                           	
  5605                           l1915:	
  5606  0F2B                     	btfss	(___fldiv@grs+3),(31)&7
  5607  0F2B  1FAA               	goto	u2051
  5608  0F2C  2F2E               	goto	u2050
  5609  0F2D  2F2F               u2051:
  5610  0F2E                     	goto	l1919
  5611  0F2E  2F31               u2050:
  5612  0F2F                     	line	130
  5613                           	
  5614                           l1917:	
  5615  0F2F                     	bsf	(___fldiv@b)+(0/8),(0)&7
  5616  0F2F  1474               	goto	l1919
  5617  0F30  2F31               	line	131
  5618                           	
  5619                           l636:	
  5620  0F31                     	line	132
  5621                           	
  5622                           l1919:	
  5623  0F31                     	movlw	01h
  5624  0F31  3001               	movwf	(??___fldiv+0)+0
  5625  0F32  00F8               u2065:
  5626  0F33                     	clrc
  5627  0F33  1003               	rlf	(___fldiv@grs),f
  5628  0F34  0DA7               	rlf	(___fldiv@grs+1),f
  5629  0F35  0DA8               	rlf	(___fldiv@grs+2),f
  5630  0F36  0DA9               	rlf	(___fldiv@grs+3),f
  5631  0F37  0DAA               	decfsz	(??___fldiv+0)+0
  5632  0F38  0BF8               	goto	u2065
  5633  0F39  2F33               	line	133
  5634                           	
  5635                           l1921:	
  5636  0F3A                     	movlw	0FFh
  5637  0F3A  30FF               	addwf	(___fldiv@new_exp),f
  5638  0F3B  07A5               	skipnc
  5639  0F3C  1803               	incf	(___fldiv@new_exp+1),f
  5640  0F3D  0AA6               	movlw	0FFh
  5641  0F3E  30FF               	addwf	(___fldiv@new_exp+1),f
  5642  0F3F  07A6               	goto	l1923
  5643  0F40  2F41               	line	134
  5644                           	
  5645                           l634:	
  5646  0F41                     	line	127
  5647                           	
  5648                           l1923:	
  5649  0F41                     	btfss	(___fldiv@b+2),(23)&7
  5650  0F41  1FF6               	goto	u2071
  5651  0F42  2F44               	goto	u2070
  5652  0F43  2F45               u2071:
  5653  0F44                     	goto	l1913
  5654  0F44  2F22               u2070:
  5655  0F45                     	goto	l1925
  5656  0F45  2F46               	
  5657                           l637:	
  5658  0F46                     	line	139
  5659                           	
  5660                           l1925:	
  5661  0F46                     	clrf	(___fldiv@aexp)
  5662  0F46  01AC               	line	140
  5663                           	
  5664                           l1927:	
  5665  0F47                     	btfss	(___fldiv@grs+3),(31)&7
  5666  0F47  1FAA               	goto	u2081
  5667  0F48  2F4A               	goto	u2080
  5668  0F49  2F4B               u2081:
  5669  0F4A                     	goto	l1935
  5670  0F4A  2F6B               u2080:
  5671  0F4B                     	line	141
  5672                           	
  5673                           l1929:	
  5674  0F4B                     	movlw	0FFh
  5675  0F4B  30FF               	andwf	(___fldiv@grs),w
  5676  0F4C  0527               	movwf	(??___fldiv+0)+0
  5677  0F4D  00F8               	movlw	0FFh
  5678  0F4E  30FF               	andwf	(___fldiv@grs+1),w
  5679  0F4F  0528               	movwf	((??___fldiv+0)+0+1)
  5680  0F50  00F9               	movlw	0FFh
  5681  0F51  30FF               	andwf	(___fldiv@grs+2),w
  5682  0F52  0529               	movwf	((??___fldiv+0)+0+2)
  5683  0F53  00FA               	movlw	07Fh
  5684  0F54  307F               	andwf	(___fldiv@grs+3),w
  5685  0F55  052A               	movwf	((??___fldiv+0)+0+3)
  5686  0F56  00FB               	movf	3+(??___fldiv+0)+0,w
  5687  0F57  087B               	iorwf	2+(??___fldiv+0)+0,w
  5688  0F58  047A               	iorwf	1+(??___fldiv+0)+0,w
  5689  0F59  0479               	iorwf	0+(??___fldiv+0)+0,w
  5690  0F5A  0478               	skipnz
  5691  0F5B  1903               	goto	u2091
  5692  0F5C  2F5E               	goto	u2090
  5693  0F5D  2F5F               u2091:
  5694  0F5E                     	goto	l639
  5695  0F5E  2F62               u2090:
  5696  0F5F                     	line	142
  5697                           	
  5698                           l1931:	
  5699  0F5F                     	clrf	(___fldiv@aexp)
  5700  0F5F  01AC               	incf	(___fldiv@aexp),f
  5701  0F60  0AAC               	line	143
  5702                           	goto	l1935
  5703  0F61  2F6B               	line	144
  5704                           	
  5705                           l639:	
  5706  0F62                     	line	145
  5707                           	btfss	(___fldiv@b),(0)&7
  5708  0F62  1C74               	goto	u2101
  5709  0F63  2F65               	goto	u2100
  5710  0F64  2F66               u2101:
  5711  0F65                     	goto	l1935
  5712  0F65  2F6B               u2100:
  5713  0F66                     	line	146
  5714                           	
  5715                           l1933:	
  5716  0F66                     	clrf	(___fldiv@aexp)
  5717  0F66  01AC               	incf	(___fldiv@aexp),f
  5718  0F67  0AAC               	goto	l1935
  5719  0F68  2F6B               	line	147
  5720                           	
  5721                           l641:	
  5722  0F69                     	goto	l1935
  5723  0F69  2F6B               	line	148
  5724                           	
  5725                           l640:	
  5726  0F6A                     	goto	l1935
  5727  0F6A  2F6B               	line	149
  5728                           	
  5729                           l638:	
  5730  0F6B                     	line	150
  5731                           	
  5732                           l1935:	
  5733  0F6B                     	movf	((___fldiv@aexp)),w
  5734  0F6B  082C               	btfsc	status,2
  5735  0F6C  1903               	goto	u2111
  5736  0F6D  2F6F               	goto	u2110
  5737  0F6E  2F70               u2111:
  5738  0F6F                     	goto	l1945
  5739  0F6F  2FA3               u2110:
  5740  0F70                     	line	151
  5741                           	
  5742                           l1937:	
  5743  0F70                     	movlw	01h
  5744  0F70  3001               	addwf	(___fldiv@b),f
  5745  0F71  07F4               	movlw	0
  5746  0F72  3000               	skipnc
  5747  0F73  1803               movlw 1
  5748  0F74  3001               	addwf	(___fldiv@b+1),f
  5749  0F75  07F5               	movlw	0
  5750  0F76  3000               	skipnc
  5751  0F77  1803               movlw 1
  5752  0F78  3001               	addwf	(___fldiv@b+2),f
  5753  0F79  07F6               	movlw	0
  5754  0F7A  3000               	skipnc
  5755  0F7B  1803               movlw 1
  5756  0F7C  3001               	addwf	(___fldiv@b+3),f
  5757  0F7D  07F7               	line	152
  5758                           	
  5759                           l1939:	
  5760  0F7E                     	btfss	(___fldiv@b+3),(24)&7
  5761  0F7E  1C77               	goto	u2121
  5762  0F7F  2F81               	goto	u2120
  5763  0F80  2F82               u2121:
  5764  0F81                     	goto	l1945
  5765  0F81  2FA3               u2120:
  5766  0F82                     	line	153
  5767                           	
  5768                           l1941:	
  5769  0F82                     	movf	(___fldiv@b),w
  5770  0F82  0874               	movwf	(??___fldiv+0)+0
  5771  0F83  00F8               	movf	(___fldiv@b+1),w
  5772  0F84  0875               	movwf	((??___fldiv+0)+0+1)
  5773  0F85  00F9               	movf	(___fldiv@b+2),w
  5774  0F86  0876               	movwf	((??___fldiv+0)+0+2)
  5775  0F87  00FA               	movf	(___fldiv@b+3),w
  5776  0F88  0877               	movwf	((??___fldiv+0)+0+3)
  5777  0F89  00FB               	movlw	01h
  5778  0F8A  3001               	movwf	(??___fldiv+4)+0
  5779  0F8B  00FC               u2135:
  5780  0F8C                     	rlf	(??___fldiv+0)+3,w
  5781  0F8C  0D7B               	rrf	(??___fldiv+0)+3,f
  5782  0F8D  0CFB               	rrf	(??___fldiv+0)+2,f
  5783  0F8E  0CFA               	rrf	(??___fldiv+0)+1,f
  5784  0F8F  0CF9               	rrf	(??___fldiv+0)+0,f
  5785  0F90  0CF8               u2130:
  5786  0F91                     	decfsz	(??___fldiv+4)+0,f
  5787  0F91  0BFC               	goto	u2135
  5788  0F92  2F8C               	movf	3+(??___fldiv+0)+0,w
  5789  0F93  087B               	movwf	(___fldiv@b+3)
  5790  0F94  00F7               	movf	2+(??___fldiv+0)+0,w
  5791  0F95  087A               	movwf	(___fldiv@b+2)
  5792  0F96  00F6               	movf	1+(??___fldiv+0)+0,w
  5793  0F97  0879               	movwf	(___fldiv@b+1)
  5794  0F98  00F5               	movf	0+(??___fldiv+0)+0,w
  5795  0F99  0878               	movwf	(___fldiv@b)
  5796  0F9A  00F4               
  5797                           	line	154
  5798                           	
  5799                           l1943:	
  5800  0F9B                     	movlw	01h
  5801  0F9B  3001               	addwf	(___fldiv@new_exp),f
  5802  0F9C  07A5               	skipnc
  5803  0F9D  1803               	incf	(___fldiv@new_exp+1),f
  5804  0F9E  0AA6               	movlw	0
  5805  0F9F  3000               	addwf	(___fldiv@new_exp+1),f
  5806  0FA0  07A6               	goto	l1945
  5807  0FA1  2FA3               	line	155
  5808                           	
  5809                           l643:	
  5810  0FA2                     	goto	l1945
  5811  0FA2  2FA3               	line	156
  5812                           	
  5813                           l642:	
  5814  0FA3                     	line	159
  5815                           	
  5816                           l1945:	
  5817  0FA3                     	movf	(___fldiv@new_exp+1),w
  5818  0FA3  0826               	xorlw	80h
  5819  0FA4  3A80               	movwf	btemp+1
  5820  0FA5  00FF               	movlw	(0)^80h
  5821  0FA6  3080               	subwf	btemp+1,w
  5822  0FA7  027F               	skipz
  5823  0FA8  1D03               	goto	u2145
  5824  0FA9  2FAC               	movlw	0FFh
  5825  0FAA  30FF               	subwf	(___fldiv@new_exp),w
  5826  0FAB  0225               u2145:
  5827  0FAC                     
  5828                           	skipc
  5829  0FAC  1C03               	goto	u2141
  5830  0FAD  2FAF               	goto	u2140
  5831  0FAE  2FB0               u2141:
  5832  0FAF                     	goto	l1949
  5833  0FAF  2FBF               u2140:
  5834  0FB0                     	line	160
  5835                           	
  5836                           l1947:	
  5837  0FB0                     	movlw	0FFh
  5838  0FB0  30FF               	bcf	status, 5	;RP0=0, select bank0
  5839  0FB1  1283               	bcf	status, 6	;RP1=0, select bank0
  5840  0FB2  1303               	movwf	(___fldiv@new_exp)
  5841  0FB3  00A5               	movlw	0
  5842  0FB4  3000               	movwf	((___fldiv@new_exp))+1
  5843  0FB5  00A6               	line	161
  5844                           	movlw	high highword(0)
  5845  0FB6  3000               	movwf	(___fldiv@b+3)
  5846  0FB7  00F7               	movlw	low highword(0)
  5847  0FB8  3000               	movwf	(___fldiv@b+2)
  5848  0FB9  00F6               	movlw	high(0)
  5849  0FBA  3000               	movwf	(___fldiv@b+1)
  5850  0FBB  00F5               	movlw	low(0)
  5851  0FBC  3000               	movwf	(___fldiv@b)
  5852  0FBD  00F4               
  5853                           	goto	l1949
  5854  0FBE  2FBF               	line	162
  5855                           	
  5856                           l644:	
  5857  0FBF                     	line	165
  5858                           	
  5859                           l1949:	
  5860  0FBF                     	bcf	status, 5	;RP0=0, select bank0
  5861  0FBF  1283               	bcf	status, 6	;RP1=0, select bank0
  5862  0FC0  1303               	movf	(___fldiv@new_exp+1),w
  5863  0FC1  0826               	xorlw	80h
  5864  0FC2  3A80               	movwf	btemp+1
  5865  0FC3  00FF               	movlw	(0)^80h
  5866  0FC4  3080               	subwf	btemp+1,w
  5867  0FC5  027F               	skipz
  5868  0FC6  1D03               	goto	u2155
  5869  0FC7  2FCA               	movlw	01h
  5870  0FC8  3001               	subwf	(___fldiv@new_exp),w
  5871  0FC9  0225               u2155:
  5872  0FCA                     
  5873                           	skipnc
  5874  0FCA  1803               	goto	u2151
  5875  0FCB  2FCD               	goto	u2150
  5876  0FCC  2FCE               u2151:
  5877  0FCD                     	goto	l645
  5878  0FCD  2FDB               u2150:
  5879  0FCE                     	line	166
  5880                           	
  5881                           l1951:	
  5882  0FCE                     	bcf	status, 5	;RP0=0, select bank0
  5883  0FCE  1283               	bcf	status, 6	;RP1=0, select bank0
  5884  0FCF  1303               	clrf	(___fldiv@new_exp)
  5885  0FD0  01A5               	clrf	(___fldiv@new_exp+1)
  5886  0FD1  01A6               	line	167
  5887                           	
  5888                           l1953:	
  5889  0FD2                     	movlw	high highword(0)
  5890  0FD2  3000               	movwf	(___fldiv@b+3)
  5891  0FD3  00F7               	movlw	low highword(0)
  5892  0FD4  3000               	movwf	(___fldiv@b+2)
  5893  0FD5  00F6               	movlw	high(0)
  5894  0FD6  3000               	movwf	(___fldiv@b+1)
  5895  0FD7  00F5               	movlw	low(0)
  5896  0FD8  3000               	movwf	(___fldiv@b)
  5897  0FD9  00F4               
  5898                           	line	169
  5899                           	
  5900                           l1955:	
  5901  0FDA                     	clrf	(___fldiv@sign)
  5902  0FDA  01A4               	line	170
  5903                           	
  5904                           l645:	
  5905  0FDB                     	line	173
  5906                           	bcf	status, 5	;RP0=0, select bank0
  5907  0FDB  1283               	bcf	status, 6	;RP1=0, select bank0
  5908  0FDC  1303               	movf	(___fldiv@new_exp),w
  5909  0FDD  0825               	movwf	(??___fldiv+0)+0
  5910  0FDE  00F8               	movf	(??___fldiv+0)+0,w
  5911  0FDF  0878               	movwf	(___fldiv@bexp)
  5912  0FE0  00AB               	line	175
  5913                           	
  5914                           l1957:	
  5915  0FE1                     	btfss	(___fldiv@bexp),(0)&7
  5916  0FE1  1C2B               	goto	u2161
  5917  0FE2  2FE4               	goto	u2160
  5918  0FE3  2FE5               u2161:
  5919  0FE4                     	goto	l1961
  5920  0FE4  2FE7               u2160:
  5921  0FE5                     	line	176
  5922                           	
  5923                           l1959:	
  5924  0FE5                     	bsf	0+(___fldiv@b)+02h+(7/8),(7)&7
  5925  0FE5  17F6               	line	177
  5926                           	goto	l647
  5927  0FE6  2FEB               	line	179
  5928                           	
  5929                           l646:	
  5930  0FE7                     	line	180
  5931                           	
  5932                           l1961:	
  5933  0FE7                     	movlw	low(07Fh)
  5934  0FE7  307F               	movwf	(??___fldiv+0)+0
  5935  0FE8  00F8               	movf	(??___fldiv+0)+0,w
  5936  0FE9  0878               	andwf	0+(___fldiv@b)+02h,f
  5937  0FEA  05F6               	line	181
  5938                           	
  5939                           l647:	
  5940  0FEB                     	line	182
  5941                           	movf	(___fldiv@bexp),w
  5942  0FEB  082B               	movwf	(??___fldiv+0)+0
  5943  0FEC  00F8               	clrc
  5944  0FED  1003               	rrf	(??___fldiv+0)+0,w
  5945  0FEE  0C78               	movwf	(??___fldiv+1)+0
  5946  0FEF  00F9               	movf	(??___fldiv+1)+0,w
  5947  0FF0  0879               	movwf	0+(___fldiv@b)+03h
  5948  0FF1  00F7               	line	183
  5949                           	movf	(___fldiv@sign),w
  5950  0FF2  0824               	movwf	(??___fldiv+0)+0
  5951  0FF3  00F8               	movf	(??___fldiv+0)+0,w
  5952  0FF4  0878               	iorwf	0+(___fldiv@b)+03h,f
  5953  0FF5  04F7               	line	184
  5954                           	
  5955                           l1963:	
  5956  0FF6                     	movf	(___fldiv@b+3),w
  5957  0FF6  0877               	movwf	(?___fldiv+3)
  5958  0FF7  00F3               	movf	(___fldiv@b+2),w
  5959  0FF8  0876               	movwf	(?___fldiv+2)
  5960  0FF9  00F2               	movf	(___fldiv@b+1),w
  5961  0FFA  0875               	movwf	(?___fldiv+1)
  5962  0FFB  00F1               	movf	(___fldiv@b),w
  5963  0FFC  0874               	movwf	(?___fldiv)
  5964  0FFD  00F0               
  5965                           	goto	l625
  5966  0FFE  2FFF               	
  5967                           l1965:	
  5968  0FFF                     	line	185
  5969                           	
  5970                           l625:	
  5971  0FFF                     	return
  5972  0FFF  0008               	opt stack 0
  5973                           GLOBAL	__end_of___fldiv
  5974                           	__end_of___fldiv:
  5975  1000                     	signat	___fldiv,8316
  5976                           	global	___awmod
  5977                           
  5978 ;; *************** function ___awmod *****************
  5979 ;; Defined at:
  5980 ;;		line 5 in file "C:\Program Files (x86)\Microchip\xc8\v2.00\pic\sources\c90\common\awmod.c"
  5981 ;; Parameters:    Size  Location     Type
  5982 ;;  divisor         2    9[COMMON] int 
  5983 ;;  dividend        2   11[COMMON] int 
  5984 ;; Auto vars:     Size  Location     Type
  5985 ;;  sign            1    1[BANK0 ] unsigned char 
  5986 ;;  counter         1    0[BANK0 ] unsigned char 
  5987 ;; Return value:  Size  Location     Type
  5988 ;;                  2    9[COMMON] int 
  5989 ;; Registers used:
  5990 ;;		wreg, status,2, status,0
  5991 ;; Tracked objects:
  5992 ;;		On entry : 0/0
  5993 ;;		On exit  : 0/0
  5994 ;;		Unchanged: 0/0
  5995 ;; Data sizes:     COMMON   BANK0   BANK1   BANK3   BANK2
  5996 ;;      Params:         4       0       0       0       0
  5997 ;;      Locals:         0       2       0       0       0
  5998 ;;      Temps:          1       0       0       0       0
  5999 ;;      Totals:         5       2       0       0       0
  6000 ;;Total ram usage:        7 bytes
  6001 ;; Hardware stack levels used:    1
  6002 ;; This function calls:
  6003 ;;		Nothing
  6004 ;; This function is called by:
  6005 ;;		_main
  6006 ;; This function uses a non-reentrant model
  6007 ;;
  6008                           psect	text9,local,class=CODE,delta=2,merge=1,group=1
  6009                           	file	"C:\Program Files (x86)\Microchip\xc8\v2.00\pic\sources\c90\common\awmod.c"
  6010                           	line	5
  6011                           global __ptext9
  6012                           __ptext9:	;psect for function ___awmod
  6013  0D1B                     psect	text9
  6014                           	file	"C:\Program Files (x86)\Microchip\xc8\v2.00\pic\sources\c90\common\awmod.c"
  6015                           	line	5
  6016                           	global	__size_of___awmod
  6017                           	__size_of___awmod	equ	__end_of___awmod-___awmod
  6018  0065                     	
  6019                           ___awmod:	
  6020  0D1B                     ;incstack = 0
  6021                           	opt	stack 7
  6022                           ; Regs used in ___awmod: [wreg+status,2+status,0]
  6023                           	line	12
  6024                           	
  6025                           l1751:	
  6026  0D1B                     	bcf	status, 5	;RP0=0, select bank0
  6027  0D1B  1283               	bcf	status, 6	;RP1=0, select bank0
  6028  0D1C  1303               	clrf	(___awmod@sign)
  6029  0D1D  01A1               	line	13
  6030                           	
  6031                           l1753:	
  6032  0D1E                     	btfss	(___awmod@dividend+1),7
  6033  0D1E  1FFC               	goto	u1681
  6034  0D1F  2D21               	goto	u1680
  6035  0D20  2D22               u1681:
  6036  0D21                     	goto	l1759
  6037  0D21  2D2A               u1680:
  6038  0D22                     	line	14
  6039                           	
  6040                           l1755:	
  6041  0D22                     	comf	(___awmod@dividend),f
  6042  0D22  09FB               	comf	(___awmod@dividend+1),f
  6043  0D23  09FC               	incf	(___awmod@dividend),f
  6044  0D24  0AFB               	skipnz
  6045  0D25  1903               	incf	(___awmod@dividend+1),f
  6046  0D26  0AFC               	line	15
  6047                           	
  6048                           l1757:	
  6049  0D27                     	clrf	(___awmod@sign)
  6050  0D27  01A1               	incf	(___awmod@sign),f
  6051  0D28  0AA1               	goto	l1759
  6052  0D29  2D2A               	line	16
  6053                           	
  6054                           l430:	
  6055  0D2A                     	line	17
  6056                           	
  6057                           l1759:	
  6058  0D2A                     	btfss	(___awmod@divisor+1),7
  6059  0D2A  1FFA               	goto	u1691
  6060  0D2B  2D2D               	goto	u1690
  6061  0D2C  2D2E               u1691:
  6062  0D2D                     	goto	l1763
  6063  0D2D  2D34               u1690:
  6064  0D2E                     	line	18
  6065                           	
  6066                           l1761:	
  6067  0D2E                     	comf	(___awmod@divisor),f
  6068  0D2E  09F9               	comf	(___awmod@divisor+1),f
  6069  0D2F  09FA               	incf	(___awmod@divisor),f
  6070  0D30  0AF9               	skipnz
  6071  0D31  1903               	incf	(___awmod@divisor+1),f
  6072  0D32  0AFA               	goto	l1763
  6073  0D33  2D34               	
  6074                           l431:	
  6075  0D34                     	line	19
  6076                           	
  6077                           l1763:	
  6078  0D34                     	movf	((___awmod@divisor)),w
  6079  0D34  0879               iorwf	((___awmod@divisor+1)),w
  6080  0D35  047A               	btfsc	status,2
  6081  0D36  1903               	goto	u1701
  6082  0D37  2D39               	goto	u1700
  6083  0D38  2D3A               u1701:
  6084  0D39                     	goto	l1781
  6085  0D39  2D6F               u1700:
  6086  0D3A                     	line	20
  6087                           	
  6088                           l1765:	
  6089  0D3A                     	clrf	(___awmod@counter)
  6090  0D3A  01A0               	incf	(___awmod@counter),f
  6091  0D3B  0AA0               	line	21
  6092                           	goto	l1771
  6093  0D3C  2D49               	
  6094                           l434:	
  6095  0D3D                     	line	22
  6096                           	
  6097                           l1767:	
  6098  0D3D                     	movlw	01h
  6099  0D3D  3001               	
  6100                           u1715:
  6101  0D3E                     	clrc
  6102  0D3E  1003               	rlf	(___awmod@divisor),f
  6103  0D3F  0DF9               	rlf	(___awmod@divisor+1),f
  6104  0D40  0DFA               	addlw	-1
  6105  0D41  3EFF               	skipz
  6106  0D42  1D03               	goto	u1715
  6107  0D43  2D3E               	line	23
  6108                           	
  6109                           l1769:	
  6110  0D44                     	movlw	low(01h)
  6111  0D44  3001               	movwf	(??___awmod+0)+0
  6112  0D45  00FD               	movf	(??___awmod+0)+0,w
  6113  0D46  087D               	addwf	(___awmod@counter),f
  6114  0D47  07A0               	goto	l1771
  6115  0D48  2D49               	line	24
  6116                           	
  6117                           l433:	
  6118  0D49                     	line	21
  6119                           	
  6120                           l1771:	
  6121  0D49                     	btfss	(___awmod@divisor+1),(15)&7
  6122  0D49  1FFA               	goto	u1721
  6123  0D4A  2D4C               	goto	u1720
  6124  0D4B  2D4D               u1721:
  6125  0D4C                     	goto	l1767
  6126  0D4C  2D3D               u1720:
  6127  0D4D                     	goto	l1773
  6128  0D4D  2D4F               	
  6129                           l435:	
  6130  0D4E                     	goto	l1773
  6131  0D4E  2D4F               	line	25
  6132                           	
  6133                           l436:	
  6134  0D4F                     	line	26
  6135                           	
  6136                           l1773:	
  6137  0D4F                     	movf	(___awmod@divisor+1),w
  6138  0D4F  087A               	subwf	(___awmod@dividend+1),w
  6139  0D50  027C               	skipz
  6140  0D51  1D03               	goto	u1735
  6141  0D52  2D55               	movf	(___awmod@divisor),w
  6142  0D53  0879               	subwf	(___awmod@dividend),w
  6143  0D54  027B               u1735:
  6144  0D55                     	skipc
  6145  0D55  1C03               	goto	u1731
  6146  0D56  2D58               	goto	u1730
  6147  0D57  2D59               u1731:
  6148  0D58                     	goto	l1777
  6149  0D58  2D60               u1730:
  6150  0D59                     	line	27
  6151                           	
  6152                           l1775:	
  6153  0D59                     	movf	(___awmod@divisor),w
  6154  0D59  0879               	subwf	(___awmod@dividend),f
  6155  0D5A  02FB               	movf	(___awmod@divisor+1),w
  6156  0D5B  087A               	skipc
  6157  0D5C  1C03               	decf	(___awmod@dividend+1),f
  6158  0D5D  03FC               	subwf	(___awmod@dividend+1),f
  6159  0D5E  02FC               	goto	l1777
  6160  0D5F  2D60               	
  6161                           l437:	
  6162  0D60                     	line	28
  6163                           	
  6164                           l1777:	
  6165  0D60                     	movlw	01h
  6166  0D60  3001               	
  6167                           u1745:
  6168  0D61                     	clrc
  6169  0D61  1003               	rrf	(___awmod@divisor+1),f
  6170  0D62  0CFA               	rrf	(___awmod@divisor),f
  6171  0D63  0CF9               	addlw	-1
  6172  0D64  3EFF               	skipz
  6173  0D65  1D03               	goto	u1745
  6174  0D66  2D61               	line	29
  6175                           	
  6176                           l1779:	
  6177  0D67                     	movlw	01h
  6178  0D67  3001               	subwf	(___awmod@counter),f
  6179  0D68  02A0               	btfss	status,2
  6180  0D69  1D03               	goto	u1751
  6181  0D6A  2D6C               	goto	u1750
  6182  0D6B  2D6D               u1751:
  6183  0D6C                     	goto	l1773
  6184  0D6C  2D4F               u1750:
  6185  0D6D                     	goto	l1781
  6186  0D6D  2D6F               	
  6187                           l438:	
  6188  0D6E                     	goto	l1781
  6189  0D6E  2D6F               	line	30
  6190                           	
  6191                           l432:	
  6192  0D6F                     	line	31
  6193                           	
  6194                           l1781:	
  6195  0D6F                     	movf	((___awmod@sign)),w
  6196  0D6F  0821               	btfsc	status,2
  6197  0D70  1903               	goto	u1761
  6198  0D71  2D73               	goto	u1760
  6199  0D72  2D74               u1761:
  6200  0D73                     	goto	l1785
  6201  0D73  2D7A               u1760:
  6202  0D74                     	line	32
  6203                           	
  6204                           l1783:	
  6205  0D74                     	comf	(___awmod@dividend),f
  6206  0D74  09FB               	comf	(___awmod@dividend+1),f
  6207  0D75  09FC               	incf	(___awmod@dividend),f
  6208  0D76  0AFB               	skipnz
  6209  0D77  1903               	incf	(___awmod@dividend+1),f
  6210  0D78  0AFC               	goto	l1785
  6211  0D79  2D7A               	
  6212                           l439:	
  6213  0D7A                     	line	33
  6214                           	
  6215                           l1785:	
  6216  0D7A                     	movf	(___awmod@dividend+1),w
  6217  0D7A  087C               	movwf	(?___awmod+1)
  6218  0D7B  00FA               	movf	(___awmod@dividend),w
  6219  0D7C  087B               	movwf	(?___awmod)
  6220  0D7D  00F9               	goto	l440
  6221  0D7E  2D7F               	
  6222                           l1787:	
  6223  0D7F                     	line	34
  6224                           	
  6225                           l440:	
  6226  0D7F                     	return
  6227  0D7F  0008               	opt stack 0
  6228                           GLOBAL	__end_of___awmod
  6229                           	__end_of___awmod:
  6230  0D80                     	signat	___awmod,8314
  6231                           	global	___awdiv
  6232                           
  6233 ;; *************** function ___awdiv *****************
  6234 ;; Defined at:
  6235 ;;		line 5 in file "C:\Program Files (x86)\Microchip\xc8\v2.00\pic\sources\c90\common\awdiv.c"
  6236 ;; Parameters:    Size  Location     Type
  6237 ;;  divisor         2    0[COMMON] int 
  6238 ;;  dividend        2    2[COMMON] int 
  6239 ;; Auto vars:     Size  Location     Type
  6240 ;;  quotient        2    7[COMMON] int 
  6241 ;;  sign            1    6[COMMON] unsigned char 
  6242 ;;  counter         1    5[COMMON] unsigned char 
  6243 ;; Return value:  Size  Location     Type
  6244 ;;                  2    0[COMMON] int 
  6245 ;; Registers used:
  6246 ;;		wreg, status,2, status,0
  6247 ;; Tracked objects:
  6248 ;;		On entry : 0/0
  6249 ;;		On exit  : 0/0
  6250 ;;		Unchanged: 0/0
  6251 ;; Data sizes:     COMMON   BANK0   BANK1   BANK3   BANK2
  6252 ;;      Params:         4       0       0       0       0
  6253 ;;      Locals:         4       0       0       0       0
  6254 ;;      Temps:          1       0       0       0       0
  6255 ;;      Totals:         9       0       0       0       0
  6256 ;;Total ram usage:        9 bytes
  6257 ;; Hardware stack levels used:    1
  6258 ;; This function calls:
  6259 ;;		Nothing
  6260 ;; This function is called by:
  6261 ;;		_main
  6262 ;; This function uses a non-reentrant model
  6263 ;;
  6264                           psect	text10,local,class=CODE,delta=2,merge=1,group=1
  6265                           	file	"C:\Program Files (x86)\Microchip\xc8\v2.00\pic\sources\c90\common\awdiv.c"
  6266                           	line	5
  6267                           global __ptext10
  6268                           __ptext10:	;psect for function ___awdiv
  6269  0D80                     psect	text10
  6270                           	file	"C:\Program Files (x86)\Microchip\xc8\v2.00\pic\sources\c90\common\awdiv.c"
  6271                           	line	5
  6272                           	global	__size_of___awdiv
  6273                           	__size_of___awdiv	equ	__end_of___awdiv-___awdiv
  6274  0071                     	
  6275                           ___awdiv:	
  6276  0D80                     ;incstack = 0
  6277                           	opt	stack 7
  6278                           ; Regs used in ___awdiv: [wreg+status,2+status,0]
  6279                           	line	13
  6280                           	
  6281                           l1707:	
  6282  0D80                     	clrf	(___awdiv@sign)
  6283  0D80  01F6               	line	14
  6284                           	
  6285                           l1709:	
  6286  0D81                     	btfss	(___awdiv@divisor+1),7
  6287  0D81  1FF1               	goto	u1581
  6288  0D82  2D84               	goto	u1580
  6289  0D83  2D85               u1581:
  6290  0D84                     	goto	l1715
  6291  0D84  2D8D               u1580:
  6292  0D85                     	line	15
  6293                           	
  6294                           l1711:	
  6295  0D85                     	comf	(___awdiv@divisor),f
  6296  0D85  09F0               	comf	(___awdiv@divisor+1),f
  6297  0D86  09F1               	incf	(___awdiv@divisor),f
  6298  0D87  0AF0               	skipnz
  6299  0D88  1903               	incf	(___awdiv@divisor+1),f
  6300  0D89  0AF1               	line	16
  6301                           	
  6302                           l1713:	
  6303  0D8A                     	clrf	(___awdiv@sign)
  6304  0D8A  01F6               	incf	(___awdiv@sign),f
  6305  0D8B  0AF6               	goto	l1715
  6306  0D8C  2D8D               	line	17
  6307                           	
  6308                           l417:	
  6309  0D8D                     	line	18
  6310                           	
  6311                           l1715:	
  6312  0D8D                     	btfss	(___awdiv@dividend+1),7
  6313  0D8D  1FF3               	goto	u1591
  6314  0D8E  2D90               	goto	u1590
  6315  0D8F  2D91               u1591:
  6316  0D90                     	goto	l1721
  6317  0D90  2D9B               u1590:
  6318  0D91                     	line	19
  6319                           	
  6320                           l1717:	
  6321  0D91                     	comf	(___awdiv@dividend),f
  6322  0D91  09F2               	comf	(___awdiv@dividend+1),f
  6323  0D92  09F3               	incf	(___awdiv@dividend),f
  6324  0D93  0AF2               	skipnz
  6325  0D94  1903               	incf	(___awdiv@dividend+1),f
  6326  0D95  0AF3               	line	20
  6327                           	
  6328                           l1719:	
  6329  0D96                     	movlw	low(01h)
  6330  0D96  3001               	movwf	(??___awdiv+0)+0
  6331  0D97  00F4               	movf	(??___awdiv+0)+0,w
  6332  0D98  0874               	xorwf	(___awdiv@sign),f
  6333  0D99  06F6               	goto	l1721
  6334  0D9A  2D9B               	line	21
  6335                           	
  6336                           l418:	
  6337  0D9B                     	line	22
  6338                           	
  6339                           l1721:	
  6340  0D9B                     	clrf	(___awdiv@quotient)
  6341  0D9B  01F7               	clrf	(___awdiv@quotient+1)
  6342  0D9C  01F8               	line	23
  6343                           	
  6344                           l1723:	
  6345  0D9D                     	movf	((___awdiv@divisor)),w
  6346  0D9D  0870               iorwf	((___awdiv@divisor+1)),w
  6347  0D9E  0471               	btfsc	status,2
  6348  0D9F  1903               	goto	u1601
  6349  0DA0  2DA2               	goto	u1600
  6350  0DA1  2DA3               u1601:
  6351  0DA2                     	goto	l1743
  6352  0DA2  2DE0               u1600:
  6353  0DA3                     	line	24
  6354                           	
  6355                           l1725:	
  6356  0DA3                     	clrf	(___awdiv@counter)
  6357  0DA3  01F5               	incf	(___awdiv@counter),f
  6358  0DA4  0AF5               	line	25
  6359                           	goto	l1731
  6360  0DA5  2DB2               	
  6361                           l421:	
  6362  0DA6                     	line	26
  6363                           	
  6364                           l1727:	
  6365  0DA6                     	movlw	01h
  6366  0DA6  3001               	
  6367                           u1615:
  6368  0DA7                     	clrc
  6369  0DA7  1003               	rlf	(___awdiv@divisor),f
  6370  0DA8  0DF0               	rlf	(___awdiv@divisor+1),f
  6371  0DA9  0DF1               	addlw	-1
  6372  0DAA  3EFF               	skipz
  6373  0DAB  1D03               	goto	u1615
  6374  0DAC  2DA7               	line	27
  6375                           	
  6376                           l1729:	
  6377  0DAD                     	movlw	low(01h)
  6378  0DAD  3001               	movwf	(??___awdiv+0)+0
  6379  0DAE  00F4               	movf	(??___awdiv+0)+0,w
  6380  0DAF  0874               	addwf	(___awdiv@counter),f
  6381  0DB0  07F5               	goto	l1731
  6382  0DB1  2DB2               	line	28
  6383                           	
  6384                           l420:	
  6385  0DB2                     	line	25
  6386                           	
  6387                           l1731:	
  6388  0DB2                     	btfss	(___awdiv@divisor+1),(15)&7
  6389  0DB2  1FF1               	goto	u1621
  6390  0DB3  2DB5               	goto	u1620
  6391  0DB4  2DB6               u1621:
  6392  0DB5                     	goto	l1727
  6393  0DB5  2DA6               u1620:
  6394  0DB6                     	goto	l1733
  6395  0DB6  2DB8               	
  6396                           l422:	
  6397  0DB7                     	goto	l1733
  6398  0DB7  2DB8               	line	29
  6399                           	
  6400                           l423:	
  6401  0DB8                     	line	30
  6402                           	
  6403                           l1733:	
  6404  0DB8                     	movlw	01h
  6405  0DB8  3001               	
  6406                           u1635:
  6407  0DB9                     	clrc
  6408  0DB9  1003               	rlf	(___awdiv@quotient),f
  6409  0DBA  0DF7               	rlf	(___awdiv@quotient+1),f
  6410  0DBB  0DF8               	addlw	-1
  6411  0DBC  3EFF               	skipz
  6412  0DBD  1D03               	goto	u1635
  6413  0DBE  2DB9               	line	31
  6414                           	movf	(___awdiv@divisor+1),w
  6415  0DBF  0871               	subwf	(___awdiv@dividend+1),w
  6416  0DC0  0273               	skipz
  6417  0DC1  1D03               	goto	u1645
  6418  0DC2  2DC5               	movf	(___awdiv@divisor),w
  6419  0DC3  0870               	subwf	(___awdiv@dividend),w
  6420  0DC4  0272               u1645:
  6421  0DC5                     	skipc
  6422  0DC5  1C03               	goto	u1641
  6423  0DC6  2DC8               	goto	u1640
  6424  0DC7  2DC9               u1641:
  6425  0DC8                     	goto	l1739
  6426  0DC8  2DD1               u1640:
  6427  0DC9                     	line	32
  6428                           	
  6429                           l1735:	
  6430  0DC9                     	movf	(___awdiv@divisor),w
  6431  0DC9  0870               	subwf	(___awdiv@dividend),f
  6432  0DCA  02F2               	movf	(___awdiv@divisor+1),w
  6433  0DCB  0871               	skipc
  6434  0DCC  1C03               	decf	(___awdiv@dividend+1),f
  6435  0DCD  03F3               	subwf	(___awdiv@dividend+1),f
  6436  0DCE  02F3               	line	33
  6437                           	
  6438                           l1737:	
  6439  0DCF                     	bsf	(___awdiv@quotient)+(0/8),(0)&7
  6440  0DCF  1477               	goto	l1739
  6441  0DD0  2DD1               	line	34
  6442                           	
  6443                           l424:	
  6444  0DD1                     	line	35
  6445                           	
  6446                           l1739:	
  6447  0DD1                     	movlw	01h
  6448  0DD1  3001               	
  6449                           u1655:
  6450  0DD2                     	clrc
  6451  0DD2  1003               	rrf	(___awdiv@divisor+1),f
  6452  0DD3  0CF1               	rrf	(___awdiv@divisor),f
  6453  0DD4  0CF0               	addlw	-1
  6454  0DD5  3EFF               	skipz
  6455  0DD6  1D03               	goto	u1655
  6456  0DD7  2DD2               	line	36
  6457                           	
  6458                           l1741:	
  6459  0DD8                     	movlw	01h
  6460  0DD8  3001               	subwf	(___awdiv@counter),f
  6461  0DD9  02F5               	btfss	status,2
  6462  0DDA  1D03               	goto	u1661
  6463  0DDB  2DDD               	goto	u1660
  6464  0DDC  2DDE               u1661:
  6465  0DDD                     	goto	l1733
  6466  0DDD  2DB8               u1660:
  6467  0DDE                     	goto	l1743
  6468  0DDE  2DE0               	
  6469                           l425:	
  6470  0DDF                     	goto	l1743
  6471  0DDF  2DE0               	line	37
  6472                           	
  6473                           l419:	
  6474  0DE0                     	line	38
  6475                           	
  6476                           l1743:	
  6477  0DE0                     	movf	((___awdiv@sign)),w
  6478  0DE0  0876               	btfsc	status,2
  6479  0DE1  1903               	goto	u1671
  6480  0DE2  2DE4               	goto	u1670
  6481  0DE3  2DE5               u1671:
  6482  0DE4                     	goto	l1747
  6483  0DE4  2DEB               u1670:
  6484  0DE5                     	line	39
  6485                           	
  6486                           l1745:	
  6487  0DE5                     	comf	(___awdiv@quotient),f
  6488  0DE5  09F7               	comf	(___awdiv@quotient+1),f
  6489  0DE6  09F8               	incf	(___awdiv@quotient),f
  6490  0DE7  0AF7               	skipnz
  6491  0DE8  1903               	incf	(___awdiv@quotient+1),f
  6492  0DE9  0AF8               	goto	l1747
  6493  0DEA  2DEB               	
  6494                           l426:	
  6495  0DEB                     	line	40
  6496                           	
  6497                           l1747:	
  6498  0DEB                     	movf	(___awdiv@quotient+1),w
  6499  0DEB  0878               	movwf	(?___awdiv+1)
  6500  0DEC  00F1               	movf	(___awdiv@quotient),w
  6501  0DED  0877               	movwf	(?___awdiv)
  6502  0DEE  00F0               	goto	l427
  6503  0DEF  2DF0               	
  6504                           l1749:	
  6505  0DF0                     	line	41
  6506                           	
  6507                           l427:	
  6508  0DF0                     	return
  6509  0DF0  0008               	opt stack 0
  6510                           GLOBAL	__end_of___awdiv
  6511                           	__end_of___awdiv:
  6512  0DF1                     	signat	___awdiv,8314
  6513                           	global	_UART_Init
  6514                           
  6515 ;; *************** function _UART_Init *****************
  6516 ;; Defined at:
  6517 ;;		line 138 in file "ROK5ZAD3.c"
  6518 ;; Parameters:    Size  Location     Type
  6519 ;;		None
  6520 ;; Auto vars:     Size  Location     Type
  6521 ;;		None
  6522 ;; Return value:  Size  Location     Type
  6523 ;;                  1    wreg      void 
  6524 ;; Registers used:
  6525 ;;		wreg
  6526 ;; Tracked objects:
  6527 ;;		On entry : 0/0
  6528 ;;		On exit  : 0/0
  6529 ;;		Unchanged: 0/0
  6530 ;; Data sizes:     COMMON   BANK0   BANK1   BANK3   BANK2
  6531 ;;      Params:         0       0       0       0       0
  6532 ;;      Locals:         0       0       0       0       0
  6533 ;;      Temps:          0       0       0       0       0
  6534 ;;      Totals:         0       0       0       0       0
  6535 ;;Total ram usage:        0 bytes
  6536 ;; Hardware stack levels used:    1
  6537 ;; This function calls:
  6538 ;;		Nothing
  6539 ;; This function is called by:
  6540 ;;		_main
  6541 ;; This function uses a non-reentrant model
  6542 ;;
  6543                           psect	text11,local,class=CODE,delta=2,merge=1,group=0
  6544                           	file	"ROK5ZAD3.c"
  6545                           	line	138
  6546                           global __ptext11
  6547                           __ptext11:	;psect for function _UART_Init
  6548  0B17                     psect	text11
  6549                           	file	"ROK5ZAD3.c"
  6550                           	line	138
  6551                           	global	__size_of_UART_Init
  6552                           	__size_of_UART_Init	equ	__end_of_UART_Init-_UART_Init
  6553  0018                     	
  6554                           _UART_Init:	
  6555  0B17                     ;incstack = 0
  6556                           	opt	stack 7
  6557                           ; Regs used in _UART_Init: [wreg]
  6558                           	line	139
  6559                           	
  6560                           l1663:	
  6561  0B17                     ;ROK5ZAD3.c: 139:     TRISC6=0;
  6562                           	bsf	status, 5	;RP0=1, select bank1
  6563  0B17  1683               	bcf	status, 6	;RP1=0, select bank1
  6564  0B18  1303               	bcf	(1086/8)^080h,(1086)&7	;volatile
  6565  0B19  1307               	line	140
  6566                           ;ROK5ZAD3.c: 140:     TRISC7=1;
  6567                           	bsf	(1087/8)^080h,(1087)&7	;volatile
  6568  0B1A  1787               	line	142
  6569                           	
  6570                           l1665:	
  6571  0B1B                     ;ROK5ZAD3.c: 142:     SPBRG=((20000000/16)/9600)-1;
  6572                           	movlw	low(081h)
  6573  0B1B  3081               	movwf	(153)^080h	;volatile
  6574  0B1C  0099               	line	143
  6575                           	
  6576                           l1667:	
  6577  0B1D                     ;ROK5ZAD3.c: 143:     BRGH=1;
  6578                           	bsf	(1218/8)^080h,(1218)&7	;volatile
  6579  0B1D  1518               	line	145
  6580                           	
  6581                           l1669:	
  6582  0B1E                     ;ROK5ZAD3.c: 145:     SYNC=0;
  6583                           	bcf	(1220/8)^080h,(1220)&7	;volatile
  6584  0B1E  1218               	line	146
  6585                           	
  6586                           l1671:	
  6587  0B1F                     ;ROK5ZAD3.c: 146:     SPEN=1;
  6588                           	bcf	status, 5	;RP0=0, select bank0
  6589  0B1F  1283               	bcf	status, 6	;RP1=0, select bank0
  6590  0B20  1303               	bsf	(199/8),(199)&7	;volatile
  6591  0B21  1798               	line	148
  6592                           	
  6593                           l1673:	
  6594  0B22                     ;ROK5ZAD3.c: 148:     TXEN=1;
  6595                           	bsf	status, 5	;RP0=1, select bank1
  6596  0B22  1683               	bcf	status, 6	;RP1=0, select bank1
  6597  0B23  1303               	bsf	(1221/8)^080h,(1221)&7	;volatile
  6598  0B24  1698               	line	149
  6599                           	
  6600                           l1675:	
  6601  0B25                     ;ROK5ZAD3.c: 149:     CREN=1;
  6602                           	bcf	status, 5	;RP0=0, select bank0
  6603  0B25  1283               	bcf	status, 6	;RP1=0, select bank0
  6604  0B26  1303               	bsf	(196/8),(196)&7	;volatile
  6605  0B27  1618               	line	151
  6606                           	
  6607                           l1677:	
  6608  0B28                     ;ROK5ZAD3.c: 151:     TX9=0;
  6609                           	bsf	status, 5	;RP0=1, select bank1
  6610  0B28  1683               	bcf	status, 6	;RP1=0, select bank1
  6611  0B29  1303               	bcf	(1222/8)^080h,(1222)&7	;volatile
  6612  0B2A  1318               	line	152
  6613                           	
  6614                           l1679:	
  6615  0B2B                     ;ROK5ZAD3.c: 152:     RX9=0;
  6616                           	bcf	status, 5	;RP0=0, select bank0
  6617  0B2B  1283               	bcf	status, 6	;RP1=0, select bank0
  6618  0B2C  1303               	bcf	(198/8),(198)&7	;volatile
  6619  0B2D  1318               	line	153
  6620                           	
  6621                           l136:	
  6622  0B2E                     	return
  6623  0B2E  0008               	opt stack 0
  6624                           GLOBAL	__end_of_UART_Init
  6625                           	__end_of_UART_Init:
  6626  0B2F                     	signat	_UART_Init,89
  6627                           	global	_UART_Get_Char
  6628                           
  6629 ;; *************** function _UART_Get_Char *****************
  6630 ;; Defined at:
  6631 ;;		line 160 in file "ROK5ZAD3.c"
  6632 ;; Parameters:    Size  Location     Type
  6633 ;;		None
  6634 ;; Auto vars:     Size  Location     Type
  6635 ;;		None
  6636 ;; Return value:  Size  Location     Type
  6637 ;;                  1    wreg      unsigned char 
  6638 ;; Registers used:
  6639 ;;		wreg
  6640 ;; Tracked objects:
  6641 ;;		On entry : 0/0
  6642 ;;		On exit  : 0/0
  6643 ;;		Unchanged: 0/0
  6644 ;; Data sizes:     COMMON   BANK0   BANK1   BANK3   BANK2
  6645 ;;      Params:         0       0       0       0       0
  6646 ;;      Locals:         0       0       0       0       0
  6647 ;;      Temps:          0       0       0       0       0
  6648 ;;      Totals:         0       0       0       0       0
  6649 ;;Total ram usage:        0 bytes
  6650 ;; Hardware stack levels used:    1
  6651 ;; This function calls:
  6652 ;;		Nothing
  6653 ;; This function is called by:
  6654 ;;		_main
  6655 ;; This function uses a non-reentrant model
  6656 ;;
  6657                           psect	text12,local,class=CODE,delta=2,merge=1,group=0
  6658                           	line	160
  6659                           global __ptext12
  6660                           __ptext12:	;psect for function _UART_Get_Char
  6661  0AF2                     psect	text12
  6662                           	file	"ROK5ZAD3.c"
  6663                           	line	160
  6664                           	global	__size_of_UART_Get_Char
  6665                           	__size_of_UART_Get_Char	equ	__end_of_UART_Get_Char-_UART_Get_Char
  6666  0012                     	
  6667                           _UART_Get_Char:	
  6668  0AF2                     ;incstack = 0
  6669                           	opt	stack 7
  6670                           ; Regs used in _UART_Get_Char: [wreg]
  6671                           	line	161
  6672                           	
  6673                           l1681:	
  6674  0AF2                     ;ROK5ZAD3.c: 161:     if(OERR) {
  6675                           	bcf	status, 5	;RP0=0, select bank0
  6676  0AF2  1283               	bcf	status, 6	;RP1=0, select bank0
  6677  0AF3  1303               	btfss	(193/8),(193)&7	;volatile
  6678  0AF4  1C98               	goto	u1531
  6679  0AF5  2AF7               	goto	u1530
  6680  0AF6  2AF8               u1531:
  6681  0AF7                     	goto	l146
  6682  0AF7  2AFC               u1530:
  6683  0AF8                     	line	162
  6684                           	
  6685                           l1683:	
  6686  0AF8                     ;ROK5ZAD3.c: 162:         CREN=0;
  6687                           	bcf	(196/8),(196)&7	;volatile
  6688  0AF8  1218               	line	163
  6689                           ;ROK5ZAD3.c: 163:         CREN=1;
  6690                           	bsf	(196/8),(196)&7	;volatile
  6691  0AF9  1618               	goto	l146
  6692  0AFA  2AFC               	line	164
  6693                           ;ROK5ZAD3.c: 164:     }
  6694                           	
  6695                           l145:	
  6696  0AFB                     	line	165
  6697                           ;ROK5ZAD3.c: 165:     while(!RCIF);
  6698                           	goto	l146
  6699  0AFB  2AFC               	
  6700                           l147:	
  6701  0AFC                     	
  6702                           l146:	
  6703  0AFC                     	btfss	(101/8),(101)&7	;volatile
  6704  0AFC  1E8C               	goto	u1541
  6705  0AFD  2AFF               	goto	u1540
  6706  0AFE  2B00               u1541:
  6707  0AFF                     	goto	l146
  6708  0AFF  2AFC               u1540:
  6709  0B00                     	goto	l1685
  6710  0B00  2B01               	
  6711                           l148:	
  6712  0B01                     	line	166
  6713                           	
  6714                           l1685:	
  6715  0B01                     ;ROK5ZAD3.c: 166:     return RCREG;
  6716                           	movf	(26),w	;volatile
  6717  0B01  081A               	goto	l149
  6718  0B02  2B03               	
  6719                           l1687:	
  6720  0B03                     	line	167
  6721                           	
  6722                           l149:	
  6723  0B03                     	return
  6724  0B03  0008               	opt stack 0
  6725                           GLOBAL	__end_of_UART_Get_Char
  6726                           	__end_of_UART_Get_Char:
  6727  0B04                     	signat	_UART_Get_Char,89
  6728                           	global	_Lcd_Write_String
  6729                           
  6730 ;; *************** function _Lcd_Write_String *****************
  6731 ;; Defined at:
  6732 ;;		line 128 in file "ROK5ZAD3.c"
  6733 ;; Parameters:    Size  Location     Type
  6734 ;;  a               2    5[COMMON] PTR unsigned char 
  6735 ;;		 -> STR_17(2), STR_16(2), STR_15(12), STR_13(11), 
  6736 ;;		 -> STR_12(16), STR_10(16), STR_9(12), 
  6737 ;; Auto vars:     Size  Location     Type
  6738 ;;  i               2   10[COMMON] int 
  6739 ;; Return value:  Size  Location     Type
  6740 ;;                  1    wreg      void 
  6741 ;; Registers used:
  6742 ;;		wreg, fsr0l, fsr0h, status,2, status,0, btemp+1, pclath, cstack
  6743 ;; Tracked objects:
  6744 ;;		On entry : 0/0
  6745 ;;		On exit  : 0/0
  6746 ;;		Unchanged: 0/0
  6747 ;; Data sizes:     COMMON   BANK0   BANK1   BANK3   BANK2
  6748 ;;      Params:         2       0       0       0       0
  6749 ;;      Locals:         2       0       0       0       0
  6750 ;;      Temps:          3       0       0       0       0
  6751 ;;      Totals:         7       0       0       0       0
  6752 ;;Total ram usage:        7 bytes
  6753 ;; Hardware stack levels used:    1
  6754 ;; Hardware stack levels required when called:    2
  6755 ;; This function calls:
  6756 ;;		_Lcd_Write_Char
  6757 ;; This function is called by:
  6758 ;;		_main
  6759 ;; This function uses a non-reentrant model
  6760 ;;
  6761                           psect	text13,local,class=CODE,delta=2,merge=1,group=0
  6762                           	line	128
  6763                           global __ptext13
  6764                           __ptext13:	;psect for function _Lcd_Write_String
  6765  0C25                     psect	text13
  6766                           	file	"ROK5ZAD3.c"
  6767                           	line	128
  6768                           	global	__size_of_Lcd_Write_String
  6769                           	__size_of_Lcd_Write_String	equ	__end_of_Lcd_Write_String-_Lcd_Write_String
  6770  0044                     	
  6771                           _Lcd_Write_String:	
  6772  0C25                     ;incstack = 0
  6773                           	opt	stack 5
  6774                           ; Regs used in _Lcd_Write_String: [wreg-fsr0h+status,2+status,0+btemp+1+pclath+cstack]
  6775                           	line	130
  6776                           	
  6777                           l1655:	
  6778  0C25                     ;ROK5ZAD3.c: 129:     int i;;ROK5ZAD3.c: 130:     for(i=0;a[i]!='\0';i++) {
  6779                           	clrf	(Lcd_Write_String@i)
  6780  0C25  01FA               	clrf	(Lcd_Write_String@i+1)
  6781  0C26  01FB               	goto	l1661
  6782  0C27  2C4B               	
  6783                           l131:	
  6784  0C28                     	line	131
  6785                           	
  6786                           l1657:	
  6787  0C28                     ;ROK5ZAD3.c: 131:         Lcd_Write_Char(a[i]);
  6788                           	movf	(Lcd_Write_String@i),w
  6789  0C28  087A               	addwf	(Lcd_Write_String@a),w
  6790  0C29  0775               	movwf	(??_Lcd_Write_String+1)+0
  6791  0C2A  00F8               	movf	(Lcd_Write_String@a+1),w
  6792  0C2B  0876               	movwf	(??_Lcd_Write_String+0)+0
  6793  0C2C  00F7               	skipnc
  6794  0C2D  1803               	incf	(??_Lcd_Write_String+0)+0,f
  6795  0C2E  0AF7               	btfss	(Lcd_Write_String@i),7
  6796  0C2F  1FFA               	goto	u1500
  6797  0C30  2C32               	decf	(??_Lcd_Write_String+0)+0,f
  6798  0C31  03F7               u1500:
  6799  0C32                     	movf	(??_Lcd_Write_String+0)+0,w
  6800  0C32  0877               	movwf	0+((??_Lcd_Write_String+1)+0)+1
  6801  0C33  00F9               	movf	1+(??_Lcd_Write_String+1)+0,w
  6802  0C34  0879               	bcf	status, 5	;RP0=0, select bank0
  6803  0C35  1283               	bcf	status, 6	;RP1=0, select bank0
  6804  0C36  1303               	movwf	btemp+1
  6805  0C37  00FF               	movf	0+(??_Lcd_Write_String+1)+0,w
  6806  0C38  0878               	movwf	fsr0
  6807  0C39  0084               	fcall	stringtab
  6808  0C3A  120A  158A  2000  120A  158A  	fcall	_Lcd_Write_Char
  6809  0C3F  120A  158A  23EC  120A  158A  	line	132
  6810                           	
  6811                           l1659:	
  6812  0C44                     ;ROK5ZAD3.c: 132:     }
  6813                           	movlw	01h
  6814  0C44  3001               	addwf	(Lcd_Write_String@i),f
  6815  0C45  07FA               	skipnc
  6816  0C46  1803               	incf	(Lcd_Write_String@i+1),f
  6817  0C47  0AFB               	movlw	0
  6818  0C48  3000               	addwf	(Lcd_Write_String@i+1),f
  6819  0C49  07FB               	goto	l1661
  6820  0C4A  2C4B               	
  6821                           l130:	
  6822  0C4B                     	
  6823                           l1661:	
  6824  0C4B                     	movf	(Lcd_Write_String@i),w
  6825  0C4B  087A               	addwf	(Lcd_Write_String@a),w
  6826  0C4C  0775               	movwf	(??_Lcd_Write_String+1)+0
  6827  0C4D  00F8               	movf	(Lcd_Write_String@a+1),w
  6828  0C4E  0876               	movwf	(??_Lcd_Write_String+0)+0
  6829  0C4F  00F7               	skipnc
  6830  0C50  1803               	incf	(??_Lcd_Write_String+0)+0,f
  6831  0C51  0AF7               	btfss	(Lcd_Write_String@i),7
  6832  0C52  1FFA               	goto	u1510
  6833  0C53  2C55               	decf	(??_Lcd_Write_String+0)+0,f
  6834  0C54  03F7               u1510:
  6835  0C55                     	movf	(??_Lcd_Write_String+0)+0,w
  6836  0C55  0877               	movwf	0+((??_Lcd_Write_String+1)+0)+1
  6837  0C56  00F9               	movf	1+(??_Lcd_Write_String+1)+0,w
  6838  0C57  0879               	bcf	status, 5	;RP0=0, select bank0
  6839  0C58  1283               	bcf	status, 6	;RP1=0, select bank0
  6840  0C59  1303               	movwf	btemp+1
  6841  0C5A  00FF               	movf	0+(??_Lcd_Write_String+1)+0,w
  6842  0C5B  0878               	movwf	fsr0
  6843  0C5C  0084               	fcall	stringtab
  6844  0C5D  120A  158A  2000  120A  158A  	xorlw	0
  6845  0C62  3A00               	skipz
  6846  0C63  1D03               	goto	u1521
  6847  0C64  2C66               	goto	u1520
  6848  0C65  2C67               u1521:
  6849  0C66                     	goto	l1657
  6850  0C66  2C28               u1520:
  6851  0C67                     	goto	l133
  6852  0C67  2C68               	
  6853                           l132:	
  6854  0C68                     	line	133
  6855                           	
  6856                           l133:	
  6857  0C68                     	return
  6858  0C68  0008               	opt stack 0
  6859                           GLOBAL	__end_of_Lcd_Write_String
  6860                           	__end_of_Lcd_Write_String:
  6861  0C69                     	signat	_Lcd_Write_String,4217
  6862                           	global	_Lcd_Write_Char
  6863                           
  6864 ;; *************** function _Lcd_Write_Char *****************
  6865 ;; Defined at:
  6866 ;;		line 113 in file "ROK5ZAD3.c"
  6867 ;; Parameters:    Size  Location     Type
  6868 ;;  a               1    wreg     unsigned char 
  6869 ;; Auto vars:     Size  Location     Type
  6870 ;;  a               1    4[COMMON] unsigned char 
  6871 ;;  y               1    3[COMMON] unsigned char 
  6872 ;;  temp            1    2[COMMON] unsigned char 
  6873 ;; Return value:  Size  Location     Type
  6874 ;;                  1    wreg      void 
  6875 ;; Registers used:
  6876 ;;		wreg, status,2, status,0, pclath, cstack
  6877 ;; Tracked objects:
  6878 ;;		On entry : 0/0
  6879 ;;		On exit  : 0/0
  6880 ;;		Unchanged: 0/0
  6881 ;; Data sizes:     COMMON   BANK0   BANK1   BANK3   BANK2
  6882 ;;      Params:         0       0       0       0       0
  6883 ;;      Locals:         3       0       0       0       0
  6884 ;;      Temps:          1       0       0       0       0
  6885 ;;      Totals:         4       0       0       0       0
  6886 ;;Total ram usage:        4 bytes
  6887 ;; Hardware stack levels used:    1
  6888 ;; Hardware stack levels required when called:    1
  6889 ;; This function calls:
  6890 ;;		_Lcd_Port
  6891 ;; This function is called by:
  6892 ;;		_Lcd_Write_String
  6893 ;;		_main
  6894 ;; This function uses a non-reentrant model
  6895 ;;
  6896                           psect	text14,local,class=CODE,delta=2,merge=1,group=0
  6897                           	line	113
  6898                           global __ptext14
  6899                           __ptext14:	;psect for function _Lcd_Write_Char
  6900  0BEC                     psect	text14
  6901                           	file	"ROK5ZAD3.c"
  6902                           	line	113
  6903                           	global	__size_of_Lcd_Write_Char
  6904                           	__size_of_Lcd_Write_Char	equ	__end_of_Lcd_Write_Char-_Lcd_Write_Char
  6905  0039                     	
  6906                           _Lcd_Write_Char:	
  6907  0BEC                     ;incstack = 0
  6908                           	opt	stack 5
  6909                           ; Regs used in _Lcd_Write_Char: [wreg+status,2+status,0+pclath+cstack]
  6910                           ;Lcd_Write_Char@a stored from wreg
  6911                           	movwf	(Lcd_Write_Char@a)
  6912  0BEC  00F4               	line	115
  6913                           	
  6914                           l1587:	
  6915  0BED                     ;ROK5ZAD3.c: 114:     char temp, y;;ROK5ZAD3.c: 115:     temp=a&0x0F;
  6916                           	movf	(Lcd_Write_Char@a),w
  6917  0BED  0874               	andlw	0Fh
  6918  0BEE  390F               	movwf	(??_Lcd_Write_Char+0)+0
  6919  0BEF  00F1               	movf	(??_Lcd_Write_Char+0)+0,w
  6920  0BF0  0871               	movwf	(Lcd_Write_Char@temp)
  6921  0BF1  00F2               	line	116
  6922                           ;ROK5ZAD3.c: 116:     y=a&0xF0;
  6923                           	movf	(Lcd_Write_Char@a),w
  6924  0BF2  0874               	andlw	0F0h
  6925  0BF3  39F0               	movwf	(??_Lcd_Write_Char+0)+0
  6926  0BF4  00F1               	movf	(??_Lcd_Write_Char+0)+0,w
  6927  0BF5  0871               	movwf	(Lcd_Write_Char@y)
  6928  0BF6  00F3               	line	117
  6929                           	
  6930                           l1589:	
  6931  0BF7                     ;ROK5ZAD3.c: 117:     RD2=1;
  6932                           	bcf	status, 5	;RP0=0, select bank0
  6933  0BF7  1283               	bcf	status, 6	;RP1=0, select bank0
  6934  0BF8  1303               	bsf	(66/8),(66)&7	;volatile
  6935  0BF9  1508               	line	118
  6936                           	
  6937                           l1591:	
  6938  0BFA                     ;ROK5ZAD3.c: 118:     Lcd_Port(y>>4);
  6939                           	movf	(Lcd_Write_Char@y),w
  6940  0BFA  0873               	movwf	(??_Lcd_Write_Char+0)+0
  6941  0BFB  00F1               	movlw	04h
  6942  0BFC  3004               u1425:
  6943  0BFD                     	clrc
  6944  0BFD  1003               	rrf	(??_Lcd_Write_Char+0)+0,f
  6945  0BFE  0CF1               	addlw	-1
  6946  0BFF  3EFF               	skipz
  6947  0C00  1D03               	goto	u1425
  6948  0C01  2BFD               	movf	0+(??_Lcd_Write_Char+0)+0,w
  6949  0C02  0871               	fcall	_Lcd_Port
  6950  0C03  120A  158A  2349  120A  158A  	line	119
  6951                           	
  6952                           l1593:	
  6953  0C08                     ;ROK5ZAD3.c: 119:     RD3=1;
  6954                           	bcf	status, 5	;RP0=0, select bank0
  6955  0C08  1283               	bcf	status, 6	;RP1=0, select bank0
  6956  0C09  1303               	bsf	(67/8),(67)&7	;volatile
  6957  0C0A  1588               	line	120
  6958                           	
  6959                           l1595:	
  6960  0C0B                     ;ROK5ZAD3.c: 120:     _delay((unsigned long)((40)*(20000000/4000000.0)));
  6961                           	opt asmopt_push
  6962                           opt asmopt_off
  6963                           	movlw	66
  6964  0C0B  3042               movwf	((??_Lcd_Write_Char+0)+0),f
  6965  0C0C  00F1               	u2767:
  6966  0C0D                     decfsz	(??_Lcd_Write_Char+0)+0,f
  6967  0C0D  0BF1               	goto	u2767
  6968  0C0E  2C0D               	nop
  6969  0C0F  0000               opt asmopt_pop
  6970                           
  6971                           	line	121
  6972                           	
  6973                           l1597:	
  6974  0C10                     ;ROK5ZAD3.c: 121:     RD3=0;
  6975                           	bcf	status, 5	;RP0=0, select bank0
  6976  0C10  1283               	bcf	status, 6	;RP1=0, select bank0
  6977  0C11  1303               	bcf	(67/8),(67)&7	;volatile
  6978  0C12  1188               	line	122
  6979                           	
  6980                           l1599:	
  6981  0C13                     ;ROK5ZAD3.c: 122:     Lcd_Port(temp);
  6982                           	movf	(Lcd_Write_Char@temp),w
  6983  0C13  0872               	fcall	_Lcd_Port
  6984  0C14  120A  158A  2349  120A  158A  	line	123
  6985                           	
  6986                           l1601:	
  6987  0C19                     ;ROK5ZAD3.c: 123:     RD3=1;
  6988                           	bcf	status, 5	;RP0=0, select bank0
  6989  0C19  1283               	bcf	status, 6	;RP1=0, select bank0
  6990  0C1A  1303               	bsf	(67/8),(67)&7	;volatile
  6991  0C1B  1588               	line	124
  6992                           	
  6993                           l1603:	
  6994  0C1C                     ;ROK5ZAD3.c: 124:     _delay((unsigned long)((40)*(20000000/4000000.0)));
  6995                           	opt asmopt_push
  6996                           opt asmopt_off
  6997                           	movlw	66
  6998  0C1C  3042               movwf	((??_Lcd_Write_Char+0)+0),f
  6999  0C1D  00F1               	u2777:
  7000  0C1E                     decfsz	(??_Lcd_Write_Char+0)+0,f
  7001  0C1E  0BF1               	goto	u2777
  7002  0C1F  2C1E               	nop
  7003  0C20  0000               opt asmopt_pop
  7004                           
  7005                           	line	125
  7006                           	
  7007                           l1605:	
  7008  0C21                     ;ROK5ZAD3.c: 125:     RD3=0;
  7009                           	bcf	status, 5	;RP0=0, select bank0
  7010  0C21  1283               	bcf	status, 6	;RP1=0, select bank0
  7011  0C22  1303               	bcf	(67/8),(67)&7	;volatile
  7012  0C23  1188               	line	126
  7013                           	
  7014                           l127:	
  7015  0C24                     	return
  7016  0C24  0008               	opt stack 0
  7017                           GLOBAL	__end_of_Lcd_Write_Char
  7018                           	__end_of_Lcd_Write_Char:
  7019  0C25                     	signat	_Lcd_Write_Char,4217
  7020                           	global	_Lcd_Set_Cursor
  7021                           
  7022 ;; *************** function _Lcd_Set_Cursor *****************
  7023 ;; Defined at:
  7024 ;;		line 78 in file "ROK5ZAD3.c"
  7025 ;; Parameters:    Size  Location     Type
  7026 ;;  a               1    wreg     unsigned char 
  7027 ;;  b               1    4[COMMON] unsigned char 
  7028 ;; Auto vars:     Size  Location     Type
  7029 ;;  a               1    7[COMMON] unsigned char 
  7030 ;;  temp            1   10[COMMON] unsigned char 
  7031 ;;  y               1    9[COMMON] unsigned char 
  7032 ;;  z               1    8[COMMON] unsigned char 
  7033 ;; Return value:  Size  Location     Type
  7034 ;;                  1    wreg      void 
  7035 ;; Registers used:
  7036 ;;		wreg, status,2, status,0, pclath, cstack
  7037 ;; Tracked objects:
  7038 ;;		On entry : 0/0
  7039 ;;		On exit  : 0/0
  7040 ;;		Unchanged: 0/0
  7041 ;; Data sizes:     COMMON   BANK0   BANK1   BANK3   BANK2
  7042 ;;      Params:         1       0       0       0       0
  7043 ;;      Locals:         4       0       0       0       0
  7044 ;;      Temps:          2       0       0       0       0
  7045 ;;      Totals:         7       0       0       0       0
  7046 ;;Total ram usage:        7 bytes
  7047 ;; Hardware stack levels used:    1
  7048 ;; Hardware stack levels required when called:    2
  7049 ;; This function calls:
  7050 ;;		_Lcd_Cmd
  7051 ;; This function is called by:
  7052 ;;		_main
  7053 ;; This function uses a non-reentrant model
  7054 ;;
  7055                           psect	text15,local,class=CODE,delta=2,merge=1,group=0
  7056                           	line	78
  7057                           global __ptext15
  7058                           __ptext15:	;psect for function _Lcd_Set_Cursor
  7059  0C69                     psect	text15
  7060                           	file	"ROK5ZAD3.c"
  7061                           	line	78
  7062                           	global	__size_of_Lcd_Set_Cursor
  7063                           	__size_of_Lcd_Set_Cursor	equ	__end_of_Lcd_Set_Cursor-_Lcd_Set_Cursor
  7064  0054                     	
  7065                           _Lcd_Set_Cursor:	
  7066  0C69                     ;incstack = 0
  7067                           	opt	stack 5
  7068                           ; Regs used in _Lcd_Set_Cursor: [wreg+status,2+status,0+pclath+cstack]
  7069                           ;Lcd_Set_Cursor@a stored from wreg
  7070                           	movwf	(Lcd_Set_Cursor@a)
  7071  0C69  00F7               	line	80
  7072                           	
  7073                           l1625:	
  7074  0C6A                     ;ROK5ZAD3.c: 79:     char temp, z, y;;ROK5ZAD3.c: 80:     if(a==1) {
  7075                           		decf	((Lcd_Set_Cursor@a)),w
  7076  0C6A  0377               	btfss	status,2
  7077  0C6B  1D03               	goto	u1461
  7078  0C6C  2C6E               	goto	u1460
  7079  0C6D  2C6F               u1461:
  7080  0C6E                     	goto	l1635
  7081  0C6E  2C92               u1460:
  7082  0C6F                     	line	81
  7083                           	
  7084                           l1627:	
  7085  0C6F                     ;ROK5ZAD3.c: 81:         temp=0x80+b-1;
  7086                           	movf	(Lcd_Set_Cursor@b),w
  7087  0C6F  0874               	addlw	07Fh
  7088  0C70  3E7F               	movwf	(??_Lcd_Set_Cursor+0)+0
  7089  0C71  00F5               	movf	(??_Lcd_Set_Cursor+0)+0,w
  7090  0C72  0875               	movwf	(Lcd_Set_Cursor@temp)
  7091  0C73  00FA               	line	82
  7092                           ;ROK5ZAD3.c: 82:         z=temp>>4;
  7093                           	movf	(Lcd_Set_Cursor@temp),w
  7094  0C74  087A               	movwf	(??_Lcd_Set_Cursor+0)+0
  7095  0C75  00F5               	movlw	04h
  7096  0C76  3004               u1475:
  7097  0C77                     	clrc
  7098  0C77  1003               	rrf	(??_Lcd_Set_Cursor+0)+0,f
  7099  0C78  0CF5               	addlw	-1
  7100  0C79  3EFF               	skipz
  7101  0C7A  1D03               	goto	u1475
  7102  0C7B  2C77               	movf	0+(??_Lcd_Set_Cursor+0)+0,w
  7103  0C7C  0875               	movwf	(??_Lcd_Set_Cursor+1)+0
  7104  0C7D  00F6               	movf	(??_Lcd_Set_Cursor+1)+0,w
  7105  0C7E  0876               	movwf	(Lcd_Set_Cursor@z)
  7106  0C7F  00F8               	line	83
  7107                           	
  7108                           l1629:	
  7109  0C80                     ;ROK5ZAD3.c: 83:         y=temp&0x0F;
  7110                           	movf	(Lcd_Set_Cursor@temp),w
  7111  0C80  087A               	andlw	0Fh
  7112  0C81  390F               	movwf	(??_Lcd_Set_Cursor+0)+0
  7113  0C82  00F5               	movf	(??_Lcd_Set_Cursor+0)+0,w
  7114  0C83  0875               	movwf	(Lcd_Set_Cursor@y)
  7115  0C84  00F9               	line	84
  7116                           	
  7117                           l1631:	
  7118  0C85                     ;ROK5ZAD3.c: 84:         Lcd_Cmd(z);
  7119                           	movf	(Lcd_Set_Cursor@z),w
  7120  0C85  0878               	fcall	_Lcd_Cmd
  7121  0C86  120A  158A  232F  120A  158A  	line	85
  7122                           	
  7123                           l1633:	
  7124  0C8B                     ;ROK5ZAD3.c: 85:         Lcd_Cmd(y);
  7125                           	movf	(Lcd_Set_Cursor@y),w
  7126  0C8B  0879               	fcall	_Lcd_Cmd
  7127  0C8C  120A  158A  232F  120A  158A  	line	86
  7128                           ;ROK5ZAD3.c: 86:     }
  7129                           	goto	l121
  7130  0C91  2CBC               	line	87
  7131                           ;ROK5ZAD3.c: 87:     else if(a==2) {
  7132                           	
  7133                           l118:	
  7134  0C92                     	
  7135                           l1635:	
  7136  0C92                     		movlw	2
  7137  0C92  3002               	xorwf	((Lcd_Set_Cursor@a)),w
  7138  0C93  0677               	btfss	status,2
  7139  0C94  1D03               	goto	u1481
  7140  0C95  2C97               	goto	u1480
  7141  0C96  2C98               u1481:
  7142  0C97                     	goto	l121
  7143  0C97  2CBC               u1480:
  7144  0C98                     	line	88
  7145                           	
  7146                           l1637:	
  7147  0C98                     ;ROK5ZAD3.c: 88:         temp=0xC0+b-1;
  7148                           	movf	(Lcd_Set_Cursor@b),w
  7149  0C98  0874               	addlw	0BFh
  7150  0C99  3EBF               	movwf	(??_Lcd_Set_Cursor+0)+0
  7151  0C9A  00F5               	movf	(??_Lcd_Set_Cursor+0)+0,w
  7152  0C9B  0875               	movwf	(Lcd_Set_Cursor@temp)
  7153  0C9C  00FA               	line	89
  7154                           ;ROK5ZAD3.c: 89:         z=temp>>4;
  7155                           	movf	(Lcd_Set_Cursor@temp),w
  7156  0C9D  087A               	movwf	(??_Lcd_Set_Cursor+0)+0
  7157  0C9E  00F5               	movlw	04h
  7158  0C9F  3004               u1495:
  7159  0CA0                     	clrc
  7160  0CA0  1003               	rrf	(??_Lcd_Set_Cursor+0)+0,f
  7161  0CA1  0CF5               	addlw	-1
  7162  0CA2  3EFF               	skipz
  7163  0CA3  1D03               	goto	u1495
  7164  0CA4  2CA0               	movf	0+(??_Lcd_Set_Cursor+0)+0,w
  7165  0CA5  0875               	movwf	(??_Lcd_Set_Cursor+1)+0
  7166  0CA6  00F6               	movf	(??_Lcd_Set_Cursor+1)+0,w
  7167  0CA7  0876               	movwf	(Lcd_Set_Cursor@z)
  7168  0CA8  00F8               	line	90
  7169                           	
  7170                           l1639:	
  7171  0CA9                     ;ROK5ZAD3.c: 90:         y=temp&0x0F;
  7172                           	movf	(Lcd_Set_Cursor@temp),w
  7173  0CA9  087A               	andlw	0Fh
  7174  0CAA  390F               	movwf	(??_Lcd_Set_Cursor+0)+0
  7175  0CAB  00F5               	movf	(??_Lcd_Set_Cursor+0)+0,w
  7176  0CAC  0875               	movwf	(Lcd_Set_Cursor@y)
  7177  0CAD  00F9               	line	91
  7178                           	
  7179                           l1641:	
  7180  0CAE                     ;ROK5ZAD3.c: 91:         Lcd_Cmd(z);
  7181                           	movf	(Lcd_Set_Cursor@z),w
  7182  0CAE  0878               	fcall	_Lcd_Cmd
  7183  0CAF  120A  158A  232F  120A  158A  	line	92
  7184                           	
  7185                           l1643:	
  7186  0CB4                     ;ROK5ZAD3.c: 92:         Lcd_Cmd(y);
  7187                           	movf	(Lcd_Set_Cursor@y),w
  7188  0CB4  0879               	fcall	_Lcd_Cmd
  7189  0CB5  120A  158A  232F  120A  158A  	goto	l121
  7190  0CBA  2CBC               	line	93
  7191                           ;ROK5ZAD3.c: 93:     }
  7192                           	
  7193                           l120:	
  7194  0CBB                     	goto	l121
  7195  0CBB  2CBC               	
  7196                           l119:	
  7197  0CBC                     	line	94
  7198                           	
  7199                           l121:	
  7200  0CBC                     	return
  7201  0CBC  0008               	opt stack 0
  7202                           GLOBAL	__end_of_Lcd_Set_Cursor
  7203                           	__end_of_Lcd_Set_Cursor:
  7204  0CBD                     	signat	_Lcd_Set_Cursor,8313
  7205                           	global	_Lcd_Init
  7206                           
  7207 ;; *************** function _Lcd_Init *****************
  7208 ;; Defined at:
  7209 ;;		line 96 in file "ROK5ZAD3.c"
  7210 ;; Parameters:    Size  Location     Type
  7211 ;;		None
  7212 ;; Auto vars:     Size  Location     Type
  7213 ;;		None
  7214 ;; Return value:  Size  Location     Type
  7215 ;;                  1    wreg      void 
  7216 ;; Registers used:
  7217 ;;		wreg, status,2, status,0, pclath, cstack
  7218 ;; Tracked objects:
  7219 ;;		On entry : 0/0
  7220 ;;		On exit  : 0/0
  7221 ;;		Unchanged: 0/0
  7222 ;; Data sizes:     COMMON   BANK0   BANK1   BANK3   BANK2
  7223 ;;      Params:         0       0       0       0       0
  7224 ;;      Locals:         0       0       0       0       0
  7225 ;;      Temps:          2       0       0       0       0
  7226 ;;      Totals:         2       0       0       0       0
  7227 ;;Total ram usage:        2 bytes
  7228 ;; Hardware stack levels used:    1
  7229 ;; Hardware stack levels required when called:    2
  7230 ;; This function calls:
  7231 ;;		_Lcd_Cmd
  7232 ;;		_Lcd_Port
  7233 ;; This function is called by:
  7234 ;;		_main
  7235 ;; This function uses a non-reentrant model
  7236 ;;
  7237                           psect	text16,local,class=CODE,delta=2,merge=1,group=0
  7238                           	line	96
  7239                           global __ptext16
  7240                           __ptext16:	;psect for function _Lcd_Init
  7241  0CBD                     psect	text16
  7242                           	file	"ROK5ZAD3.c"
  7243                           	line	96
  7244                           	global	__size_of_Lcd_Init
  7245                           	__size_of_Lcd_Init	equ	__end_of_Lcd_Init-_Lcd_Init
  7246  005E                     	
  7247                           _Lcd_Init:	
  7248  0CBD                     ;incstack = 0
  7249                           	opt	stack 5
  7250                           ; Regs used in _Lcd_Init: [wreg+status,2+status,0+pclath+cstack]
  7251                           	line	97
  7252                           	
  7253                           l1645:	
  7254  0CBD                     ;ROK5ZAD3.c: 97:     Lcd_Port(0x00);
  7255                           	movlw	low(0)
  7256  0CBD  3000               	fcall	_Lcd_Port
  7257  0CBE  120A  158A  2349  120A  158A  	line	98
  7258                           	
  7259                           l1647:	
  7260  0CC3                     ;ROK5ZAD3.c: 98:     _delay((unsigned long)((20)*(20000000/4000.0)));
  7261                           	opt asmopt_push
  7262                           opt asmopt_off
  7263                           movlw	130
  7264  0CC3  3082               movwf	((??_Lcd_Init+0)+0+1),f
  7265  0CC4  00F5               	movlw	221
  7266  0CC5  30DD               movwf	((??_Lcd_Init+0)+0),f
  7267  0CC6  00F4               	u2787:
  7268  0CC7                     decfsz	((??_Lcd_Init+0)+0),f
  7269  0CC7  0BF4               	goto	u2787
  7270  0CC8  2CC7               	decfsz	((??_Lcd_Init+0)+0+1),f
  7271  0CC9  0BF5               	goto	u2787
  7272  0CCA  2CC7               	nop2
  7273  0CCB  2CCC               opt asmopt_pop
  7274                           
  7275                           	line	99
  7276                           	
  7277                           l1649:	
  7278  0CCC                     ;ROK5ZAD3.c: 99:     Lcd_Cmd(0x03);
  7279                           	movlw	low(03h)
  7280  0CCC  3003               	fcall	_Lcd_Cmd
  7281  0CCD  120A  158A  232F  120A  158A  	line	100
  7282                           ;ROK5ZAD3.c: 100:     _delay((unsigned long)((5)*(20000000/4000.0)));
  7283                           	opt asmopt_push
  7284                           opt asmopt_off
  7285                           movlw	33
  7286  0CD2  3021               movwf	((??_Lcd_Init+0)+0+1),f
  7287  0CD3  00F5               	movlw	118
  7288  0CD4  3076               movwf	((??_Lcd_Init+0)+0),f
  7289  0CD5  00F4               	u2797:
  7290  0CD6                     decfsz	((??_Lcd_Init+0)+0),f
  7291  0CD6  0BF4               	goto	u2797
  7292  0CD7  2CD6               	decfsz	((??_Lcd_Init+0)+0+1),f
  7293  0CD8  0BF5               	goto	u2797
  7294  0CD9  2CD6               	nop
  7295  0CDA  0000               opt asmopt_pop
  7296                           
  7297                           	line	101
  7298                           	
  7299                           l1651:	
  7300  0CDB                     ;ROK5ZAD3.c: 101:     Lcd_Cmd(0x03);
  7301                           	movlw	low(03h)
  7302  0CDB  3003               	fcall	_Lcd_Cmd
  7303  0CDC  120A  158A  232F  120A  158A  	line	102
  7304                           	
  7305                           l1653:	
  7306  0CE1                     ;ROK5ZAD3.c: 102:     _delay((unsigned long)((11)*(20000000/4000.0)));
  7307                           	opt asmopt_push
  7308                           opt asmopt_off
  7309                           movlw	72
  7310  0CE1  3048               movwf	((??_Lcd_Init+0)+0+1),f
  7311  0CE2  00F5               	movlw	108
  7312  0CE3  306C               movwf	((??_Lcd_Init+0)+0),f
  7313  0CE4  00F4               	u2807:
  7314  0CE5                     decfsz	((??_Lcd_Init+0)+0),f
  7315  0CE5  0BF4               	goto	u2807
  7316  0CE6  2CE5               	decfsz	((??_Lcd_Init+0)+0+1),f
  7317  0CE7  0BF5               	goto	u2807
  7318  0CE8  2CE5               	nop
  7319  0CE9  0000               opt asmopt_pop
  7320                           
  7321                           	line	103
  7322                           ;ROK5ZAD3.c: 103:     Lcd_Cmd(0x03);
  7323                           	movlw	low(03h)
  7324  0CEA  3003               	fcall	_Lcd_Cmd
  7325  0CEB  120A  158A  232F  120A  158A  	line	104
  7326                           ;ROK5ZAD3.c: 104:     Lcd_Cmd(0x02);
  7327                           	movlw	low(02h)
  7328  0CF0  3002               	fcall	_Lcd_Cmd
  7329  0CF1  120A  158A  232F  120A  158A  	line	105
  7330                           ;ROK5ZAD3.c: 105:     Lcd_Cmd(0x02);
  7331                           	movlw	low(02h)
  7332  0CF6  3002               	fcall	_Lcd_Cmd
  7333  0CF7  120A  158A  232F  120A  158A  	line	106
  7334                           ;ROK5ZAD3.c: 106:     Lcd_Cmd(0x08);
  7335                           	movlw	low(08h)
  7336  0CFC  3008               	fcall	_Lcd_Cmd
  7337  0CFD  120A  158A  232F  120A  158A  	line	107
  7338                           ;ROK5ZAD3.c: 107:     Lcd_Cmd(0x00);
  7339                           	movlw	low(0)
  7340  0D02  3000               	fcall	_Lcd_Cmd
  7341  0D03  120A  158A  232F  120A  158A  	line	108
  7342                           ;ROK5ZAD3.c: 108:     Lcd_Cmd(0x0C);
  7343                           	movlw	low(0Ch)
  7344  0D08  300C               	fcall	_Lcd_Cmd
  7345  0D09  120A  158A  232F  120A  158A  	line	109
  7346                           ;ROK5ZAD3.c: 109:     Lcd_Cmd(0x00);
  7347                           	movlw	low(0)
  7348  0D0E  3000               	fcall	_Lcd_Cmd
  7349  0D0F  120A  158A  232F  120A  158A  	line	110
  7350                           ;ROK5ZAD3.c: 110:     Lcd_Cmd(0x06);
  7351                           	movlw	low(06h)
  7352  0D14  3006               	fcall	_Lcd_Cmd
  7353  0D15  120A  158A  232F  120A  158A  	line	111
  7354                           	
  7355                           l124:	
  7356  0D1A                     	return
  7357  0D1A  0008               	opt stack 0
  7358                           GLOBAL	__end_of_Lcd_Init
  7359                           	__end_of_Lcd_Init:
  7360  0D1B                     	signat	_Lcd_Init,89
  7361                           	global	_Lcd_Clear
  7362                           
  7363 ;; *************** function _Lcd_Clear *****************
  7364 ;; Defined at:
  7365 ;;		line 73 in file "ROK5ZAD3.c"
  7366 ;; Parameters:    Size  Location     Type
  7367 ;;		None
  7368 ;; Auto vars:     Size  Location     Type
  7369 ;;		None
  7370 ;; Return value:  Size  Location     Type
  7371 ;;                  2  114[None  ] int 
  7372 ;; Registers used:
  7373 ;;		wreg, status,2, status,0, pclath, cstack
  7374 ;; Tracked objects:
  7375 ;;		On entry : 0/0
  7376 ;;		On exit  : 0/0
  7377 ;;		Unchanged: 0/0
  7378 ;; Data sizes:     COMMON   BANK0   BANK1   BANK3   BANK2
  7379 ;;      Params:         0       0       0       0       0
  7380 ;;      Locals:         0       0       0       0       0
  7381 ;;      Temps:          0       0       0       0       0
  7382 ;;      Totals:         0       0       0       0       0
  7383 ;;Total ram usage:        0 bytes
  7384 ;; Hardware stack levels used:    1
  7385 ;; Hardware stack levels required when called:    2
  7386 ;; This function calls:
  7387 ;;		_Lcd_Cmd
  7388 ;; This function is called by:
  7389 ;;		_main
  7390 ;; This function uses a non-reentrant model
  7391 ;;
  7392                           psect	text17,local,class=CODE,delta=2,merge=1,group=0
  7393                           	line	73
  7394                           global __ptext17
  7395                           __ptext17:	;psect for function _Lcd_Clear
  7396  0006                     psect	text17
  7397                           	file	"ROK5ZAD3.c"
  7398                           	line	73
  7399                           	global	__size_of_Lcd_Clear
  7400                           	__size_of_Lcd_Clear	equ	__end_of_Lcd_Clear-_Lcd_Clear
  7401  000D                     	
  7402                           _Lcd_Clear:	
  7403  0006                     ;incstack = 0
  7404                           	opt	stack 5
  7405                           ; Regs used in _Lcd_Clear: [wreg+status,2+status,0+pclath+cstack]
  7406                           	line	74
  7407                           	
  7408                           l1623:	
  7409  0006                     ;ROK5ZAD3.c: 74:     Lcd_Cmd(0);
  7410                           	movlw	low(0)
  7411  0006  3000               	fcall	_Lcd_Cmd
  7412  0007  120A  158A  232F  120A  118A  	line	75
  7413                           ;ROK5ZAD3.c: 75:     Lcd_Cmd(1);
  7414                           	movlw	low(01h)
  7415  000C  3001               	fcall	_Lcd_Cmd
  7416  000D  120A  158A  232F  120A  118A  	line	76
  7417                           	
  7418                           l115:	
  7419  0012                     	return
  7420  0012  0008               	opt stack 0
  7421                           GLOBAL	__end_of_Lcd_Clear
  7422                           	__end_of_Lcd_Clear:
  7423  0013                     	signat	_Lcd_Clear,90
  7424                           	global	_Lcd_Cmd
  7425                           
  7426 ;; *************** function _Lcd_Cmd *****************
  7427 ;; Defined at:
  7428 ;;		line 66 in file "ROK5ZAD3.c"
  7429 ;; Parameters:    Size  Location     Type
  7430 ;;  a               1    wreg     unsigned char 
  7431 ;; Auto vars:     Size  Location     Type
  7432 ;;  a               1    3[COMMON] unsigned char 
  7433 ;; Return value:  Size  Location     Type
  7434 ;;                  1    wreg      void 
  7435 ;; Registers used:
  7436 ;;		wreg, status,2, status,0, pclath, cstack
  7437 ;; Tracked objects:
  7438 ;;		On entry : 0/0
  7439 ;;		On exit  : 0/0
  7440 ;;		Unchanged: 0/0
  7441 ;; Data sizes:     COMMON   BANK0   BANK1   BANK3   BANK2
  7442 ;;      Params:         0       0       0       0       0
  7443 ;;      Locals:         1       0       0       0       0
  7444 ;;      Temps:          2       0       0       0       0
  7445 ;;      Totals:         3       0       0       0       0
  7446 ;;Total ram usage:        3 bytes
  7447 ;; Hardware stack levels used:    1
  7448 ;; Hardware stack levels required when called:    1
  7449 ;; This function calls:
  7450 ;;		_Lcd_Port
  7451 ;; This function is called by:
  7452 ;;		_Lcd_Clear
  7453 ;;		_Lcd_Set_Cursor
  7454 ;;		_Lcd_Init
  7455 ;; This function uses a non-reentrant model
  7456 ;;
  7457                           psect	text18,local,class=CODE,delta=2,merge=1,group=0
  7458                           	line	66
  7459                           global __ptext18
  7460                           __ptext18:	;psect for function _Lcd_Cmd
  7461  0B2F                     psect	text18
  7462                           	file	"ROK5ZAD3.c"
  7463                           	line	66
  7464                           	global	__size_of_Lcd_Cmd
  7465                           	__size_of_Lcd_Cmd	equ	__end_of_Lcd_Cmd-_Lcd_Cmd
  7466  001A                     	
  7467                           _Lcd_Cmd:	
  7468  0B2F                     ;incstack = 0
  7469                           	opt	stack 5
  7470                           ; Regs used in _Lcd_Cmd: [wreg+status,2+status,0+pclath+cstack]
  7471                           ;Lcd_Cmd@a stored from wreg
  7472                           	movwf	(Lcd_Cmd@a)
  7473  0B2F  00F3               	line	67
  7474                           	
  7475                           l1577:	
  7476  0B30                     ;ROK5ZAD3.c: 67:     RD2=0;
  7477                           	bcf	status, 5	;RP0=0, select bank0
  7478  0B30  1283               	bcf	status, 6	;RP1=0, select bank0
  7479  0B31  1303               	bcf	(66/8),(66)&7	;volatile
  7480  0B32  1108               	line	68
  7481                           	
  7482                           l1579:	
  7483  0B33                     ;ROK5ZAD3.c: 68:     Lcd_Port(a);
  7484                           	movf	(Lcd_Cmd@a),w
  7485  0B33  0873               	fcall	_Lcd_Port
  7486  0B34  120A  158A  2349  120A  158A  	line	69
  7487                           	
  7488                           l1581:	
  7489  0B39                     ;ROK5ZAD3.c: 69:     RD3=1;
  7490                           	bcf	status, 5	;RP0=0, select bank0
  7491  0B39  1283               	bcf	status, 6	;RP1=0, select bank0
  7492  0B3A  1303               	bsf	(67/8),(67)&7	;volatile
  7493  0B3B  1588               	line	70
  7494                           	
  7495                           l1583:	
  7496  0B3C                     ;ROK5ZAD3.c: 70:     _delay((unsigned long)((4)*(20000000/4000.0)));
  7497                           	opt asmopt_push
  7498                           opt asmopt_off
  7499                           movlw	26
  7500  0B3C  301A               movwf	((??_Lcd_Cmd+0)+0+1),f
  7501  0B3D  00F2               	movlw	248
  7502  0B3E  30F8               movwf	((??_Lcd_Cmd+0)+0),f
  7503  0B3F  00F1               	u2817:
  7504  0B40                     decfsz	((??_Lcd_Cmd+0)+0),f
  7505  0B40  0BF1               	goto	u2817
  7506  0B41  2B40               	decfsz	((??_Lcd_Cmd+0)+0+1),f
  7507  0B42  0BF2               	goto	u2817
  7508  0B43  2B40               	nop
  7509  0B44  0000               opt asmopt_pop
  7510                           
  7511                           	line	71
  7512                           	
  7513                           l1585:	
  7514  0B45                     ;ROK5ZAD3.c: 71:     RD3=0;
  7515                           	bcf	status, 5	;RP0=0, select bank0
  7516  0B45  1283               	bcf	status, 6	;RP1=0, select bank0
  7517  0B46  1303               	bcf	(67/8),(67)&7	;volatile
  7518  0B47  1188               	line	72
  7519                           	
  7520                           l112:	
  7521  0B48                     	return
  7522  0B48  0008               	opt stack 0
  7523                           GLOBAL	__end_of_Lcd_Cmd
  7524                           	__end_of_Lcd_Cmd:
  7525  0B49                     	signat	_Lcd_Cmd,4217
  7526                           	global	_Lcd_Port
  7527                           
  7528 ;; *************** function _Lcd_Port *****************
  7529 ;; Defined at:
  7530 ;;		line 47 in file "ROK5ZAD3.c"
  7531 ;; Parameters:    Size  Location     Type
  7532 ;;  a               1    wreg     unsigned char 
  7533 ;; Auto vars:     Size  Location     Type
  7534 ;;  a               1    0[COMMON] unsigned char 
  7535 ;; Return value:  Size  Location     Type
  7536 ;;                  1    wreg      void 
  7537 ;; Registers used:
  7538 ;;		wreg
  7539 ;; Tracked objects:
  7540 ;;		On entry : 0/0
  7541 ;;		On exit  : 0/0
  7542 ;;		Unchanged: 0/0
  7543 ;; Data sizes:     COMMON   BANK0   BANK1   BANK3   BANK2
  7544 ;;      Params:         0       0       0       0       0
  7545 ;;      Locals:         1       0       0       0       0
  7546 ;;      Temps:          0       0       0       0       0
  7547 ;;      Totals:         1       0       0       0       0
  7548 ;;Total ram usage:        1 bytes
  7549 ;; Hardware stack levels used:    1
  7550 ;; This function calls:
  7551 ;;		Nothing
  7552 ;; This function is called by:
  7553 ;;		_Lcd_Cmd
  7554 ;;		_Lcd_Init
  7555 ;;		_Lcd_Write_Char
  7556 ;; This function uses a non-reentrant model
  7557 ;;
  7558                           psect	text19,local,class=CODE,delta=2,merge=1,group=0
  7559                           	line	47
  7560                           global __ptext19
  7561                           __ptext19:	;psect for function _Lcd_Port
  7562  0B49                     psect	text19
  7563                           	file	"ROK5ZAD3.c"
  7564                           	line	47
  7565                           	global	__size_of_Lcd_Port
  7566                           	__size_of_Lcd_Port	equ	__end_of_Lcd_Port-_Lcd_Port
  7567  0023                     	
  7568                           _Lcd_Port:	
  7569  0B49                     ;incstack = 0
  7570                           	opt	stack 5
  7571                           ; Regs used in _Lcd_Port: [wreg]
  7572                           ;Lcd_Port@a stored from wreg
  7573                           	movwf	(Lcd_Port@a)
  7574  0B49  00F0               	line	48
  7575                           	
  7576                           l1563:	
  7577  0B4A                     ;ROK5ZAD3.c: 48:     if(a&1)
  7578                           	btfss	(Lcd_Port@a),(0)&7
  7579  0B4A  1C70               	goto	u1371
  7580  0B4B  2B4D               	goto	u1370
  7581  0B4C  2B4E               u1371:
  7582  0B4D                     	goto	l101
  7583  0B4D  2B52               u1370:
  7584  0B4E                     	line	49
  7585                           	
  7586                           l1565:	
  7587  0B4E                     ;ROK5ZAD3.c: 49:         RD4=1;
  7588                           	bcf	status, 5	;RP0=0, select bank0
  7589  0B4E  1283               	bcf	status, 6	;RP1=0, select bank0
  7590  0B4F  1303               	bsf	(68/8),(68)&7	;volatile
  7591  0B50  1608               	goto	l102
  7592  0B51  2B55               	line	50
  7593                           ;ROK5ZAD3.c: 50:     else
  7594                           	
  7595                           l101:	
  7596  0B52                     	line	51
  7597                           ;ROK5ZAD3.c: 51:         RD4=0;
  7598                           	bcf	status, 5	;RP0=0, select bank0
  7599  0B52  1283               	bcf	status, 6	;RP1=0, select bank0
  7600  0B53  1303               	bcf	(68/8),(68)&7	;volatile
  7601  0B54  1208               	
  7602                           l102:	
  7603  0B55                     	line	52
  7604                           ;ROK5ZAD3.c: 52:     if(a&2)
  7605                           	btfss	(Lcd_Port@a),(1)&7
  7606  0B55  1CF0               	goto	u1381
  7607  0B56  2B58               	goto	u1380
  7608  0B57  2B59               u1381:
  7609  0B58                     	goto	l103
  7610  0B58  2B5B               u1380:
  7611  0B59                     	line	53
  7612                           	
  7613                           l1567:	
  7614  0B59                     ;ROK5ZAD3.c: 53:         RD5=1;
  7615                           	bsf	(69/8),(69)&7	;volatile
  7616  0B59  1688               	goto	l104
  7617  0B5A  2B5C               	line	54
  7618                           ;ROK5ZAD3.c: 54:     else
  7619                           	
  7620                           l103:	
  7621  0B5B                     	line	55
  7622                           ;ROK5ZAD3.c: 55:         RD5=0;
  7623                           	bcf	(69/8),(69)&7	;volatile
  7624  0B5B  1288               	
  7625                           l104:	
  7626  0B5C                     	line	56
  7627                           ;ROK5ZAD3.c: 56:     if(a&4)
  7628                           	btfss	(Lcd_Port@a),(2)&7
  7629  0B5C  1D70               	goto	u1391
  7630  0B5D  2B5F               	goto	u1390
  7631  0B5E  2B60               u1391:
  7632  0B5F                     	goto	l105
  7633  0B5F  2B62               u1390:
  7634  0B60                     	line	57
  7635                           	
  7636                           l1569:	
  7637  0B60                     ;ROK5ZAD3.c: 57:         RD6=1;
  7638                           	bsf	(70/8),(70)&7	;volatile
  7639  0B60  1708               	goto	l106
  7640  0B61  2B63               	line	58
  7641                           ;ROK5ZAD3.c: 58:     else
  7642                           	
  7643                           l105:	
  7644  0B62                     	line	59
  7645                           ;ROK5ZAD3.c: 59:         RD6=0;
  7646                           	bcf	(70/8),(70)&7	;volatile
  7647  0B62  1308               	
  7648                           l106:	
  7649  0B63                     	line	60
  7650                           ;ROK5ZAD3.c: 60:     if(a&8)
  7651                           	btfss	(Lcd_Port@a),(3)&7
  7652  0B63  1DF0               	goto	u1401
  7653  0B64  2B66               	goto	u1400
  7654  0B65  2B67               u1401:
  7655  0B66                     	goto	l107
  7656  0B66  2B69               u1400:
  7657  0B67                     	line	61
  7658                           	
  7659                           l1571:	
  7660  0B67                     ;ROK5ZAD3.c: 61:         RD7=1;
  7661                           	bsf	(71/8),(71)&7	;volatile
  7662  0B67  1788               	goto	l109
  7663  0B68  2B6B               	line	62
  7664                           ;ROK5ZAD3.c: 62:     else
  7665                           	
  7666                           l107:	
  7667  0B69                     	line	63
  7668                           ;ROK5ZAD3.c: 63:         RD7=0;
  7669                           	bcf	(71/8),(71)&7	;volatile
  7670  0B69  1388               	goto	l109
  7671  0B6A  2B6B               	
  7672                           l108:	
  7673  0B6B                     	line	64
  7674                           	
  7675                           l109:	
  7676  0B6B                     	return
  7677  0B6B  0008               	opt stack 0
  7678                           GLOBAL	__end_of_Lcd_Port
  7679                           	__end_of_Lcd_Port:
  7680  0B6C                     	signat	_Lcd_Port,4217
  7681                           	global	_ADC_Read
  7682                           
  7683 ;; *************** function _ADC_Read *****************
  7684 ;; Defined at:
  7685 ;;		line 180 in file "ROK5ZAD3.c"
  7686 ;; Parameters:    Size  Location     Type
  7687 ;;  channel         1    wreg     unsigned char 
  7688 ;; Auto vars:     Size  Location     Type
  7689 ;;  channel         1    4[COMMON] unsigned char 
  7690 ;; Return value:  Size  Location     Type
  7691 ;;                  2    0[COMMON] unsigned int 
  7692 ;; Registers used:
  7693 ;;		wreg, status,2, status,0
  7694 ;; Tracked objects:
  7695 ;;		On entry : 0/0
  7696 ;;		On exit  : 0/0
  7697 ;;		Unchanged: 0/0
  7698 ;; Data sizes:     COMMON   BANK0   BANK1   BANK3   BANK2
  7699 ;;      Params:         2       0       0       0       0
  7700 ;;      Locals:         1       0       0       0       0
  7701 ;;      Temps:          2       0       0       0       0
  7702 ;;      Totals:         5       0       0       0       0
  7703 ;;Total ram usage:        5 bytes
  7704 ;; Hardware stack levels used:    1
  7705 ;; This function calls:
  7706 ;;		Nothing
  7707 ;; This function is called by:
  7708 ;;		_main
  7709 ;; This function uses a non-reentrant model
  7710 ;;
  7711                           psect	text20,local,class=CODE,delta=2,merge=1,group=0
  7712                           	line	180
  7713                           global __ptext20
  7714                           __ptext20:	;psect for function _ADC_Read
  7715  0BBE                     psect	text20
  7716                           	file	"ROK5ZAD3.c"
  7717                           	line	180
  7718                           	global	__size_of_ADC_Read
  7719                           	__size_of_ADC_Read	equ	__end_of_ADC_Read-_ADC_Read
  7720  002E                     	
  7721                           _ADC_Read:	
  7722  0BBE                     ;incstack = 0
  7723                           	opt	stack 7
  7724                           ; Regs used in _ADC_Read: [wreg+status,2+status,0]
  7725                           ;ADC_Read@channel stored from wreg
  7726                           	movwf	(ADC_Read@channel)
  7727  0BBE  00F4               	line	182
  7728                           	
  7729                           l1691:	
  7730  0BBF                     ;ROK5ZAD3.c: 180: unsigned int ADC_Read(unsigned char channel);ROK5ZAD3.c: 181: {;ROK5ZA
                                 D3.c: 182:   ADCON0 &= 0x11000101;
  7731                           	movlw	low(01h)
  7732  0BBF  3001               	movwf	(??_ADC_Read+0)+0
  7733  0BC0  00F2               	movf	(??_ADC_Read+0)+0,w
  7734  0BC1  0872               	bcf	status, 5	;RP0=0, select bank0
  7735  0BC2  1283               	bcf	status, 6	;RP1=0, select bank0
  7736  0BC3  1303               	andwf	(31),f	;volatile
  7737  0BC4  059F               	line	183
  7738                           ;ROK5ZAD3.c: 183:   ADCON0 |= channel<<3;
  7739                           	movf	(ADC_Read@channel),w	;volatile
  7740  0BC5  0874               	movwf	(??_ADC_Read+0)+0
  7741  0BC6  00F2               	movlw	(03h)-1
  7742  0BC7  3002               u1555:
  7743  0BC8                     	clrc
  7744  0BC8  1003               	rlf	(??_ADC_Read+0)+0,f
  7745  0BC9  0DF2               	addlw	-1
  7746  0BCA  3EFF               	skipz
  7747  0BCB  1D03               	goto	u1555
  7748  0BCC  2BC8               	clrc
  7749  0BCD  1003               	rlf	(??_ADC_Read+0)+0,w
  7750  0BCE  0D72               	movwf	(??_ADC_Read+1)+0
  7751  0BCF  00F3               	movf	(??_ADC_Read+1)+0,w
  7752  0BD0  0873               	iorwf	(31),f	;volatile
  7753  0BD1  049F               	line	184
  7754                           	
  7755                           l1693:	
  7756  0BD2                     ;ROK5ZAD3.c: 184:   _delay((unsigned long)((2)*(20000000/4000.0)));
  7757                           	opt asmopt_push
  7758                           opt asmopt_off
  7759                           movlw	13
  7760  0BD2  300D               movwf	((??_ADC_Read+0)+0+1),f
  7761  0BD3  00F3               	movlw	251
  7762  0BD4  30FB               movwf	((??_ADC_Read+0)+0),f
  7763  0BD5  00F2               	u2827:
  7764  0BD6                     decfsz	((??_ADC_Read+0)+0),f
  7765  0BD6  0BF2               	goto	u2827
  7766  0BD7  2BD6               	decfsz	((??_ADC_Read+0)+0+1),f
  7767  0BD8  0BF3               	goto	u2827
  7768  0BD9  2BD6               	nop2
  7769  0BDA  2BDB               opt asmopt_pop
  7770                           
  7771                           	line	185
  7772                           	
  7773                           l1695:	
  7774  0BDB                     ;ROK5ZAD3.c: 185:   GO_nDONE = 1;
  7775                           	bcf	status, 5	;RP0=0, select bank0
  7776  0BDB  1283               	bcf	status, 6	;RP1=0, select bank0
  7777  0BDC  1303               	bsf	(250/8),(250)&7	;volatile
  7778  0BDD  151F               	line	187
  7779                           ;ROK5ZAD3.c: 187:   while(GO_nDONE);
  7780                           	goto	l158
  7781  0BDE  2BDF               	
  7782                           l159:	
  7783  0BDF                     	
  7784                           l158:	
  7785  0BDF                     	btfsc	(250/8),(250)&7	;volatile
  7786  0BDF  191F               	goto	u1561
  7787  0BE0  2BE2               	goto	u1560
  7788  0BE1  2BE3               u1561:
  7789  0BE2                     	goto	l158
  7790  0BE2  2BDF               u1560:
  7791  0BE3                     	goto	l1697
  7792  0BE3  2BE4               	
  7793                           l160:	
  7794  0BE4                     	line	189
  7795                           	
  7796                           l1697:	
  7797  0BE4                     ;ROK5ZAD3.c: 189:   return ((ADRESH<<8)+ADRESL);
  7798                           	movf	(30),w	;volatile
  7799  0BE4  081E               	movwf	(?_ADC_Read+1)
  7800  0BE5  00F1               	bsf	status, 5	;RP0=1, select bank1
  7801  0BE6  1683               	bcf	status, 6	;RP1=0, select bank1
  7802  0BE7  1303               	movf	(158)^080h,w	;volatile
  7803  0BE8  081E               	movwf	(?_ADC_Read)
  7804  0BE9  00F0               	goto	l161
  7805  0BEA  2BEB               	
  7806                           l1699:	
  7807  0BEB                     	line	190
  7808                           	
  7809                           l161:	
  7810  0BEB                     	return
  7811  0BEB  0008               	opt stack 0
  7812                           GLOBAL	__end_of_ADC_Read
  7813                           	__end_of_ADC_Read:
  7814  0BEC                     	signat	_ADC_Read,4218
  7815                           	global	_ADC_Initialize
  7816                           
  7817 ;; *************** function _ADC_Initialize *****************
  7818 ;; Defined at:
  7819 ;;		line 174 in file "ROK5ZAD3.c"
  7820 ;; Parameters:    Size  Location     Type
  7821 ;;		None
  7822 ;; Auto vars:     Size  Location     Type
  7823 ;;		None
  7824 ;; Return value:  Size  Location     Type
  7825 ;;                  1    wreg      void 
  7826 ;; Registers used:
  7827 ;;		wreg
  7828 ;; Tracked objects:
  7829 ;;		On entry : 0/0
  7830 ;;		On exit  : 0/0
  7831 ;;		Unchanged: 0/0
  7832 ;; Data sizes:     COMMON   BANK0   BANK1   BANK3   BANK2
  7833 ;;      Params:         0       0       0       0       0
  7834 ;;      Locals:         0       0       0       0       0
  7835 ;;      Temps:          0       0       0       0       0
  7836 ;;      Totals:         0       0       0       0       0
  7837 ;;Total ram usage:        0 bytes
  7838 ;; Hardware stack levels used:    1
  7839 ;; This function calls:
  7840 ;;		Nothing
  7841 ;; This function is called by:
  7842 ;;		_main
  7843 ;; This function uses a non-reentrant model
  7844 ;;
  7845                           psect	text21,local,class=CODE,delta=2,merge=1,group=0
  7846                           	line	174
  7847                           global __ptext21
  7848                           __ptext21:	;psect for function _ADC_Initialize
  7849  0AD3                     psect	text21
  7850                           	file	"ROK5ZAD3.c"
  7851                           	line	174
  7852                           	global	__size_of_ADC_Initialize
  7853                           	__size_of_ADC_Initialize	equ	__end_of_ADC_Initialize-_ADC_Initialize
  7854  0009                     	
  7855                           _ADC_Initialize:	
  7856  0AD3                     ;incstack = 0
  7857                           	opt	stack 7
  7858                           ; Regs used in _ADC_Initialize: [wreg]
  7859                           	line	176
  7860                           	
  7861                           l1689:	
  7862  0AD3                     ;ROK5ZAD3.c: 176:   ADCON0 = 0b01000001;
  7863                           	movlw	low(041h)
  7864  0AD3  3041               	bcf	status, 5	;RP0=0, select bank0
  7865  0AD4  1283               	bcf	status, 6	;RP1=0, select bank0
  7866  0AD5  1303               	movwf	(31)	;volatile
  7867  0AD6  009F               	line	177
  7868                           ;ROK5ZAD3.c: 177:   ADCON1 = 0b11000000;
  7869                           	movlw	low(0C0h)
  7870  0AD7  30C0               	bsf	status, 5	;RP0=1, select bank1
  7871  0AD8  1683               	bcf	status, 6	;RP1=0, select bank1
  7872  0AD9  1303               	movwf	(159)^080h	;volatile
  7873  0ADA  009F               	line	178
  7874                           	
  7875                           l155:	
  7876  0ADB                     	return
  7877  0ADB  0008               	opt stack 0
  7878                           GLOBAL	__end_of_ADC_Initialize
  7879                           	__end_of_ADC_Initialize:
  7880  0ADC                     	signat	_ADC_Initialize,89
  7881                           global	___latbits
  7882                           ___latbits	equ	2
  7883  0002                     	global	btemp
  7884                           	btemp set 07Eh
  7885  007E                     
  7886                           	DABS	1,126,2	;btemp
  7887                           	global	wtemp0
  7888                           	wtemp0 set btemp+0
  7889  007E                     	end


Data Sizes:
    Strings     367
    Constant    0
    Data        10
    BSS         0
    Persistent  0
    Stack       0

Auto Spaces:
    Space          Size  Autos    Used
    COMMON           14     14      14
    BANK0            80     73      73
    BANK1            80      0      10
    BANK3            96      0       0
    BANK2            96      0       0

Pointer List with Targets:

    printf@f	PTR const unsigned char  size(2) Largest target is 51
		 -> STR_14(CODE[25]), STR_11(CODE[25]), STR_8(CODE[25]), STR_7(CODE[3]), 
		 -> STR_6(CODE[26]), STR_5(CODE[27]), STR_4(CODE[33]), STR_3(CODE[44]), 
		 -> STR_2(CODE[51]), STR_1(CODE[42]), 

    printf@ap	PTR void [1] size(1) Largest target is 2
		 -> ?_printf(COMMON[2]), 

    Lcd_Write_String@a	PTR unsigned char  size(2) Largest target is 16
		 -> STR_17(CODE[2]), STR_16(CODE[2]), STR_15(CODE[12]), STR_13(CODE[11]), 
		 -> STR_12(CODE[16]), STR_10(CODE[16]), STR_9(CODE[12]), 


Critical Paths under _main in COMMON

    _main->___awmod
    _main->___flmul
    _printf->_putch
    _putch->_UART_Send_Char
    ___xxtofl->_ADC_Read
    ___fltol->___flmul
    ___flmul->__Umul8_16
    ___awmod->___awdiv
    _Lcd_Write_String->_Lcd_Write_Char
    _Lcd_Write_Char->_Lcd_Port
    _Lcd_Set_Cursor->_Lcd_Cmd
    _Lcd_Init->_Lcd_Cmd
    _Lcd_Clear->_Lcd_Cmd
    _Lcd_Cmd->_Lcd_Port

Critical Paths under _main in BANK0

    _main->___fltol
    ___fltol->___flmul

Critical Paths under _main in BANK1

    None.

Critical Paths under _main in BANK3

    None.

Critical Paths under _main in BANK2

    None.

Call Graph Tables:

 ---------------------------------------------------------------------------------
 (Depth) Function   	        Calls       Base Space   Used Autos Params    Refs
 ---------------------------------------------------------------------------------
 (0) _main                                                41    41      0    9655
                                             32 BANK0     41    41      0
                     _ADC_Initialize
                           _ADC_Read
                          _Lcd_Clear
                           _Lcd_Init
                     _Lcd_Set_Cursor
                     _Lcd_Write_Char
                   _Lcd_Write_String
                      _UART_Get_Char
                          _UART_Init
                     _UART_Send_Char
                            ___awdiv
                            ___awmod
                            ___fldiv
                            ___flmul
                            ___fltol
                           ___xxtofl
                             _printf
 ---------------------------------------------------------------------------------
 (1) _printf                                              19    17      2     850
                                              2 COMMON     7     5      2
                              _putch
 ---------------------------------------------------------------------------------
 (2) _putch                                                1     1      0      44
                                              1 COMMON     1     1      0
                     _UART_Send_Char
 ---------------------------------------------------------------------------------
 (3) _UART_Send_Char                                       1     1      0      22
                                              0 COMMON     1     1      0
 ---------------------------------------------------------------------------------
 (1) ___xxtofl                                            14    10      4     398
                                              5 COMMON     8     4      4
                                              0 BANK0      6     6      0
                           _ADC_Read (ARG)
 ---------------------------------------------------------------------------------
 (1) ___fltol                                             11     7      4     305
                                             21 BANK0     11     7      4
                            ___flmul (ARG)
 ---------------------------------------------------------------------------------
 (1) ___flmul                                             26    18      8    2569
                                              9 COMMON     5     5      0
                                              0 BANK0     21    13      8
                          __Umul8_16
 ---------------------------------------------------------------------------------
 (2) __Umul8_16                                            9     7      2     799
                                              0 COMMON     9     7      2
 ---------------------------------------------------------------------------------
 (1) ___fldiv                                             26    18      8    1273
                                              0 COMMON    13     5      8
                                              0 BANK0     13    13      0
 ---------------------------------------------------------------------------------
 (1) ___awmod                                              7     3      4     904
                                              9 COMMON     5     1      4
                                              0 BANK0      2     2      0
                            ___awdiv (ARG)
 ---------------------------------------------------------------------------------
 (1) ___awdiv                                              9     5      4     756
                                              0 COMMON     9     5      4
 ---------------------------------------------------------------------------------
 (1) _UART_Init                                            0     0      0       0
 ---------------------------------------------------------------------------------
 (1) _UART_Get_Char                                        0     0      0       0
 ---------------------------------------------------------------------------------
 (1) _Lcd_Write_String                                     7     5      2     800
                                              5 COMMON     7     5      2
                     _Lcd_Write_Char
 ---------------------------------------------------------------------------------
 (2) _Lcd_Write_Char                                       4     4      0     178
                                              1 COMMON     4     4      0
                           _Lcd_Port
 ---------------------------------------------------------------------------------
 (1) _Lcd_Set_Cursor                                       7     6      1     836
                                              4 COMMON     7     6      1
                            _Lcd_Cmd
 ---------------------------------------------------------------------------------
 (1) _Lcd_Init                                             2     2      0     198
                                              4 COMMON     2     2      0
                            _Lcd_Cmd
                           _Lcd_Port
 ---------------------------------------------------------------------------------
 (1) _Lcd_Clear                                            0     0      0     110
                            _Lcd_Cmd
 ---------------------------------------------------------------------------------
 (2) _Lcd_Cmd                                              3     3      0     110
                                              1 COMMON     3     3      0
                           _Lcd_Port
 ---------------------------------------------------------------------------------
 (3) _Lcd_Port                                             1     1      0      88
                                              0 COMMON     1     1      0
 ---------------------------------------------------------------------------------
 (1) _ADC_Read                                             5     3      2      22
                                              0 COMMON     5     3      2
 ---------------------------------------------------------------------------------
 (1) _ADC_Initialize                                       0     0      0       0
 ---------------------------------------------------------------------------------
 Estimated maximum stack depth 3
 ---------------------------------------------------------------------------------

 Call Graph Graphs:

 _main (ROOT)
   _ADC_Initialize
   _ADC_Read
   _Lcd_Clear
     _Lcd_Cmd
       _Lcd_Port
   _Lcd_Init
     _Lcd_Cmd
       _Lcd_Port
     _Lcd_Port
   _Lcd_Set_Cursor
     _Lcd_Cmd
       _Lcd_Port
   _Lcd_Write_Char
     _Lcd_Port
   _Lcd_Write_String
     _Lcd_Write_Char
       _Lcd_Port
   _UART_Get_Char
   _UART_Init
   _UART_Send_Char
   ___awdiv
   ___awmod
     ___awdiv (ARG)
   ___fldiv
   ___flmul
     __Umul8_16
   ___fltol
     ___flmul (ARG)
       __Umul8_16
   ___xxtofl
     _ADC_Read (ARG)
   _printf
     _putch
       _UART_Send_Char

 Address spaces:
Name               Size   Autos  Total    Cost      Usage
BANK3               60      0       0       9        0.0%
BITBANK3            60      0       0       8        0.0%
SFR3                 0      0       0       4        0.0%
BITSFR3              0      0       0       4        0.0%
BANK2               60      0       0      11        0.0%
BITBANK2            60      0       0      10        0.0%
SFR2                 0      0       0       5        0.0%
BITSFR2              0      0       0       5        0.0%
BANK1               50      0       A       7       12.5%
BITBANK1            50      0       0       6        0.0%
SFR1                 0      0       0       2        0.0%
BITSFR1              0      0       0       2        0.0%
BANK0               50     49      49       5       91.3%
BITBANK0            50      0       0       4        0.0%
SFR0                 0      0       0       1        0.0%
BITSFR0              0      0       0       1        0.0%
COMMON               E      E       E       1      100.0%
BITCOMMON            E      0       0       0        0.0%
CODE                 0      0       0       0        0.0%
DATA                 0      0      61      12        0.0%
ABS                  0      0      61       3        0.0%
NULL                 0      0       0       0        0.0%
STACK                0      0       0       2        0.0%
EEDATA             100      0       0       0        0.0%


Microchip Technology PIC Macro Assembler V2.00 build -1524193055 
Symbol Table                                                                                   Sat Jan 05 19:10:51 2019

             ___fldiv@aexp 002C               ___fldiv@bexp 002B                          pc 0002  
             ___fldiv@sign 0024                __CFG_CP$OFF 0000               ___awdiv@sign 0076  
                       fsr 0004        __Umul8_16@word_mpld 0076                __CFG_LVP$ON 0000  
                      l101 0B52                        l102 0B55                        l103 0B5B  
                      l104 0B5C                        l112 0B48                        l120 0CBB  
                      l105 0B62                        l121 0CBC                        l106 0B63  
                      l130 0C4B                        l107 0B69                        l115 0012  
                      l131 0C28                        l108 0B6B                        l124 0D1A  
                      l132 0C68                        l140 0AE8                        l109 0B6B  
                      l133 0C68                        l141 0AEF                        l118 0C92  
                      l142 0AF1                        l119 0CBC                        l127 0C24  
                      l160 0BE4                        l136 0B2E                        l152 0AD2  
                      l161 0BEB                        l145 0AFB                        l146 0AFC  
                      l170 0211                        l155 0ADB                        l147 0AFC  
                      l139 0AE8                        l171 046D                        l148 0B01  
                      l420 0DB2                        l172 025C                        l149 0B03  
                      l421 0DA6                        l173 029A                        l158 0BDF  
                      l422 0DB7                        l430 0D2A                        l270 0B93  
                      l174 02D4                        l159 0BDF                        l423 0DB8  
                      l431 0D34                        l175 02C0                        l424 0DD1  
                      l440 0D7F                        l432 0D6F                        l176 02DA  
                      l168 01BE                        l425 0DDF                        l417 0D8D  
                      l433 0D49                        l177 0476                        l169 045B  
                      l426 0DEB                        l418 0D9B                        l434 0D3D  
                      l178 0476                        l427 0DF0                        l419 0DE0  
                      l435 0D4E                        l267 0B78                        l436 0D4F  
                      l620 0E34                        l700 0B9F                        l460 00AE  
                      l268 0B71                        l437 0D60                        l621 0E4A  
                      l701 0BA9                        l461 007B                        l269 0B93  
                      l438 0D6E                        l630 0ED9                        l622 0E47  
                      l702 0BB8                        l470 00AE                        l462 0067  
                      l439 0D7A                        l631 0F0B                        l623 0E52  
                      l703 0BBD                        l463 0068                        l640 0F6A  
                      l632 0F17                        l624 0E74                        l616 0E04  
                      l464 007A                        l641 0F69                        l633 0F21  
                      l625 0FFF                        l617 0E1A                        l465 009E  
                      l642 0FA3                        l634 0F41                        l626 0E8B  
                      l618 0E17                        l466 008B                        l643 0FA2  
                      l635 0F22                        l627 0F10                        l619 0E23  
                      l467 0097                        l459 0032                        l644 0FBF  
                      l636 0F31                        l628 0EBC                        l660 04EE  
                      l652 048C                        l468 008C                        l645 0FDB  
                      l637 0F46                        l629 0EE3                        l653 04A1  
                      l469 009D                        l646 0FE7                        l638 0F6B  
                      l670 0758                        l662 04E4                        l654 049F  
                      l647 0FEB                        l639 0F62                        l671 0757  
                      l663 07ED                        l655 04AA                        l672 0791  
                      l664 072F                        l656 04BB                        l673 0790  
                      l665 0710                        l657 04D0                        l681 00CB  
                      l674 07A9                        l666 071F                        l658 04CE  
                      l690 0122                        l682 00D3                        l675 07E0  
                      l667 0734                        l659 04D9                        l691 012F  
                      l683 00E5                        l676 07C4                        l668 0759  
                      l692 0123                        l684 0172                        l677 07E0  
                      l669 0750                        l685 00F8                        l678 07D8  
                      l694 013A                        l686 00EA                        l695 013A  
                      l687 00FF                        l696 0146                        l688 011B  
                      l697 0169                        l689 0100                        _RC0 0038  
                      _RC1 0039                        _RC2 003A                        _RD0 0040  
                      _RC3 003B                        _RD1 0041                        _RD2 0042  
                      _RC4 003C                        _RE0 0048                        _RD3 0043  
                      _RC5 003D                        _RE1 0049                        _RD4 0044  
                      _RD5 0045                        _RD6 0046                        _RD7 0047  
             __CFG_CPD$OFF 0000                        _RX9 00C6                        _TX9 04C6  
                      fsr0 0004                        indf 0000               ___awmod@sign 0021  
             __CFG_FOSC$HS 0000               ___flmul@aexp 002D               ___flmul@bexp 002E  
             ___flmul@sign 0028               ___flmul@temp 0033               ___flmul@prod 002F  
             ___fltol@exp1 003F                       l2001 04D0                       l2011 04EE  
                     l2003 04D9                       l2101 07D8                       l2021 0570  
                     l2013 04FE                       l2005 04DE                       l2103 07E4  
                     l2031 05DE                       l2023 058C                       l2015 050B  
                     l2007 04E4                       l2111 00BB                       l2105 07ED  
                     l2041 066E                       l2033 05EE                       l2025 05A8  
                     l2017 0528                       l2009 04ED                       l2121 00EA  
                     l2113 00CB                       l2201 01BE                       l2051 0702  
                     l2043 067E                       l2035 060B                       l2027 05B1  
                     l2019 0544                       l2131 0123                       l2123 00F8  
                     l2115 00DB                       l2107 00B2                       l2211 01EB  
                     l2203 01C7                       l2061 0728                       l2053 0710  
                     l2045 06AB                       l2037 0624                       l2029 05C1  
                     l2141 015E                       l2133 012F                       l2125 0100  
                     l2117 00E4                       l2109 00B7                       l2301 03F5  
                     l2221 021A                       l2213 01F4                       l2205 01D0  
                     l2071 074D                       l2055 0719                       l2063 072F  
                     l2047 06D1                       l2039 0641                       l2143 0163  
                     l2135 0133                       l2127 0104                       l2119 00E5  
                     l2311 0425                       l2303 03FE                       l2231 0240  
                     l2223 0222                       l2215 0201                       l2207 01D9  
                     l2151 0173                       l1601 0C19                       l2081 0770  
                     l2073 0754                       l2065 0734                       l2057 071D  
                     l2049 06F9                       l2145 0167                       l2137 013E  
                     l2129 0112                       l2321 0454                       l2313 042E  
                     l2305 040A                       l2241 0245                       l2233 0241  
                     l2225 0233                       l2217 0207                       l2209 01E2  
                     l2161 017D                       l2153 0179                       l1603 0C1C  
                     l1611 0B97                       l2091 07B8                       l2083 0789  
                     l2075 0759                       l2067 0735                       l2059 071F  
                     l2147 0169                       l2139 0148                       l2323 045A  
                     l2315 0437                       l2307 0413                       l2251 025C  
                     l2243 0246                       l2235 0242                       l2227 023C  
                     l2219 0211                       l2171 0187                       l2163 017E  
                     l2155 017A                       l1605 0C21                       l1621 0BBD  
                     l1613 0B9F                       l2093 07C2                       l2077 075E  
                     l2085 0791                       l2069 0739                       l2149 0172  
                     l1701 0B6C                       l2317 043D                       l2309 041C  
                     l2261 028B                       l2253 0265                       l2245 0247  
                     l2237 0243                       l2229 023F                       l2325 045B  
                     l2181 01B1                       l2173 018C                       l2165 017F  
                     l2157 017B                       l1623 0006                       l1631 0C85  
                     l1711 0D85                       l1615 0BA3                       l2095 07C4  
                     l2087 079E                       l2079 076C                       l1607 0ACC  
                     l1703 0B71                       l2319 0446                       l2271 02B6  
                     l2263 0299                       l2255 026D                       l2327 046D  
                     l2247 0248                       l2239 0244                       l2191 01B8  
                     l2183 01B4                       l2175 0191                       l2167 0180  
                     l2159 017C                       l1641 0CAE                       l1633 0C8B  
                     l1625 0C6A                       l1721 0D9B                       l1713 0D8A  
                     l1617 0BB2                       l1609 0B95                       l2097 07D2  
                     l2089 07A9                       l1801 0050                       l1705 0B78  
                     l2281 02E3                       l2273 02BC                       l2265 029A  
                     l2257 027E                       l2249 0256                       l2193 01B9  
                     l2185 01B5                       l2177 01A8                       l2169 0182  
                     l1571 0B67                       l1563 0B4A                       l1651 0CDB  
                     l1643 0CB4                       l1627 0C6F                       l1635 0C92  
                     l1731 0DB2                       l1723 0D9D                       l1715 0D8D  
                     l1707 0D80                       l1619 0BB8                       l2099 07D6  
                     l1811 0068                       l1803 0052                       l2291 0391  
                     l2283 0309                       l2275 02C6                       l2267 02A2  
                     l2259 0287                       l2195 01BA                       l2187 01B6  
                     l2179 01AC                       l1565 0B4E                       l1581 0B39  
                     l1653 0CE1                       l1645 0CBD                       l1637 0C98  
                     l1629 0C80                       l1661 0C4B                       l1741 0DD8  
                     l1733 0DB8                       l1725 0DA3                       l1717 0D91  
                     l1709 0D81                       l1901 0EF5                       l1821 009E  
                     l1805 0056                       l1813 007B                       l1573 0AE7  
                     l2365 0462                       l2293 03B1                       l2285 0328  
                     l2269 02B0                       l2277 02D4                       l2197 01BB  
                     l2189 01B7                       l1567 0B59                       l1583 0B3C  
                     l1647 0CC3                       l1639 0CA9                       l1591 0BFA  
                     l1655 0C25                       l1671 0B1F                       l1663 0B17  
                     l1735 0DC9                       l1727 0DA6                       l1743 0DE0  
                     l1719 0D96                       l1751 0D1B                       l1911 0F1F  
                     l1903 0EF6                       l1831 0E02                       l1823 00A3  
                     l1815 0081                       l1807 005D                       l1575 0AEF  
                     l2295 03D1                       l2287 0347                       l2279 02DA  
                     l2199 01BC                       l1569 0B60                       l1585 0B45  
                     l1577 0B30                       l1649 0CCC                       l1593 0C08  
                     l1657 0C28                       l1681 0AF2                       l1673 0B22  
                     l1665 0B1B                       l1745 0DE5                       l1737 0DCF  
                     l1729 0DAD                       l1761 0D2E                       l1753 0D1E  
                     l1921 0F3A                       l1913 0F22                       l1905 0F0B  
                     l1841 0E18                       l1833 0E04                       l1825 0DF1  
                     l1817 008A                       l1809 0066                       l2297 03E4  
                     l2289 0371                       l1691 0BBF                       l1579 0B33  
                     l1595 0C0B                       l1587 0BED                       l1659 0C44  
                     l1683 0AF8                       l1675 0B25                       l1667 0B1D  
                     l1747 0DEB                       l1739 0DD1                       l1771 0D49  
                     l1763 0D34                       l1755 0D22                       l1931 0F5F  
                     l1915 0F2B                       l1923 0F41                       l1907 0F10  
                     l1851 0E32                       l1835 0E09                       l1843 0E1A  
                     l1827 0DF8                       l1819 008C                       l2299 03E9  
                     l1693 0BD2                       l1597 0C10                       l1589 0BF7  
                     l1685 0B01                       l1677 0B28                       l1669 0B1E  
                     l1749 0DF0                       l1773 0D4F                       l1765 0D3A  
                     l1781 0D6F                       l1757 0D27                       l1941 0F82  
                     l1933 0F66                       l1925 0F46                       l1917 0F2F  
                     l1909 0F17                       l1861 0E48                       l1853 0E34  
                     l1845 0E23                       l1837 0E0E                       l1829 0DFE  
                     l1695 0BDB                       l1599 0C13                       l1687 0B03  
                     l1679 0B2B                       l1783 0D74                       l1775 0D59  
                     l1767 0D3D                       l1759 0D2A                       l1951 0FCE  
                     l1943 0F9B                       l1935 0F6B                       l1927 0F47  
                     l1919 0F31                       l1871 0E73                       l1855 0E39  
                     l1863 0E4A                       l1847 0E28                       l1839 0E17  
                     l1791 0028                       l1689 0AD3                       l1697 0BE4  
                     l1785 0D7A                       l1777 0D60                       l1769 0D44  
                     l1961 0FE7                       l1953 0FD2                       l1937 0F70  
                     l1945 0FA3                       l1929 0F4B                       l1881 0EA2  
                     l1865 0E5A                       l1873 0E74                       l1857 0E3E  
                     l1849 0E2E                       l1793 0031                       l1699 0BEB  
                     l1787 0D7F                       l1779 0D67                       l1963 0FF6  
                     l1955 0FDA                       l1947 0FB0                       l1939 0F7E  
                     l1891 0EC1                       l1883 0EAA                       l1875 0E79  
                     l1867 0E66                       l1859 0E47                       l1971 0486  
                     l1795 0032                       l1965 0FFF                       l1957 0FE1  
                     l1949 0FBF                       l1893 0ED3                       l1885 0EB2  
                     l1877 0E8A                       l1869 0E6A                       l1981 049F  
                     l1973 048A                       l1797 0047                       l1789 0013  
                     l1959 0FE5                       l1895 0ED7                       l1887 0EBA  
                     l1879 0E8B                       l1991 04B9                       l1983 04A1  
                     l1975 048C                       l1967 0479                       l1799 0048  
                     l1897 0ED9                       l1889 0EBC                       l1993 04BB  
                     l1985 04AA                       l1977 0491                       l1969 0480  
                     l1899 0EE3                       l1995 04C0                       l1987 04AF  
                     l1979 0496                       l1997 04C5                       l1989 04B5  
                     l1999 04CE                       STR_1 105F                       STR_2 1000  
                     STR_3 1033                       STR_4 1089                       STR_5 10AA  
                     STR_6 10C5                       STR_7 1030                       STR_8 10DF  
                     STR_9 114A                       _BRGH 04C2                       _CREN 00C4  
                     u2000 0EF5                       u2001 0EF4                       u2010 0F0A  
                     u2100 0F66                       u2020 0F16                       u2101 0F65  
                     u2021 0F15                       u2005 0EF1                       u2110 0F70  
                     u2030 0F1F                       u2111 0F6F                       u2031 0F1E  
                     u2015 0EFD                       u1400 0B67                       u2120 0F82  
                     u2016 0EFE                       u2200 04B9                       u1401 0B66  
                     u2121 0F81                       u2017 0F03                       u2201 04B8  
                     u2130 0F91                       u2050 0F2F                       u2018 0F04  
                     u2210 04C0                       u1410 0AEE                       u2051 0F2E  
                     u2019 0F09                       u2211 04BF                       u1411 0AED  
                     u1500 0C32                       u2140 0FB0                       u2220 04C5  
                     u2141 0FAF                       u2045 0F24                       u2301 05D0  
                     u2221 04C4                       u1510 0C55                       u2150 0FCE  
                     u2070 0F45                       u1430 0BA3                       u2302 05D7  
                     u2230 04DE                       u2151 0FCD                       u2135 0F8C  
                     u2071 0F44                       u1431 0BA2                       u2311 05FD  
                     u2303 05DE                       u2231 04DD                       u1520 0C67  
                     u1600 0DA3                       u2160 0FE5                       u2080 0F4B  
                     u2312 0604                       u2240 04E3                       u1425 0BFD  
                     u1521 0C66                       u1601 0DA2                       u2161 0FE4  
                     u2145 0FAC                       u2081 0F4A                       u2065 0F33  
                     u2313 060B                       u2241 04E2                       u1370 0B4E  
                     u1530 0AF8                       u2090 0F5F                       u1450 0BB7  
                     u2170 048A                       u1371 0B4D                       u1531 0AF7  
                     u2155 0FCA                       u2091 0F5E                       u1451 0BB6  
                     u2331 0633                       u2251 0536                       u2171 0489  
                     u1380 0B59                       u1460 0C6F                       u1540 0B00  
                     u1620 0DB6                       u1700 0D3A                       u2500 077F  
                     u2420 071D                       u2332 063A                       u2252 053D  
                     u2180 0491                       u1381 0B58                       u1461 0C6E  
                     u1541 0AFF                       u1621 0DB5                       u1701 0D39  
                     u1445 0BAA                       u2421 071C                       u2405 06FB  
                     u2341 0660                       u2333 0641                       u2325 060D  
                     u2261 0552                       u2253 0544                       u2181 0490  
                     u1390 0B60                       u2510 079E                       u2342 0667  
                     u2262 0559                       u2190 0496                       u1391 0B5F  
                     u1615 0DA7                       u2511 079D                       u2415 0712  
                     u2351 068D                       u2343 066E                       u2271 057E  
                     u2263 0560                       u2191 0495                       u1560 0BE3  
                     u1480 0C98                       u1640 0DC9                       u1720 0D4D  
                     u2520 07B8                       u2440 0733                       u2360 06B7  
                     u2352 0694                       u2272 0585                       u1800 005D  
                     u2600 0121                       u1561 0BE2                       u1481 0C97  
                     u1641 0DC8                       u1721 0D4C                       u2521 07B7  
                     u2505 077A                       u2441 0732                       u2353 069B  
                     u2281 059A                       u2273 058C                       u1801 005C  
                     u2601 0120                       u1730 0D59                       u2530 07D6  
                     u2450 0739                       u2282 05A1                       u1570 0B92  
                     u1555 0BC8                       u1475 0C77                       u1635 0DB9  
                     u1731 0D58                       u1715 0D3E                       u2531 07D5  
                     u2515 079A                       u2451 0738                       u2435 0721  
                     u2371 06C3                       u2283 05A8                       u1571 0B91  
                     u1660 0DDE                       u1580 0D85                       u1900 0E32  
                     u2460 074D                       u2380 06DF                       u2372 06CA  
                     u1820 0079                       u2620 0133                       u2540 00B7  
                     u2700 02BC                       u1661 0DDD                       u1645 0DC5  
                     u1581 0D84                       u1901 0E31                       u2525 07B4  
                     u2461 074C                       u2373 06D1                       u2365 06B2  
                     u1821 0078                       u2621 0132                       u2541 00B6  
                     u2701 02BB                       u1670 0DE5                       u1590 0D91  
                     u1750 0D6D                       u1910 0E39                       u2470 0754  
                     u1830 0081                       u2630 0139                       u2550 00BB  
                     u2710 02D3                       u1495 0CA0                       u1671 0DE4  
                     u1655 0DD2                       u1591 0D90                       u1751 0D6C  
                     u1735 0D55                       u1911 0E38                       u2471 0753  
                     u2391 06EB                       u2295 05AA                       u1831 0080  
                     u1815 0069                       u2631 0138                       u2615 0127  
                     u2551 00BA                       u2711 02D2                       u1760 0D74  
                     u1680 0D22                       u1920 0E3E                       u2480 075E  
                     u2392 06F2                       u2640 013E                       u2560 00DB  
                     u2720 0475                       u1761 0D73                       u1745 0D61  
                     u1681 0D21                       u1921 0E3D                       u2481 075D  
                     u2393 06F9                       u2385 06DA                       u2641 013D  
                     u2561 00DA                       u2721 0474                       u1690 0D2E  
                     u1930 0E5A                       u2490 0770                       u1850 009C  
                     u1770 0028                       u2650 0153                       u1691 0D2D  
                     u1931 0E59                       u2491 076F                       u1851 009B  
                     u1771 0027                       u2715 02CF                       u1940 0E79  
                     u1860 00A3                       u1780 0040                       u2660 0163  
                     u2580 00FE                       u1941 0E78                       u1861 00A2  
                     u1845 008E                       u2661 0162                       u2581 00FD  
                     u1950 0EC1                       u1870 0E02                       u1790 0056  
                     u2670 0167                       u2807 0CE5                       u1951 0EC0  
                     u1871 0E01                       u1791 0055                       u2671 0166  
                     u2655 014E                       u2575 00EF                       u1880 0E09  
                     u2680 019B                       u2817 0B40                       u1881 0E08  
                     u1785 003B                       u2737 0250                       u1890 0E0E  
                     u2690 0298                       u2827 0BD6                       u1891 0E0D  
                     u2595 0113                       u2747 02AA                       u2691 0297  
                     u1980 0ED7                       u1981 0ED6                       u1965 0EC3  
                     u2757 044E                       u2767 0C0D                       u1975 0ECC  
                     u2695 0294                       u2777 0C1E                       u2787 0CC7  
                     u1995 0EDB                       _RCIF 0065                       u2797 0CD6  
                     _OERR 00C1                       _SPEN 00C7                       _TXEN 04C5  
                     _TXIF 0064                       _SYNC 04C4               __CFG_WRT$OFF 0000  
        ?_Lcd_Write_String 0075                       _main 0173                       btemp 007E  
         __end_of_ADC_Read 0BEC                       start 0000         ??_Lcd_Write_String 0077  
          ___fldiv@new_exp 0025            __end_of_Lcd_Cmd 0B49              ___fltol@sign1 003E  
                    ?_main 0070            __end_of___fldiv 1000            __end_of___awdiv 0DF1  
                    STR_10 112A                      STR_11 10F8                      STR_12 113A  
                    STR_13 1162                      STR_14 1111                      STR_15 1156  
                    STR_16 10F6                      STR_17 116D              __CFG_WDTE$OFF 0000  
          __end_of___awmod 0D80            __end_of___flmul 07EE            __end_of___fltol 00AF  
          ___awdiv@divisor 0070            ___awdiv@counter 0075                      _RCREG 001A  
                    _SPBRG 0099                      _PORTB 0006    __size_of_Lcd_Set_Cursor 0054  
                    _TRISB 0086                      _TRISD 0088                      _TXREG 0019  
       __size_of_UART_Init 0018                      _putch 0ACB                      main@i 0062  
           __CFG_BOREN$OFF 0000                      pclath 000A                      status 0003  
                    wtemp0 007E           __end_of_Lcd_Init 0D1B           __end_of_Lcd_Port 0B6C  
          __initialization 07EE               __end_of_main 0479                     ??_main 0040  
       __size_of_Lcd_Clear 000D                     _ADCON0 001F                     _ADCON1 009F  
                   _ADRESH 001E                     _ADRESL 009E           ___awdiv@dividend 0072  
                   ?_putch 0070                  ??_Lcd_Cmd 0071    __size_of_Lcd_Write_Char 0039  
                   _TRISC0 0438                     _TRISC1 0439                     _TRISC2 043A  
                   _TRISC3 043B                     _TRISC4 043C                     _TRISE0 0448  
                   _TRISC5 043D                     _TRISE1 0449                     _TRISC6 043E  
                   _TRISC7 043F           __end_of___xxtofl 0173             __CFG_PWRTE$OFF 0000  
        __end_of_UART_Init 0B2F                  ??___fldiv 0078                  ??___awdiv 0074  
                ??___awmod 007D                  ??___flmul 0079                  ??___fltol 0039  
          ADC_Read@channel 0074           ___awdiv@quotient 0077            ___awmod@divisor 0079  
    __end_of_UART_Get_Char 0B04            ___awmod@counter 0020                     _printf 0B6C  
                   main@c1 005A                     main@c2 005C                     main@c3 005E  
                   main@c4 0060         __size_of__Umul8_16 002A    __size_of_UART_Send_Char 000C  
                ?_ADC_Read 0070                     putch@a 0071            Lcd_Set_Cursor@a 0077  
          Lcd_Set_Cursor@b 0074            Lcd_Set_Cursor@y 0079            Lcd_Set_Cursor@z 0078  
             ___xxtofl@arg 0022               ___xxtofl@exp 0021               ___xxtofl@val 0075  
  __end_of__initialization 07FC          __end_of_Lcd_Clear 0013                 ___fltol@f1 0035  
           __pcstackCOMMON 0070               __pidataBANK1 0ADC              __end_of_putch 0AD3  
           _Lcd_Set_Cursor 0C69                 ??_ADC_Read 0072                  ?_Lcd_Init 0070  
                ?_Lcd_Port 0070                    ??_putch 0071          __end_of__Umul8_16 0BBE  
               __pmaintext 0173  __size_of_Lcd_Write_String 0044     __end_of_Lcd_Set_Cursor 0CBD  
                  ?_printf 0072    __size_of_ADC_Initialize 0009                  ?___xxtofl 0075  
               ??_Lcd_Init 0074                 ??_Lcd_Port 0070                 __stringtab 0800  
           _Lcd_Write_Char 0BEC                    _Lcd_Cmd 0B2F                    ___fldiv 0DF1  
                  ___awdiv 0D80                    ___awmod 0D1B                    ___flmul 0479  
                  ___fltol 0013            ?_Lcd_Set_Cursor 0074                    __ptext1 0B6C  
                  __ptext2 0ACB                    __ptext3 0AE6                    __ptext4 00AF  
                  __ptext5 0013                    __ptext6 0479                    __ptext7 0B94  
                  __ptext8 0DF1                    __ptext9 0D1B            __size_of_printf 0028  
           _UART_Send_Char 0AE6                 ??___xxtofl 0079           ___awmod@dividend 007B  
                  main@adc 004E     __end_of_Lcd_Write_Char 0C25       end_of_initialization 07FC  
                  printf@c 0078                    printf@f 0072                  Lcd_Port@a 0070  
             __pstringtext 1000                  _UART_Init 0B17     __end_of_UART_Send_Char 0AF2  
            ___xxtofl@sign 0020                ___fldiv@grs 0027                ___fldiv@rem 0020  
        __size_of_ADC_Read 002E            ?_Lcd_Write_Char 0070          Lcd_Write_String@a 0075  
        Lcd_Write_String@i 007A                ___flmul@grs 0029                 main@opcija 0065  
                _Lcd_Clear 0006           _Lcd_Write_String 0C25                 ?_UART_Init 0070  
           _ADC_Initialize 0AD3            ?_UART_Send_Char 0070             __end_of_printf 0B94  
      start_initialization 07EE          __size_of_Lcd_Init 005E          __size_of_Lcd_Port 0023  
   __size_of_UART_Get_Char 0012                 ?_Lcd_Clear 0070                 init_fetch0 0B04  
   __end_of_ADC_Initialize 0ADC                  __Umul8_16 0B94                __pdataBANK1 00A0  
          Lcd_Write_Char@a 0074            Lcd_Write_Char@y 0073                   ??_printf 0074  
                ___fldiv@a 0070                  ___fldiv@b 0074                  ___flmul@a 0024  
                ___flmul@b 0020                  ___latbits 0002              __pcstackBANK0 0020  
        __size_of___xxtofl 00C4                   ?_Lcd_Cmd 0070           ??_Lcd_Set_Cursor 0075  
                 ?___fldiv 0070                   ?___awdiv 0070                   ?___awmod 0079  
                 ?___flmul 0020                   ?___fltol 0035                 ?__Umul8_16 0070  
          ?_ADC_Initialize 0070                ??_UART_Init 0070                  __pstrings 0800  
            _UART_Get_Char 0AF2                   _ADC_Read 0BBE             __size_of_putch 0008  
                 Lcd_Cmd@a 0073                   _GO_nDONE 00FA                ??_Lcd_Clear 0074  
                main@F1060 00A0             ?_UART_Get_Char 0070                __stringbase 0812  
         ??_Lcd_Write_Char 0071                  main@temp1 0067                   _Lcd_Init 0CBD  
                 _Lcd_Port 0B49   __end_of_Lcd_Write_String 0C69            UART_Send_Char@a 0070  
         __size_of_Lcd_Cmd 001A           ??_UART_Send_Char 0070                ??__Umul8_16 0072  
         __size_of___fldiv 020F           __size_of___awdiv 0071           __size_of___awmod 0065  
         __size_of___flmul 0375           __size_of___fltol 009C         __end_of__stringtab 0812  
                 ___xxtofl 00AF                   __ptext10 0D80                   __ptext11 0B17  
                 __ptext20 0BBE                   __ptext12 0AF2                   __ptext21 0AD3  
                 __ptext13 0C25                   __ptext14 0BEC                   __ptext15 0C69  
                 __ptext16 0CBD                   __ptext17 0006                   __ptext18 0B2F  
                 __ptext19 0B49              __size_of_main 0306            ??_UART_Get_Char 0070  
                 main@broj 0064                   main@temp 0056                   main@volt 0052  
                 init_ram0 0B08         Lcd_Write_Char@temp 0072           ??_ADC_Initialize 0070  
                stringcode 080A                   printf@ap 0077         Lcd_Set_Cursor@temp 007A  
   __Umul8_16@multiplicand 0070                   stringtab 0800                main@DISPLEJ 0044  
     __Umul8_16@multiplier 0078          __Umul8_16@product 0074  
